 flightControlSystem_sfun

 Timestamp is 5f119a4f (Fri Jul 17 22:32:15 2020)

 Preferred load address is 0000000180000000

 Start         Length     Name                   Class
 0001:00000000 000620f0H .text$mn                CODE
 0001:000620f0 00000020H .text$mn$00             CODE
 0001:00062110 00000bb9H .text$x                 CODE
 0002:00000000 000004a0H .idata$5                DATA
 0002:000004a0 00000010H .00cfg                  DATA
 0002:000004b0 00000008H .CRT$XCA                DATA
 0002:000004b8 00000008H .CRT$XCZ                DATA
 0002:000004c0 00000008H .CRT$XIA                DATA
 0002:000004c8 00000008H .CRT$XIZ                DATA
 0002:000004d0 00000008H .CRT$XPA                DATA
 0002:000004d8 00000008H .CRT$XPZ                DATA
 0002:000004e0 00000008H .CRT$XTA                DATA
 0002:000004e8 00000008H .CRT$XTZ                DATA
 0002:000004f0 00004148H .rdata                  DATA
 0002:00004638 000040acH .rdata$r                DATA
 0002:000086e4 00000264H .rdata$zzzdbg           DATA
 0002:00008948 00000008H .rtc$IAA                DATA
 0002:00008950 00000008H .rtc$IZZ                DATA
 0002:00008958 00000008H .rtc$TAA                DATA
 0002:00008960 00000010H .rtc$TZZ                DATA
 0002:00008970 00003308H .xdata                  DATA
 0002:0000bc78 000000f8H .xdata$x                DATA
 0002:0000bd70 00000218H .edata                  DATA
 0002:0000bf88 0000012cH .idata$2                DATA
 0002:0000c0b4 00000014H .idata$3                DATA
 0002:0000c0c8 000004a0H .idata$4                DATA
 0002:0000c568 00000cbaH .idata$6                DATA
 0003:00000000 00004738H .data                   DATA
 0003:00004738 000017a8H .data$r                 DATA
 0003:00005ee0 00000af8H .bss                    DATA
 0004:00000000 00003948H .pdata                  DATA
 0005:00000000 00000034H .gfids$y                DATA

  Address         Publics by Value              Rva+Base               Lib:Object

 0000:00000000       __dynamic_value_reloc_table 0000000000000000     <absolute>
 0000:00000000       ___safe_se_handler_table   0000000000000000     <absolute>
 0000:00000000       __guard_iat_count          0000000000000000     <absolute>
 0000:00000000       ___safe_se_handler_count   0000000000000000     <absolute>
 0000:00000000       __guard_longjmp_table      0000000000000000     <absolute>
 0000:00000000       __guard_fids_table         0000000000000000     <absolute>
 0000:00000000       __guard_fids_count         0000000000000000     <absolute>
 0000:00000000       __guard_longjmp_count      0000000000000000     <absolute>
 0000:00000000       __guard_iat_table          0000000000000000     <absolute>
 0000:00000100       __guard_flags              0000000000000100     <absolute>
 0000:00000000       __ImageBase                0000000180000000     <linker-defined>
 0001:00000000       flightControlSystem_initializer 0000000180001000 f   flightControlSystem_sfun.obj
 0001:00000010       flightControlSystem_terminator 0000000180001010 f   flightControlSystem_sfun.obj
 0001:00000020       load_flightControlSystem_optimization_info 0000000180001020 f   flightControlSystem_sfun.obj
 0001:000000d0       unload_flightControlSystem_optimization_info 00000001800010d0 f   flightControlSystem_sfun.obj
 0001:00000100       sf_flightControlSystem_method_dispatcher 0000000180001100 f   flightControlSystem_sfun.obj
 0001:00000150       sf_flightControlSystem_process_check_sum_call 0000000180001150 f   flightControlSystem_sfun.obj
 0001:00000640       sf_flightControlSystem_get_eml_resolved_functions_info 0000000180001640 f   flightControlSystem_sfun.obj
 0001:00000820       sf_flightControlSystem_third_party_uses_info 0000000180001820 f   flightControlSystem_sfun.obj
 0001:000009f0       sf_flightControlSystem_jit_fallback_info 00000001800019f0 f   flightControlSystem_sfun.obj
 0001:00000bc0       sf_flightControlSystem_get_post_codegen_info 0000000180001bc0 f   flightControlSystem_sfun.obj
 0001:00000da0       sf_flightControlSystem_updateBuildInfo_args_info 0000000180001da0 f   flightControlSystem_sfun.obj
 0001:00000f70       flightControlSystem_register_exported_symbols 0000000180001f70 f   flightControlSystem_sfun.obj
 0001:00000f80       sf_c1_flightControlSystem_get_eml_resolved_functions_info 0000000180001f80 f   c1_flightControlSystem.obj
 0001:00001000       sf_c1_flightControlSystem_get_check_sum 0000000180002000 f   c1_flightControlSystem.obj
 0001:000010d0       c1_flightControlSystem_method_dispatcher 00000001800020d0 f   c1_flightControlSystem.obj
 0001:00005580       sf_c1_flightControlSystem_third_party_uses_info 0000000180006580 f   c1_flightControlSystem.obj
 0001:000055f0       sf_c1_flightControlSystem_jit_fallback_info 00000001800065f0 f   c1_flightControlSystem.obj
 0001:00005780       sf_c1_flightControlSystem_updateBuildInfo_args_info 0000000180006780 f   c1_flightControlSystem.obj
 0001:00005b20       sf_c1_flightControlSystem_get_post_codegen_info 0000000180006b20 f   c1_flightControlSystem.obj
 0001:00006070       mexFunction                0000000180007070 f   flightControlSystem_sfun_registry.obj
 0001:00008820       _ssSetInputPortDirectFeedThroughFcn 0000000180009820 f   flightControlSystem_sfun_registry.obj
 0001:00008990       _ssSetRWorkValueFcn        0000000180009990 f   flightControlSystem_sfun_registry.obj
 0001:00008a10       _ssGetRWorkValueFcn        0000000180009a10 f   flightControlSystem_sfun_registry.obj
 0001:00008a80       _ssSetIWorkValueFcn        0000000180009a80 f   flightControlSystem_sfun_registry.obj
 0001:00008b00       _ssGetIWorkValueFcn        0000000180009b00 f   flightControlSystem_sfun_registry.obj
 0001:00008b70       _ssSetPWorkValueFcn        0000000180009b70 f   flightControlSystem_sfun_registry.obj
 0001:00008bf0       _ssGetPWorkValueFcn        0000000180009bf0 f   flightControlSystem_sfun_registry.obj
 0001:00008c60       _ssGetInputPortSignalFcn   0000000180009c60 f   flightControlSystem_sfun_registry.obj
 0001:00008ff0       _ssGetInputPortBufferDstPortFcn 0000000180009ff0 f   flightControlSystem_sfun_registry.obj
 0001:00009070       _ssGetInputPortSignalPtrsFcn 000000018000a070 f   flightControlSystem_sfun_registry.obj
 0001:00009400       ssGetParameterTuningCompliance 000000018000a400 f   flightControlSystem_sfun_registry.obj
 0001:00009470       ssGetDTypeIdFromMxArray    000000018000a470 f   flightControlSystem_sfun_registry.obj
 0001:00009590       ssWriteRTWMx2dMatParam     000000018000a590 f   flightControlSystem_sfun_registry.obj
 0001:00009620       ssWriteRTWMxVectParam      000000018000a620 f   flightControlSystem_sfun_registry.obj
 0001:000096a0       ssWriteRTWParameters       000000018000a6a0 f   flightControlSystem_sfun_registry.obj
 0001:00009c60       ssWriteRTWParamSettings    000000018000ac60 f   flightControlSystem_sfun_registry.obj
 0001:0000a350       ssWriteRTWStr              000000018000b350 f   flightControlSystem_sfun_registry.obj
 0001:0000a3b0       ssWriteRTWWorkVect         000000018000b3b0 f   flightControlSystem_sfun_registry.obj
 0001:0000a910       ssWarning                  000000018000b910 f   flightControlSystem_sfun_registry.obj
 0001:0000aa00       ssWriteRTWNameValuePair    000000018000ba00 f   flightControlSystem_sfun_registry.obj
 0001:0000af00       _ssSetInputPortMatrixDimensions 000000018000bf00 f   flightControlSystem_sfun_registry.obj
 0001:0000b020       _ssSetOutputPortMatrixDimensions 000000018000c020 f   flightControlSystem_sfun_registry.obj
 0001:0000b140       _ssSetInputPortVectorDimension 000000018000c140 f   flightControlSystem_sfun_registry.obj
 0001:0000b1f0       _ssSetOutputPortVectorDimension 000000018000c1f0 f   flightControlSystem_sfun_registry.obj
 0001:0000b2a0       ssIsRunTimeParamTunable    000000018000c2a0 f   flightControlSystem_sfun_registry.obj
 0001:0000b310       ssGetSFuncBlockHandle      000000018000c310 f   flightControlSystem_sfun_registry.obj
 0001:0000b380       _ssGetCurrentInputPortWidth 000000018000c380 f   flightControlSystem_sfun_registry.obj
 0001:0000b4a0       _ssGetCurrentOutputPortWidth 000000018000c4a0 f   flightControlSystem_sfun_registry.obj
 0001:0000b5c0       _ssGetCallSystemNumFcnCallDestinations 000000018000c5c0 f   flightControlSystem_sfun_registry.obj
 0001:0000b630       ssGetIsZeroCrossControlDisabled 000000018000c630 f   flightControlSystem_sfun_registry.obj
 0001:0000b6a0       ssSetIsInputPortUsedForContZcSignal 000000018000c6a0 f   flightControlSystem_sfun_registry.obj
 0001:0000b710       ssSetZcSignalIsZcElementDisc 000000018000c710 f   flightControlSystem_sfun_registry.obj
 0001:0000b7c0       ssSetZcSignalName          000000018000c7c0 f   flightControlSystem_sfun_registry.obj
 0001:0000b830       ssSetZcSignalWidth         000000018000c830 f   flightControlSystem_sfun_registry.obj
 0001:0000b8a0       ssSetZcSignalZcEventType   000000018000c8a0 f   flightControlSystem_sfun_registry.obj
 0001:0000b910       ssSetZcSignalType          000000018000c910 f   flightControlSystem_sfun_registry.obj
 0001:0000b980       ssSetZcSignalZcTol         000000018000c980 f   flightControlSystem_sfun_registry.obj
 0001:0000b9f0       ssSetZcSignalNeedsEventNotification 000000018000c9f0 f   flightControlSystem_sfun_registry.obj
 0001:0000ba60       ssCreateAndAddZcSignalInfo 000000018000ca60 f   flightControlSystem_sfun_registry.obj
 0001:0000bad0       ssCloneAndAddZcSignalInfo  000000018000cad0 f   flightControlSystem_sfun_registry.obj
 0001:0000bb40       ssGetNumZcSignals          000000018000cb40 f   flightControlSystem_sfun_registry.obj
 0001:0000bbb0       ssGetZcSignalVector        000000018000cbb0 f   flightControlSystem_sfun_registry.obj
 0001:0000bc20       ssGetZcSignalName          000000018000cc20 f   flightControlSystem_sfun_registry.obj
 0001:0000bc90       ssGetZcSignalWidth         000000018000cc90 f   flightControlSystem_sfun_registry.obj
 0001:0000bd00       ssGetZcSignalZcEventType   000000018000cd00 f   flightControlSystem_sfun_registry.obj
 0001:0000bd70       ssGetZcSignalZcEvents      000000018000cd70 f   flightControlSystem_sfun_registry.obj
 0001:0000bde0       ssGetZcSignalType          000000018000cde0 f   flightControlSystem_sfun_registry.obj
 0001:0000be50       ssGetZcSignalZcTol         000000018000ce50 f   flightControlSystem_sfun_registry.obj
 0001:0000bed0       ssGetZcSignalNeedsEventNotification 000000018000ced0 f   flightControlSystem_sfun_registry.obj
 0001:0000bf40       ssGetZcSignalIsZcElementDisc 000000018000cf40 f   flightControlSystem_sfun_registry.obj
 0001:0000bfe0       ssGetIsInputPortElementContinuous 000000018000cfe0 f   flightControlSystem_sfun_registry.obj
 0001:0000c080       _ssGetAbsTol               000000018000d080 f   flightControlSystem_sfun_registry.obj
 0001:0000c0f0       _ssSetStateAbsTol          000000018000d0f0 f   flightControlSystem_sfun_registry.obj
 0001:0000c1d0       _ssSetInputPortReusableFcn 000000018000d1d0 f   flightControlSystem_sfun_registry.obj
 0001:0000c2d0       _ssSetOutputPortReusableFcn 000000018000d2d0 f   flightControlSystem_sfun_registry.obj
 0001:0000c3d0       _ssSetSymbolicDimsSupport  000000018000d3d0 f   flightControlSystem_sfun_registry.obj
 0001:0000c440       _ssRegisterSymbolicDimsExpr 000000018000d440 f   flightControlSystem_sfun_registry.obj
 0001:0000c4c0       _ssRegisterSymbolicDims    000000018000d4c0 f   flightControlSystem_sfun_registry.obj
 0001:0000c560       _ssRegisterSymbolicDimsString 000000018000d560 f   flightControlSystem_sfun_registry.obj
 0001:0000c5e0       _ssRegisterSymbolicDimsIntValue 000000018000d5e0 f   flightControlSystem_sfun_registry.obj
 0001:0000c650       _ssRegisterSymbolicDimsPlus 000000018000d650 f   flightControlSystem_sfun_registry.obj
 0001:0000c6d0       _ssRegisterSymbolicDimsMinus 000000018000d6d0 f   flightControlSystem_sfun_registry.obj
 0001:0000c750       _ssRegisterSymbolicDimsMultiply 000000018000d750 f   flightControlSystem_sfun_registry.obj
 0001:0000c7d0       _ssRegisterSymbolicDimsDivide 000000018000d7d0 f   flightControlSystem_sfun_registry.obj
 0001:0000c850       _ssGetNumSymbolicDims      000000018000d850 f   flightControlSystem_sfun_registry.obj
 0001:0000c8c0       _ssGetSymbolicDim          000000018000d8c0 f   flightControlSystem_sfun_registry.obj
 0001:0000c940       _ssSetInputPortSymbolicDimsId 000000018000d940 f   flightControlSystem_sfun_registry.obj
 0001:0000c9b0       _ssGetCompInputPortSymbolicDimsId 000000018000d9b0 f   flightControlSystem_sfun_registry.obj
 0001:0000ca20       _ssSetCompInputPortSymbolicDimsId 000000018000da20 f   flightControlSystem_sfun_registry.obj
 0001:0000ca90       _ssSetOutputPortSymbolicDimsId 000000018000da90 f   flightControlSystem_sfun_registry.obj
 0001:0000cb00       _ssGetCompOutputPortSymbolicDimsId 000000018000db00 f   flightControlSystem_sfun_registry.obj
 0001:0000cb70       _ssSetCompOutputPortSymbolicDimsId 000000018000db70 f   flightControlSystem_sfun_registry.obj
 0001:0000cbe0       _ssSetCompDWorkSymbolicDimsId 000000018000dbe0 f   flightControlSystem_sfun_registry.obj
 0001:0000cc50       sf_process_check_sum_call  000000018000dc50 f   flightControlSystem_sfun_registry.obj
 0001:0000cca0       sf_process_get_third_party_uses_info_call 000000018000dca0 f   flightControlSystem_sfun_registry.obj
 0001:0000ced0       sf_process_get_jit_fallback_info_call 000000018000ded0 f   flightControlSystem_sfun_registry.obj
 0001:0000d100       sf_process_get_post_codegen_info_call 000000018000e100 f   flightControlSystem_sfun_registry.obj
 0001:0000d330       sf_process_get_updateBuildInfo_args_info_call 000000018000e330 f   flightControlSystem_sfun_registry.obj
 0001:0000d560       sf_process_get_eml_resolved_functions_info_call 000000018000e560 f   flightControlSystem_sfun_registry.obj
 0001:0000d790       sf_mex_unlock_call         000000018000e790 f   flightControlSystem_sfun_registry.obj
 0001:0000d9b0       sf_machine_global_initializer_called 000000018000e9b0 f   flightControlSystem_sfun_registry.obj
 0001:0000d9e0       sf_machine_global_method_dispatcher 000000018000e9e0 f   flightControlSystem_sfun_registry.obj
 0001:0000da40       sf_machine_global_terminator 000000018000ea40 f   flightControlSystem_sfun_registry.obj
 0001:0000da70       sf_register_machine_exported_symbols 000000018000ea70 f   flightControlSystem_sfun_registry.obj
 0001:0000da90       callCustomFcn              000000018000ea90 f   flightControlSystem_sfun_registry.obj
 0001:0000daa0       sf_machine_global_initializer 000000018000eaa0 f   flightControlSystem_sfun_registry.obj
 0001:0000db10       mdlGetSimState             000000018000eb10 f   flightControlSystem_sfun_registry.obj
 0001:0000db50       mdlSetSimState             000000018000eb50 f   flightControlSystem_sfun_registry.obj
 0001:0000e4a0       ProcessMexSfunctionEveryCall 000000018000f4a0 f   flightControlSystem_sfun_registry.obj
 0001:0000f610       __local_stdio_printf_options 0000000180010610 f i flightControlSystem_sfun_registry.obj
 0001:0000f620       _vsnprintf_l               0000000180010620 f i flightControlSystem_sfun_registry.obj
 0001:0000f6a0       _vsprintf_l                00000001800106a0 f i flightControlSystem_sfun_registry.obj
 0001:0000f6f0       sprintf                    00000001800106f0 f i flightControlSystem_sfun_registry.obj
 0001:0000f740       mexfilerequiredapiversion  0000000180010740 f   c_mexapi_version.obj
 0001:0000f770       constructDrawBaseObjectShape 0000000180010770 f   insertShapeUtilsCore.obj
 0001:0000f7b0       getPositionDataPointer     00000001800107b0 f   insertShapeUtilsCore.obj
 0001:0000f850       deletePositionDataPointer  0000000180010850 f   insertShapeUtilsCore.obj
 0001:0000f890       initialiseDrawbaseShape    0000000180010890 f   insertShapeUtilsCore.obj
 0001:0000f8f0       instantiateDrawBaseShape_single 00000001800108f0 f   insertShapeUtilsCore.obj
 0001:0000fab0       instantiateDrawBaseShape_double 0000000180010ab0 f   insertShapeUtilsCore.obj
 0001:0000fc70       instantiateDrawBaseShape_uint8 0000000180010c70 f   insertShapeUtilsCore.obj
 0001:0000fe30       instantiateDrawBaseShape_uint16 0000000180010e30 f   insertShapeUtilsCore.obj
 0001:0000fff0       instantiateDrawBaseShape_int16 0000000180010ff0 f   insertShapeUtilsCore.obj
 0001:000101b0       mDrawShapes                00000001800111b0 f   insertShapeUtilsCore.obj
 0001:00010220       deallocateMemoryShape      0000000180011220 f   insertShapeUtilsCore.obj
 0001:00010320       ??$CheckAndGetNumShape@H@@YAEHHPEBHPEAH1@Z 0000000180011320 f i insertShapeUtilsCore.obj
 0001:00010450       ??$CheckDataDimen@H@@YAEHPEBHHAEAH@Z 0000000180011450 f i insertShapeUtilsCore.obj
 0001:000104e0       ??$CheckDataDimenEven@H@@YAEHPEBHHAEAH1@Z 00000001800114e0 f i insertShapeUtilsCore.obj
 0001:000105a0       ??$FindLineInViewPort@HH@@YAEPEBH0PEAH@Z 00000001800115a0 f i insertShapeUtilsCore.obj
 0001:000114a0       ??$FindVisibleArea@HH@?$DrawCommon@EEHHMMEE@@IEAAXPEBHPEAH@Z 00000001800124a0 f i insertShapeUtilsCore.obj
 0001:00011610       ??$FindVisibleArea@HH@?$DrawCommon@EEHHMMEH@@IEAAXPEBHPEAH@Z 0000000180012610 f i insertShapeUtilsCore.obj
 0001:00011780       ??$FindVisibleArea@HH@?$DrawCommon@FFHHMMEE@@IEAAXPEBHPEAH@Z 0000000180012780 f i insertShapeUtilsCore.obj
 0001:000118f0       ??$FindVisibleArea@HH@?$DrawCommon@FFHHMMEH@@IEAAXPEBHPEAH@Z 00000001800128f0 f i insertShapeUtilsCore.obj
 0001:00011a60       ??$FindVisibleArea@HH@?$DrawCommon@GGHHMMEE@@IEAAXPEBHPEAH@Z 0000000180012a60 f i insertShapeUtilsCore.obj
 0001:00011bd0       ??$FindVisibleArea@HH@?$DrawCommon@GGHHMMEH@@IEAAXPEBHPEAH@Z 0000000180012bd0 f i insertShapeUtilsCore.obj
 0001:00011d40       ??$FindVisibleArea@HH@?$DrawCommon@MMHHMMEE@@IEAAXPEBHPEAH@Z 0000000180012d40 f i insertShapeUtilsCore.obj
 0001:00011eb0       ??$FindVisibleArea@HH@?$DrawCommon@MMHHMMEH@@IEAAXPEBHPEAH@Z 0000000180012eb0 f i insertShapeUtilsCore.obj
 0001:00012020       ??$FindVisibleArea@HH@?$DrawCommon@NNHHNNEE@@IEAAXPEBHPEAH@Z 0000000180013020 f i insertShapeUtilsCore.obj
 0001:00012190       ??$FindVisibleArea@HH@?$DrawCommon@NNHHNNEH@@IEAAXPEBHPEAH@Z 0000000180013190 f i insertShapeUtilsCore.obj
 0001:00012300       ??$FindVisibleAreaKeepCoordinate@HH@?$DrawCommon@EEHHMMEH@@IEAAXPEBHPEAH@Z 0000000180013300 f i insertShapeUtilsCore.obj
 0001:00012470       ??$FindVisibleAreaKeepCoordinate@HH@?$DrawCommon@FFHHMMEH@@IEAAXPEBHPEAH@Z 0000000180013470 f i insertShapeUtilsCore.obj
 0001:000125e0       ??$FindVisibleAreaKeepCoordinate@HH@?$DrawCommon@GGHHMMEH@@IEAAXPEBHPEAH@Z 00000001800135e0 f i insertShapeUtilsCore.obj
 0001:00012750       ??$FindVisibleAreaKeepCoordinate@HH@?$DrawCommon@MMHHMMEH@@IEAAXPEBHPEAH@Z 0000000180013750 f i insertShapeUtilsCore.obj
 0001:000128c0       ??$FindVisibleAreaKeepCoordinate@HH@?$DrawCommon@NNHHNNEH@@IEAAXPEBHPEAH@Z 00000001800138c0 f i insertShapeUtilsCore.obj
 0001:00012a30       ??$InstantiateShape@EEHHMM@@YAPEAVDrawBase@@PEAEPEAH0PEAM1HEHHHH1HEE0@Z 0000000180013a30 f i insertShapeUtilsCore.obj
 0001:00014230       ??$InstantiateShape@FFHHMM@@YAPEAVDrawBase@@PEAFPEAH0PEAM1HEHHHH1HEEPEAE@Z 0000000180015230 f i insertShapeUtilsCore.obj
 0001:00015a30       ??$InstantiateShape@GGHHMM@@YAPEAVDrawBase@@PEAGPEAH0PEAM1HEHHHH1HEEPEAE@Z 0000000180016a30 f i insertShapeUtilsCore.obj
 0001:00017230       ??$InstantiateShape@MMHHMM@@YAPEAVDrawBase@@PEAMPEAH001HEHHHH1HEEPEAE@Z 0000000180018230 f i insertShapeUtilsCore.obj
 0001:00018a30       ??$InstantiateShape@NNHHNN@@YAPEAVDrawBase@@PEANPEAH001HEHHHH1HEEPEAE@Z 0000000180019a30 f i insertShapeUtilsCore.obj
 0001:0001a230       ??$Max@H@?$DrawCommon@EEHHMMEE@@AEAAHHH@Z 000000018001b230 f i insertShapeUtilsCore.obj
 0001:0001a270       ??$Max@H@?$DrawCommon@EEHHMMEH@@AEAAHHH@Z 000000018001b270 f i insertShapeUtilsCore.obj
 0001:0001a2b0       ??$Max@H@?$DrawCommon@FFHHMMEE@@AEAAHHH@Z 000000018001b2b0 f i insertShapeUtilsCore.obj
 0001:0001a2f0       ??$Max@H@?$DrawCommon@FFHHMMEH@@AEAAHHH@Z 000000018001b2f0 f i insertShapeUtilsCore.obj
 0001:0001a330       ??$Max@H@?$DrawCommon@GGHHMMEE@@AEAAHHH@Z 000000018001b330 f i insertShapeUtilsCore.obj
 0001:0001a370       ??$Max@H@?$DrawCommon@GGHHMMEH@@AEAAHHH@Z 000000018001b370 f i insertShapeUtilsCore.obj
 0001:0001a3b0       ??$Max@H@?$DrawCommon@MMHHMMEE@@AEAAHHH@Z 000000018001b3b0 f i insertShapeUtilsCore.obj
 0001:0001a3f0       ??$Max@H@?$DrawCommon@MMHHMMEH@@AEAAHHH@Z 000000018001b3f0 f i insertShapeUtilsCore.obj
 0001:0001a430       ??$Max@H@?$DrawCommon@NNHHNNEE@@AEAAHHH@Z 000000018001b430 f i insertShapeUtilsCore.obj
 0001:0001a470       ??$Max@H@?$DrawCommon@NNHHNNEH@@AEAAHHH@Z 000000018001b470 f i insertShapeUtilsCore.obj
 0001:0001a4b0       ??$Min@H@?$DrawCommon@EEHHMMEE@@AEAAHHH@Z 000000018001b4b0 f i insertShapeUtilsCore.obj
 0001:0001a4f0       ??$Min@H@?$DrawCommon@EEHHMMEH@@AEAAHHH@Z 000000018001b4f0 f i insertShapeUtilsCore.obj
 0001:0001a530       ??$Min@H@?$DrawCommon@FFHHMMEE@@AEAAHHH@Z 000000018001b530 f i insertShapeUtilsCore.obj
 0001:0001a570       ??$Min@H@?$DrawCommon@FFHHMMEH@@AEAAHHH@Z 000000018001b570 f i insertShapeUtilsCore.obj
 0001:0001a5b0       ??$Min@H@?$DrawCommon@GGHHMMEE@@AEAAHHH@Z 000000018001b5b0 f i insertShapeUtilsCore.obj
 0001:0001a5f0       ??$Min@H@?$DrawCommon@GGHHMMEH@@AEAAHHH@Z 000000018001b5f0 f i insertShapeUtilsCore.obj
 0001:0001a630       ??$Min@H@?$DrawCommon@MMHHMMEE@@AEAAHHH@Z 000000018001b630 f i insertShapeUtilsCore.obj
 0001:0001a670       ??$Min@H@?$DrawCommon@MMHHMMEH@@AEAAHHH@Z 000000018001b670 f i insertShapeUtilsCore.obj
 0001:0001a6b0       ??$Min@H@?$DrawCommon@NNHHNNEE@@AEAAHHH@Z 000000018001b6b0 f i insertShapeUtilsCore.obj
 0001:0001a6f0       ??$Min@H@?$DrawCommon@NNHHNNEH@@AEAAHHH@Z 000000018001b6f0 f i insertShapeUtilsCore.obj
 0001:0001a730       ??$ToIntCoordinate@H@@YAHH@Z 000000018001b730 f i insertShapeUtilsCore.obj
 0001:0001a740       ??$getColDimen@H@@YAHHPEBH@Z 000000018001b740 f i insertShapeUtilsCore.obj
 0001:0001a790       ??$getRowDimen@H@@YAHHPEBH@Z 000000018001b790 f i insertShapeUtilsCore.obj
 0001:0001a7e0       ??0?$DrawAnyLine@EEHHMMEE@@QEAA@PEAE00HHH0HPEAHHH1EEEPEAMH00211@Z 000000018001b7e0 f i insertShapeUtilsCore.obj
 0001:0001a950       ??0?$DrawAnyLine@EEHHMMEH@@QEAA@PEAE00HHH0HPEAHHH1EEEPEAMH00211@Z 000000018001b950 f i insertShapeUtilsCore.obj
 0001:0001aac0       ??0?$DrawAnyLine@FFHHMMEE@@QEAA@PEAF00HHH0HPEAHHH1EEEPEAMHPEAE0211@Z 000000018001bac0 f i insertShapeUtilsCore.obj
 0001:0001ac30       ??0?$DrawAnyLine@FFHHMMEH@@QEAA@PEAF00HHH0HPEAHHH1EEEPEAMHPEAE0211@Z 000000018001bc30 f i insertShapeUtilsCore.obj
 0001:0001ada0       ??0?$DrawAnyLine@GGHHMMEE@@QEAA@PEAG00HHH0HPEAHHH1EEEPEAMHPEAE0211@Z 000000018001bda0 f i insertShapeUtilsCore.obj
 0001:0001af10       ??0?$DrawAnyLine@GGHHMMEH@@QEAA@PEAG00HHH0HPEAHHH1EEEPEAMHPEAE0211@Z 000000018001bf10 f i insertShapeUtilsCore.obj
 0001:0001b080       ??0?$DrawAnyLine@MMHHMMEE@@QEAA@PEAM00HHH0HPEAHHH1EEE0HPEAE0011@Z 000000018001c080 f i insertShapeUtilsCore.obj
 0001:0001b1f0       ??0?$DrawAnyLine@MMHHMMEH@@QEAA@PEAM00HHH0HPEAHHH1EEE0HPEAE0011@Z 000000018001c1f0 f i insertShapeUtilsCore.obj
 0001:0001b360       ??0?$DrawAnyLine@NNHHNNEE@@QEAA@PEAN00HHH0HPEAHHH1EEE0HPEAE0011@Z 000000018001c360 f i insertShapeUtilsCore.obj
 0001:0001b4d0       ??0?$DrawAnyLine@NNHHNNEH@@QEAA@PEAN00HHH0HPEAHHH1EEE0HPEAE0011@Z 000000018001c4d0 f i insertShapeUtilsCore.obj
 0001:0001b640       ??0?$DrawCircle@EEHHMMEEE@@QEAA@PEAE00HHH0HPEAHHH1EEEPEAMH002@Z 000000018001c640 f i insertShapeUtilsCore.obj
 0001:0001b780       ??0?$DrawCircle@EEHHMMEEH@@QEAA@PEAE00HHH0HPEAHHH1EEEPEAMH002@Z 000000018001c780 f i insertShapeUtilsCore.obj
 0001:0001b8c0       ??0?$DrawCircle@EEHHMMEHE@@QEAA@PEAE00HHH0HPEAHHH1EEEPEAMH002@Z 000000018001c8c0 f i insertShapeUtilsCore.obj
 0001:0001ba00       ??0?$DrawCircle@EEHHMMEHH@@QEAA@PEAE00HHH0HPEAHHH1EEEPEAMH002@Z 000000018001ca00 f i insertShapeUtilsCore.obj
 0001:0001bb40       ??0?$DrawCircle@FFHHMMEEE@@QEAA@PEAF00HHH0HPEAHHH1EEEPEAMHPEAE02@Z 000000018001cb40 f i insertShapeUtilsCore.obj
 0001:0001bc80       ??0?$DrawCircle@FFHHMMEEH@@QEAA@PEAF00HHH0HPEAHHH1EEEPEAMHPEAE02@Z 000000018001cc80 f i insertShapeUtilsCore.obj
 0001:0001bdc0       ??0?$DrawCircle@FFHHMMEHE@@QEAA@PEAF00HHH0HPEAHHH1EEEPEAMHPEAE02@Z 000000018001cdc0 f i insertShapeUtilsCore.obj
 0001:0001bf00       ??0?$DrawCircle@FFHHMMEHH@@QEAA@PEAF00HHH0HPEAHHH1EEEPEAMHPEAE02@Z 000000018001cf00 f i insertShapeUtilsCore.obj
 0001:0001c040       ??0?$DrawCircle@GGHHMMEEE@@QEAA@PEAG00HHH0HPEAHHH1EEEPEAMHPEAE02@Z 000000018001d040 f i insertShapeUtilsCore.obj
 0001:0001c180       ??0?$DrawCircle@GGHHMMEEH@@QEAA@PEAG00HHH0HPEAHHH1EEEPEAMHPEAE02@Z 000000018001d180 f i insertShapeUtilsCore.obj
 0001:0001c2c0       ??0?$DrawCircle@GGHHMMEHE@@QEAA@PEAG00HHH0HPEAHHH1EEEPEAMHPEAE02@Z 000000018001d2c0 f i insertShapeUtilsCore.obj
 0001:0001c400       ??0?$DrawCircle@GGHHMMEHH@@QEAA@PEAG00HHH0HPEAHHH1EEEPEAMHPEAE02@Z 000000018001d400 f i insertShapeUtilsCore.obj
 0001:0001c540       ??0?$DrawCircle@MMHHMMEEE@@QEAA@PEAM00HHH0HPEAHHH1EEE0HPEAE00@Z 000000018001d540 f i insertShapeUtilsCore.obj
 0001:0001c680       ??0?$DrawCircle@MMHHMMEEH@@QEAA@PEAM00HHH0HPEAHHH1EEE0HPEAE00@Z 000000018001d680 f i insertShapeUtilsCore.obj
 0001:0001c7c0       ??0?$DrawCircle@MMHHMMEHE@@QEAA@PEAM00HHH0HPEAHHH1EEE0HPEAE00@Z 000000018001d7c0 f i insertShapeUtilsCore.obj
 0001:0001c900       ??0?$DrawCircle@MMHHMMEHH@@QEAA@PEAM00HHH0HPEAHHH1EEE0HPEAE00@Z 000000018001d900 f i insertShapeUtilsCore.obj
 0001:0001ca40       ??0?$DrawCircle@NNHHNNEEE@@QEAA@PEAN00HHH0HPEAHHH1EEE0HPEAE00@Z 000000018001da40 f i insertShapeUtilsCore.obj
 0001:0001cb80       ??0?$DrawCircle@NNHHNNEEH@@QEAA@PEAN00HHH0HPEAHHH1EEE0HPEAE00@Z 000000018001db80 f i insertShapeUtilsCore.obj
 0001:0001ccc0       ??0?$DrawCircle@NNHHNNEHE@@QEAA@PEAN00HHH0HPEAHHH1EEE0HPEAE00@Z 000000018001dcc0 f i insertShapeUtilsCore.obj
 0001:0001ce00       ??0?$DrawCircle@NNHHNNEHH@@QEAA@PEAN00HHH0HPEAHHH1EEE0HPEAE00@Z 000000018001de00 f i insertShapeUtilsCore.obj
 0001:0001cf40       ??0?$DrawCircleAnySize@EEHHMMEEE@@QEAA@PEAE00HHH0HPEAHHH1EEEPEAMH0021@Z 000000018001df40 f i insertShapeUtilsCore.obj
 0001:0001d0a0       ??0?$DrawCircleAnySize@EEHHMMEEH@@QEAA@PEAE00HHH0HPEAHHH1EEEPEAMH0021@Z 000000018001e0a0 f i insertShapeUtilsCore.obj
 0001:0001d200       ??0?$DrawCircleAnySize@EEHHMMEHE@@QEAA@PEAE00HHH0HPEAHHH1EEEPEAMH0021@Z 000000018001e200 f i insertShapeUtilsCore.obj
 0001:0001d360       ??0?$DrawCircleAnySize@EEHHMMEHH@@QEAA@PEAE00HHH0HPEAHHH1EEEPEAMH0021@Z 000000018001e360 f i insertShapeUtilsCore.obj
 0001:0001d4c0       ??0?$DrawCircleAnySize@FFHHMMEEE@@QEAA@PEAF00HHH0HPEAHHH1EEEPEAMHPEAE021@Z 000000018001e4c0 f i insertShapeUtilsCore.obj
 0001:0001d620       ??0?$DrawCircleAnySize@FFHHMMEEH@@QEAA@PEAF00HHH0HPEAHHH1EEEPEAMHPEAE021@Z 000000018001e620 f i insertShapeUtilsCore.obj
 0001:0001d780       ??0?$DrawCircleAnySize@FFHHMMEHE@@QEAA@PEAF00HHH0HPEAHHH1EEEPEAMHPEAE021@Z 000000018001e780 f i insertShapeUtilsCore.obj
 0001:0001d8e0       ??0?$DrawCircleAnySize@FFHHMMEHH@@QEAA@PEAF00HHH0HPEAHHH1EEEPEAMHPEAE021@Z 000000018001e8e0 f i insertShapeUtilsCore.obj
 0001:0001da40       ??0?$DrawCircleAnySize@GGHHMMEEE@@QEAA@PEAG00HHH0HPEAHHH1EEEPEAMHPEAE021@Z 000000018001ea40 f i insertShapeUtilsCore.obj
 0001:0001dba0       ??0?$DrawCircleAnySize@GGHHMMEEH@@QEAA@PEAG00HHH0HPEAHHH1EEEPEAMHPEAE021@Z 000000018001eba0 f i insertShapeUtilsCore.obj
 0001:0001dd00       ??0?$DrawCircleAnySize@GGHHMMEHE@@QEAA@PEAG00HHH0HPEAHHH1EEEPEAMHPEAE021@Z 000000018001ed00 f i insertShapeUtilsCore.obj
 0001:0001de60       ??0?$DrawCircleAnySize@GGHHMMEHH@@QEAA@PEAG00HHH0HPEAHHH1EEEPEAMHPEAE021@Z 000000018001ee60 f i insertShapeUtilsCore.obj
 0001:0001dfc0       ??0?$DrawCircleAnySize@MMHHMMEEE@@QEAA@PEAM00HHH0HPEAHHH1EEE0HPEAE001@Z 000000018001efc0 f i insertShapeUtilsCore.obj
 0001:0001e120       ??0?$DrawCircleAnySize@MMHHMMEEH@@QEAA@PEAM00HHH0HPEAHHH1EEE0HPEAE001@Z 000000018001f120 f i insertShapeUtilsCore.obj
 0001:0001e280       ??0?$DrawCircleAnySize@MMHHMMEHE@@QEAA@PEAM00HHH0HPEAHHH1EEE0HPEAE001@Z 000000018001f280 f i insertShapeUtilsCore.obj
 0001:0001e3e0       ??0?$DrawCircleAnySize@MMHHMMEHH@@QEAA@PEAM00HHH0HPEAHHH1EEE0HPEAE001@Z 000000018001f3e0 f i insertShapeUtilsCore.obj
 0001:0001e540       ??0?$DrawCircleAnySize@NNHHNNEEE@@QEAA@PEAN00HHH0HPEAHHH1EEE0HPEAE001@Z 000000018001f540 f i insertShapeUtilsCore.obj
 0001:0001e6a0       ??0?$DrawCircleAnySize@NNHHNNEEH@@QEAA@PEAN00HHH0HPEAHHH1EEE0HPEAE001@Z 000000018001f6a0 f i insertShapeUtilsCore.obj
 0001:0001e800       ??0?$DrawCircleAnySize@NNHHNNEHE@@QEAA@PEAN00HHH0HPEAHHH1EEE0HPEAE001@Z 000000018001f800 f i insertShapeUtilsCore.obj
 0001:0001e960       ??0?$DrawCircleAnySize@NNHHNNEHH@@QEAA@PEAN00HHH0HPEAHHH1EEE0HPEAE001@Z 000000018001f960 f i insertShapeUtilsCore.obj
 0001:0001eac0       ??0?$DrawCommon@EEHHMMEE@@QEAA@PEAE00HHH0HPEAHHH1EEEPEAMH002@Z 000000018001fac0 f i insertShapeUtilsCore.obj
 0001:0001ec70       ??0?$DrawCommon@EEHHMMEH@@QEAA@PEAE00HHH0HPEAHHH1EEEPEAMH002@Z 000000018001fc70 f i insertShapeUtilsCore.obj
 0001:0001ee20       ??0?$DrawCommon@FFHHMMEE@@QEAA@PEAF00HHH0HPEAHHH1EEEPEAMHPEAE02@Z 000000018001fe20 f i insertShapeUtilsCore.obj
 0001:0001efd0       ??0?$DrawCommon@FFHHMMEH@@QEAA@PEAF00HHH0HPEAHHH1EEEPEAMHPEAE02@Z 000000018001ffd0 f i insertShapeUtilsCore.obj
 0001:0001f180       ??0?$DrawCommon@GGHHMMEE@@QEAA@PEAG00HHH0HPEAHHH1EEEPEAMHPEAE02@Z 0000000180020180 f i insertShapeUtilsCore.obj
 0001:0001f330       ??0?$DrawCommon@GGHHMMEH@@QEAA@PEAG00HHH0HPEAHHH1EEEPEAMHPEAE02@Z 0000000180020330 f i insertShapeUtilsCore.obj
 0001:0001f4e0       ??0?$DrawCommon@MMHHMMEE@@QEAA@PEAM00HHH0HPEAHHH1EEE0HPEAE00@Z 00000001800204e0 f i insertShapeUtilsCore.obj
 0001:0001f690       ??0?$DrawCommon@MMHHMMEH@@QEAA@PEAM00HHH0HPEAHHH1EEE0HPEAE00@Z 0000000180020690 f i insertShapeUtilsCore.obj
 0001:0001f840       ??0?$DrawCommon@NNHHNNEE@@QEAA@PEAN00HHH0HPEAHHH1EEE0HPEAE00@Z 0000000180020840 f i insertShapeUtilsCore.obj
 0001:0001f9f0       ??0?$DrawCommon@NNHHNNEH@@QEAA@PEAN00HHH0HPEAHHH1EEE0HPEAE00@Z 00000001800209f0 f i insertShapeUtilsCore.obj
 0001:0001fba0       ??0?$DrawFilledPolygon@EEHHMMEE@@QEAA@PEAE00HHH0HPEAHHH1EEEPEAMH002PEAV?$ScanLineBase@HHE@@11@Z 0000000180020ba0 f i insertShapeUtilsCore.obj
 0001:0001fd30       ??0?$DrawFilledPolygon@EEHHMMEH@@QEAA@PEAE00HHH0HPEAHHH1EEEPEAMH002PEAV?$ScanLineBase@HHH@@11@Z 0000000180020d30 f i insertShapeUtilsCore.obj
 0001:0001fec0       ??0?$DrawFilledPolygon@FFHHMMEE@@QEAA@PEAF00HHH0HPEAHHH1EEEPEAMHPEAE02PEAV?$ScanLineBase@HHE@@11@Z 0000000180020ec0 f i insertShapeUtilsCore.obj
 0001:00020050       ??0?$DrawFilledPolygon@FFHHMMEH@@QEAA@PEAF00HHH0HPEAHHH1EEEPEAMHPEAE02PEAV?$ScanLineBase@HHH@@11@Z 0000000180021050 f i insertShapeUtilsCore.obj
 0001:000201e0       ??0?$DrawFilledPolygon@GGHHMMEE@@QEAA@PEAG00HHH0HPEAHHH1EEEPEAMHPEAE02PEAV?$ScanLineBase@HHE@@11@Z 00000001800211e0 f i insertShapeUtilsCore.obj
 0001:00020370       ??0?$DrawFilledPolygon@GGHHMMEH@@QEAA@PEAG00HHH0HPEAHHH1EEEPEAMHPEAE02PEAV?$ScanLineBase@HHH@@11@Z 0000000180021370 f i insertShapeUtilsCore.obj
 0001:00020500       ??0?$DrawFilledPolygon@MMHHMMEE@@QEAA@PEAM00HHH0HPEAHHH1EEE0HPEAE00PEAV?$ScanLineBase@HHE@@11@Z 0000000180021500 f i insertShapeUtilsCore.obj
 0001:00020690       ??0?$DrawFilledPolygon@MMHHMMEH@@QEAA@PEAM00HHH0HPEAHHH1EEE0HPEAE00PEAV?$ScanLineBase@HHH@@11@Z 0000000180021690 f i insertShapeUtilsCore.obj
 0001:00020820       ??0?$DrawFilledPolygon@NNHHNNEE@@QEAA@PEAN00HHH0HPEAHHH1EEE0HPEAE00PEAV?$ScanLineBase@HHE@@11@Z 0000000180021820 f i insertShapeUtilsCore.obj
 0001:000209b0       ??0?$DrawFilledPolygon@NNHHNNEH@@QEAA@PEAN00HHH0HPEAHHH1EEE0HPEAE00PEAV?$ScanLineBase@HHH@@11@Z 00000001800219b0 f i insertShapeUtilsCore.obj
 0001:00020b40       ??0?$DrawFilledRectangle@EEHHMME@@QEAA@PEAE00HHH0HPEAHHH1EEEPEAMH002@Z 0000000180021b40 f i insertShapeUtilsCore.obj
 0001:00020c80       ??0?$DrawFilledRectangle@FFHHMME@@QEAA@PEAF00HHH0HPEAHHH1EEEPEAMHPEAE02@Z 0000000180021c80 f i insertShapeUtilsCore.obj
 0001:00020dc0       ??0?$DrawFilledRectangle@GGHHMME@@QEAA@PEAG00HHH0HPEAHHH1EEEPEAMHPEAE02@Z 0000000180021dc0 f i insertShapeUtilsCore.obj
 0001:00020f00       ??0?$DrawFilledRectangle@MMHHMME@@QEAA@PEAM00HHH0HPEAHHH1EEE0HPEAE00@Z 0000000180021f00 f i insertShapeUtilsCore.obj
 0001:00021040       ??0?$DrawFilledRectangle@NNHHNNE@@QEAA@PEAN00HHH0HPEAHHH1EEE0HPEAE00@Z 0000000180022040 f i insertShapeUtilsCore.obj
 0001:00021180       ??0?$DrawFilledRectangleAnySize@EEHHMME@@QEAA@PEAE00HHH0HPEAHHH1EEEPEAMH002PEBH@Z 0000000180022180 f i insertShapeUtilsCore.obj
 0001:000212e0       ??0?$DrawFilledRectangleAnySize@FFHHMME@@QEAA@PEAF00HHH0HPEAHHH1EEEPEAMHPEAE02PEBH@Z 00000001800222e0 f i insertShapeUtilsCore.obj
 0001:00021440       ??0?$DrawFilledRectangleAnySize@GGHHMME@@QEAA@PEAG00HHH0HPEAHHH1EEEPEAMHPEAE02PEBH@Z 0000000180022440 f i insertShapeUtilsCore.obj
 0001:000215a0       ??0?$DrawFilledRectangleAnySize@MMHHMME@@QEAA@PEAM00HHH0HPEAHHH1EEE0HPEAE00PEBH@Z 00000001800225a0 f i insertShapeUtilsCore.obj
 0001:00021700       ??0?$DrawFilledRectangleAnySize@NNHHNNE@@QEAA@PEAN00HHH0HPEAHHH1EEE0HPEAE00PEBH@Z 0000000180022700 f i insertShapeUtilsCore.obj
 0001:00021860       ??0?$DrawLine@EEHHMMEE@@QEAA@PEAE00HHH0HPEAHHH1EEEPEAMH002@Z 0000000180022860 f i insertShapeUtilsCore.obj
 0001:000219a0       ??0?$DrawLine@EEHHMMEH@@QEAA@PEAE00HHH0HPEAHHH1EEEPEAMH002@Z 00000001800229a0 f i insertShapeUtilsCore.obj
 0001:00021ae0       ??0?$DrawLine@FFHHMMEE@@QEAA@PEAF00HHH0HPEAHHH1EEEPEAMHPEAE02@Z 0000000180022ae0 f i insertShapeUtilsCore.obj
 0001:00021c20       ??0?$DrawLine@FFHHMMEH@@QEAA@PEAF00HHH0HPEAHHH1EEEPEAMHPEAE02@Z 0000000180022c20 f i insertShapeUtilsCore.obj
 0001:00021d60       ??0?$DrawLine@GGHHMMEE@@QEAA@PEAG00HHH0HPEAHHH1EEEPEAMHPEAE02@Z 0000000180022d60 f i insertShapeUtilsCore.obj
 0001:00021ea0       ??0?$DrawLine@GGHHMMEH@@QEAA@PEAG00HHH0HPEAHHH1EEEPEAMHPEAE02@Z 0000000180022ea0 f i insertShapeUtilsCore.obj
 0001:00021fe0       ??0?$DrawLine@MMHHMMEE@@QEAA@PEAM00HHH0HPEAHHH1EEE0HPEAE00@Z 0000000180022fe0 f i insertShapeUtilsCore.obj
 0001:00022120       ??0?$DrawLine@MMHHMMEH@@QEAA@PEAM00HHH0HPEAHHH1EEE0HPEAE00@Z 0000000180023120 f i insertShapeUtilsCore.obj
 0001:00022260       ??0?$DrawLine@NNHHNNEE@@QEAA@PEAN00HHH0HPEAHHH1EEE0HPEAE00@Z 0000000180023260 f i insertShapeUtilsCore.obj
 0001:000223a0       ??0?$DrawLine@NNHHNNEH@@QEAA@PEAN00HHH0HPEAHHH1EEE0HPEAE00@Z 00000001800233a0 f i insertShapeUtilsCore.obj
 0001:000224e0       ??0?$DrawMarkerLine@EEHHMMEE@@QEAA@PEAE00HHH0HPEAHHH1EEEPEAMH002@Z 00000001800234e0 f i insertShapeUtilsCore.obj
 0001:00022620       ??0?$DrawMarkerLine@FFHHMMEE@@QEAA@PEAF00HHH0HPEAHHH1EEEPEAMHPEAE02@Z 0000000180023620 f i insertShapeUtilsCore.obj
 0001:00022760       ??0?$DrawMarkerLine@GGHHMMEE@@QEAA@PEAG00HHH0HPEAHHH1EEEPEAMHPEAE02@Z 0000000180023760 f i insertShapeUtilsCore.obj
 0001:000228a0       ??0?$DrawMarkerLine@MMHHMMEE@@QEAA@PEAM00HHH0HPEAHHH1EEE0HPEAE00@Z 00000001800238a0 f i insertShapeUtilsCore.obj
 0001:000229e0       ??0?$DrawMarkerLine@NNHHNNEE@@QEAA@PEAN00HHH0HPEAHHH1EEE0HPEAE00@Z 00000001800239e0 f i insertShapeUtilsCore.obj
 0001:00022b20       ??0?$DrawPolygon@EEHHMMEE@@QEAA@PEAE00HHH0HPEAHHH1EEEPEAMH00211@Z 0000000180023b20 f i insertShapeUtilsCore.obj
 0001:00022c90       ??0?$DrawPolygon@EEHHMMEH@@QEAA@PEAE00HHH0HPEAHHH1EEEPEAMH00211@Z 0000000180023c90 f i insertShapeUtilsCore.obj
 0001:00022e00       ??0?$DrawPolygon@FFHHMMEE@@QEAA@PEAF00HHH0HPEAHHH1EEEPEAMHPEAE0211@Z 0000000180023e00 f i insertShapeUtilsCore.obj
 0001:00022f70       ??0?$DrawPolygon@FFHHMMEH@@QEAA@PEAF00HHH0HPEAHHH1EEEPEAMHPEAE0211@Z 0000000180023f70 f i insertShapeUtilsCore.obj
 0001:000230e0       ??0?$DrawPolygon@GGHHMMEE@@QEAA@PEAG00HHH0HPEAHHH1EEEPEAMHPEAE0211@Z 00000001800240e0 f i insertShapeUtilsCore.obj
 0001:00023250       ??0?$DrawPolygon@GGHHMMEH@@QEAA@PEAG00HHH0HPEAHHH1EEEPEAMHPEAE0211@Z 0000000180024250 f i insertShapeUtilsCore.obj
 0001:000233c0       ??0?$DrawPolygon@MMHHMMEE@@QEAA@PEAM00HHH0HPEAHHH1EEE0HPEAE0011@Z 00000001800243c0 f i insertShapeUtilsCore.obj
 0001:00023530       ??0?$DrawPolygon@MMHHMMEH@@QEAA@PEAM00HHH0HPEAHHH1EEE0HPEAE0011@Z 0000000180024530 f i insertShapeUtilsCore.obj
 0001:000236a0       ??0?$DrawPolygon@NNHHNNEE@@QEAA@PEAN00HHH0HPEAHHH1EEE0HPEAE0011@Z 00000001800246a0 f i insertShapeUtilsCore.obj
 0001:00023810       ??0?$DrawPolygon@NNHHNNEH@@QEAA@PEAN00HHH0HPEAHHH1EEE0HPEAE0011@Z 0000000180024810 f i insertShapeUtilsCore.obj
 0001:00023980       ??0?$DrawRectangleAnySize@EEHHMME@@QEAA@PEAE00HHH0HPEAHHH1EEEPEAMH0021@Z 0000000180024980 f i insertShapeUtilsCore.obj
 0001:00023ae0       ??0?$DrawRectangleAnySize@FFHHMME@@QEAA@PEAF00HHH0HPEAHHH1EEEPEAMHPEAE021@Z 0000000180024ae0 f i insertShapeUtilsCore.obj
 0001:00023c40       ??0?$DrawRectangleAnySize@GGHHMME@@QEAA@PEAG00HHH0HPEAHHH1EEEPEAMHPEAE021@Z 0000000180024c40 f i insertShapeUtilsCore.obj
 0001:00023da0       ??0?$DrawRectangleAnySize@MMHHMME@@QEAA@PEAM00HHH0HPEAHHH1EEE0HPEAE001@Z 0000000180024da0 f i insertShapeUtilsCore.obj
 0001:00023f00       ??0?$DrawRectangleAnySize@NNHHNNE@@QEAA@PEAN00HHH0HPEAHHH1EEE0HPEAE001@Z 0000000180024f00 f i insertShapeUtilsCore.obj
 0001:00024060       ??0?$MidPointFullCircle@H@@QEAA@XZ 0000000180025060 f i insertShapeUtilsCore.obj
 0001:00024070       ??0?$Polygon@HHE@@QEAA@PEBHPEAH11HHHEE@Z 0000000180025070 f i insertShapeUtilsCore.obj
 0001:00024120       ??0?$Polygon@HHH@@QEAA@PEBHPEAH11HHHEE@Z 0000000180025120 f i insertShapeUtilsCore.obj
 0001:000241d0       ??0?$ScanLine@HHE@@QEAA@PEAV?$Polygon@HHE@@HHHH@Z 00000001800251d0 f i insertShapeUtilsCore.obj
 0001:00024260       ??0?$ScanLine@HHH@@QEAA@PEAV?$Polygon@HHH@@HHHH@Z 0000000180025260 f i insertShapeUtilsCore.obj
 0001:000242f0       ??0?$ScanLineBase@HHE@@QEAA@PEAV?$Polygon@HHE@@HHHH@Z 00000001800252f0 f i insertShapeUtilsCore.obj
 0001:00024380       ??0?$ScanLineBase@HHH@@QEAA@PEAV?$Polygon@HHH@@HHHH@Z 0000000180025380 f i insertShapeUtilsCore.obj
 0001:00024410       ??0DrawBase@@QEAA@XZ       0000000180025410 f i insertShapeUtilsCore.obj
 0001:00024430       ??1?$DrawAnyLine@EEHHMMEE@@UEAA@XZ 0000000180025430 f i insertShapeUtilsCore.obj
 0001:00024460       ??1?$DrawAnyLine@EEHHMMEH@@UEAA@XZ 0000000180025460 f i insertShapeUtilsCore.obj
 0001:00024490       ??1?$DrawAnyLine@FFHHMMEE@@UEAA@XZ 0000000180025490 f i insertShapeUtilsCore.obj
 0001:000244c0       ??1?$DrawAnyLine@FFHHMMEH@@UEAA@XZ 00000001800254c0 f i insertShapeUtilsCore.obj
 0001:000244f0       ??1?$DrawAnyLine@GGHHMMEE@@UEAA@XZ 00000001800254f0 f i insertShapeUtilsCore.obj
 0001:00024520       ??1?$DrawAnyLine@GGHHMMEH@@UEAA@XZ 0000000180025520 f i insertShapeUtilsCore.obj
 0001:00024550       ??1?$DrawAnyLine@MMHHMMEE@@UEAA@XZ 0000000180025550 f i insertShapeUtilsCore.obj
 0001:00024580       ??1?$DrawAnyLine@MMHHMMEH@@UEAA@XZ 0000000180025580 f i insertShapeUtilsCore.obj
 0001:000245b0       ??1?$DrawAnyLine@NNHHNNEE@@UEAA@XZ 00000001800255b0 f i insertShapeUtilsCore.obj
 0001:000245e0       ??1?$DrawAnyLine@NNHHNNEH@@UEAA@XZ 00000001800255e0 f i insertShapeUtilsCore.obj
 0001:00024610       ??1?$DrawCircle@EEHHMMEEE@@UEAA@XZ 0000000180025610 f i insertShapeUtilsCore.obj
 0001:00024630       ??1?$DrawCircle@EEHHMMEEH@@UEAA@XZ 0000000180025630 f i insertShapeUtilsCore.obj
 0001:00024650       ??1?$DrawCircle@EEHHMMEHE@@UEAA@XZ 0000000180025650 f i insertShapeUtilsCore.obj
 0001:00024670       ??1?$DrawCircle@EEHHMMEHH@@UEAA@XZ 0000000180025670 f i insertShapeUtilsCore.obj
 0001:00024690       ??1?$DrawCircle@FFHHMMEEE@@UEAA@XZ 0000000180025690 f i insertShapeUtilsCore.obj
 0001:000246b0       ??1?$DrawCircle@FFHHMMEEH@@UEAA@XZ 00000001800256b0 f i insertShapeUtilsCore.obj
 0001:000246d0       ??1?$DrawCircle@FFHHMMEHE@@UEAA@XZ 00000001800256d0 f i insertShapeUtilsCore.obj
 0001:000246f0       ??1?$DrawCircle@FFHHMMEHH@@UEAA@XZ 00000001800256f0 f i insertShapeUtilsCore.obj
 0001:00024710       ??1?$DrawCircle@GGHHMMEEE@@UEAA@XZ 0000000180025710 f i insertShapeUtilsCore.obj
 0001:00024730       ??1?$DrawCircle@GGHHMMEEH@@UEAA@XZ 0000000180025730 f i insertShapeUtilsCore.obj
 0001:00024750       ??1?$DrawCircle@GGHHMMEHE@@UEAA@XZ 0000000180025750 f i insertShapeUtilsCore.obj
 0001:00024770       ??1?$DrawCircle@GGHHMMEHH@@UEAA@XZ 0000000180025770 f i insertShapeUtilsCore.obj
 0001:00024790       ??1?$DrawCircle@MMHHMMEEE@@UEAA@XZ 0000000180025790 f i insertShapeUtilsCore.obj
 0001:000247b0       ??1?$DrawCircle@MMHHMMEEH@@UEAA@XZ 00000001800257b0 f i insertShapeUtilsCore.obj
 0001:000247d0       ??1?$DrawCircle@MMHHMMEHE@@UEAA@XZ 00000001800257d0 f i insertShapeUtilsCore.obj
 0001:000247f0       ??1?$DrawCircle@MMHHMMEHH@@UEAA@XZ 00000001800257f0 f i insertShapeUtilsCore.obj
 0001:00024810       ??1?$DrawCircle@NNHHNNEEE@@UEAA@XZ 0000000180025810 f i insertShapeUtilsCore.obj
 0001:00024830       ??1?$DrawCircle@NNHHNNEEH@@UEAA@XZ 0000000180025830 f i insertShapeUtilsCore.obj
 0001:00024850       ??1?$DrawCircle@NNHHNNEHE@@UEAA@XZ 0000000180025850 f i insertShapeUtilsCore.obj
 0001:00024870       ??1?$DrawCircle@NNHHNNEHH@@UEAA@XZ 0000000180025870 f i insertShapeUtilsCore.obj
 0001:00024890       ??1?$DrawCircleAnySize@EEHHMMEEE@@UEAA@XZ 0000000180025890 f i insertShapeUtilsCore.obj
 0001:000248c0       ??1?$DrawCircleAnySize@EEHHMMEEH@@UEAA@XZ 00000001800258c0 f i insertShapeUtilsCore.obj
 0001:000248f0       ??1?$DrawCircleAnySize@EEHHMMEHE@@UEAA@XZ 00000001800258f0 f i insertShapeUtilsCore.obj
 0001:00024920       ??1?$DrawCircleAnySize@EEHHMMEHH@@UEAA@XZ 0000000180025920 f i insertShapeUtilsCore.obj
 0001:00024950       ??1?$DrawCircleAnySize@FFHHMMEEE@@UEAA@XZ 0000000180025950 f i insertShapeUtilsCore.obj
 0001:00024980       ??1?$DrawCircleAnySize@FFHHMMEEH@@UEAA@XZ 0000000180025980 f i insertShapeUtilsCore.obj
 0001:000249b0       ??1?$DrawCircleAnySize@FFHHMMEHE@@UEAA@XZ 00000001800259b0 f i insertShapeUtilsCore.obj
 0001:000249e0       ??1?$DrawCircleAnySize@FFHHMMEHH@@UEAA@XZ 00000001800259e0 f i insertShapeUtilsCore.obj
 0001:00024a10       ??1?$DrawCircleAnySize@GGHHMMEEE@@UEAA@XZ 0000000180025a10 f i insertShapeUtilsCore.obj
 0001:00024a40       ??1?$DrawCircleAnySize@GGHHMMEEH@@UEAA@XZ 0000000180025a40 f i insertShapeUtilsCore.obj
 0001:00024a70       ??1?$DrawCircleAnySize@GGHHMMEHE@@UEAA@XZ 0000000180025a70 f i insertShapeUtilsCore.obj
 0001:00024aa0       ??1?$DrawCircleAnySize@GGHHMMEHH@@UEAA@XZ 0000000180025aa0 f i insertShapeUtilsCore.obj
 0001:00024ad0       ??1?$DrawCircleAnySize@MMHHMMEEE@@UEAA@XZ 0000000180025ad0 f i insertShapeUtilsCore.obj
 0001:00024b00       ??1?$DrawCircleAnySize@MMHHMMEEH@@UEAA@XZ 0000000180025b00 f i insertShapeUtilsCore.obj
 0001:00024b30       ??1?$DrawCircleAnySize@MMHHMMEHE@@UEAA@XZ 0000000180025b30 f i insertShapeUtilsCore.obj
 0001:00024b60       ??1?$DrawCircleAnySize@MMHHMMEHH@@UEAA@XZ 0000000180025b60 f i insertShapeUtilsCore.obj
 0001:00024b90       ??1?$DrawCircleAnySize@NNHHNNEEE@@UEAA@XZ 0000000180025b90 f i insertShapeUtilsCore.obj
 0001:00024bc0       ??1?$DrawCircleAnySize@NNHHNNEEH@@UEAA@XZ 0000000180025bc0 f i insertShapeUtilsCore.obj
 0001:00024bf0       ??1?$DrawCircleAnySize@NNHHNNEHE@@UEAA@XZ 0000000180025bf0 f i insertShapeUtilsCore.obj
 0001:00024c20       ??1?$DrawCircleAnySize@NNHHNNEHH@@UEAA@XZ 0000000180025c20 f i insertShapeUtilsCore.obj
 0001:00024c50       ??1?$DrawCommon@EEHHMMEE@@UEAA@XZ 0000000180025c50 f i insertShapeUtilsCore.obj
 0001:00024c80       ??1?$DrawCommon@EEHHMMEH@@UEAA@XZ 0000000180025c80 f i insertShapeUtilsCore.obj
 0001:00024cb0       ??1?$DrawCommon@FFHHMMEE@@UEAA@XZ 0000000180025cb0 f i insertShapeUtilsCore.obj
 0001:00024ce0       ??1?$DrawCommon@FFHHMMEH@@UEAA@XZ 0000000180025ce0 f i insertShapeUtilsCore.obj
 0001:00024d10       ??1?$DrawCommon@GGHHMMEE@@UEAA@XZ 0000000180025d10 f i insertShapeUtilsCore.obj
 0001:00024d40       ??1?$DrawCommon@GGHHMMEH@@UEAA@XZ 0000000180025d40 f i insertShapeUtilsCore.obj
 0001:00024d70       ??1?$DrawCommon@MMHHMMEE@@UEAA@XZ 0000000180025d70 f i insertShapeUtilsCore.obj
 0001:00024da0       ??1?$DrawCommon@MMHHMMEH@@UEAA@XZ 0000000180025da0 f i insertShapeUtilsCore.obj
 0001:00024dd0       ??1?$DrawCommon@NNHHNNEE@@UEAA@XZ 0000000180025dd0 f i insertShapeUtilsCore.obj
 0001:00024e00       ??1?$DrawCommon@NNHHNNEH@@UEAA@XZ 0000000180025e00 f i insertShapeUtilsCore.obj
 0001:00024e30       ??1?$DrawFilledPolygon@EEHHMMEE@@UEAA@XZ 0000000180025e30 f i insertShapeUtilsCore.obj
 0001:00024eb0       ??1?$DrawFilledPolygon@EEHHMMEH@@UEAA@XZ 0000000180025eb0 f i insertShapeUtilsCore.obj
 0001:00024f30       ??1?$DrawFilledPolygon@FFHHMMEE@@UEAA@XZ 0000000180025f30 f i insertShapeUtilsCore.obj
 0001:00024fb0       ??1?$DrawFilledPolygon@FFHHMMEH@@UEAA@XZ 0000000180025fb0 f i insertShapeUtilsCore.obj
 0001:00025030       ??1?$DrawFilledPolygon@GGHHMMEE@@UEAA@XZ 0000000180026030 f i insertShapeUtilsCore.obj
 0001:000250b0       ??1?$DrawFilledPolygon@GGHHMMEH@@UEAA@XZ 00000001800260b0 f i insertShapeUtilsCore.obj
 0001:00025130       ??1?$DrawFilledPolygon@MMHHMMEE@@UEAA@XZ 0000000180026130 f i insertShapeUtilsCore.obj
 0001:000251b0       ??1?$DrawFilledPolygon@MMHHMMEH@@UEAA@XZ 00000001800261b0 f i insertShapeUtilsCore.obj
 0001:00025230       ??1?$DrawFilledPolygon@NNHHNNEE@@UEAA@XZ 0000000180026230 f i insertShapeUtilsCore.obj
 0001:000252b0       ??1?$DrawFilledPolygon@NNHHNNEH@@UEAA@XZ 00000001800262b0 f i insertShapeUtilsCore.obj
 0001:00025330       ??1?$DrawFilledRectangle@EEHHMME@@UEAA@XZ 0000000180026330 f i insertShapeUtilsCore.obj
 0001:00025350       ??1?$DrawFilledRectangle@FFHHMME@@UEAA@XZ 0000000180026350 f i insertShapeUtilsCore.obj
 0001:00025370       ??1?$DrawFilledRectangle@GGHHMME@@UEAA@XZ 0000000180026370 f i insertShapeUtilsCore.obj
 0001:00025390       ??1?$DrawFilledRectangle@MMHHMME@@UEAA@XZ 0000000180026390 f i insertShapeUtilsCore.obj
 0001:000253b0       ??1?$DrawFilledRectangle@NNHHNNE@@UEAA@XZ 00000001800263b0 f i insertShapeUtilsCore.obj
 0001:000253d0       ??1?$DrawFilledRectangleAnySize@EEHHMME@@UEAA@XZ 00000001800263d0 f i insertShapeUtilsCore.obj
 0001:00025400       ??1?$DrawFilledRectangleAnySize@FFHHMME@@UEAA@XZ 0000000180026400 f i insertShapeUtilsCore.obj
 0001:00025430       ??1?$DrawFilledRectangleAnySize@GGHHMME@@UEAA@XZ 0000000180026430 f i insertShapeUtilsCore.obj
 0001:00025460       ??1?$DrawFilledRectangleAnySize@MMHHMME@@UEAA@XZ 0000000180026460 f i insertShapeUtilsCore.obj
 0001:00025490       ??1?$DrawFilledRectangleAnySize@NNHHNNE@@UEAA@XZ 0000000180026490 f i insertShapeUtilsCore.obj
 0001:000254c0       ??1?$DrawLine@EEHHMMEE@@UEAA@XZ 00000001800264c0 f i insertShapeUtilsCore.obj
 0001:000254f0       ??1?$DrawLine@EEHHMMEH@@UEAA@XZ 00000001800264f0 f i insertShapeUtilsCore.obj
 0001:00025520       ??1?$DrawLine@FFHHMMEE@@UEAA@XZ 0000000180026520 f i insertShapeUtilsCore.obj
 0001:00025550       ??1?$DrawLine@FFHHMMEH@@UEAA@XZ 0000000180026550 f i insertShapeUtilsCore.obj
 0001:00025580       ??1?$DrawLine@GGHHMMEE@@UEAA@XZ 0000000180026580 f i insertShapeUtilsCore.obj
 0001:000255b0       ??1?$DrawLine@GGHHMMEH@@UEAA@XZ 00000001800265b0 f i insertShapeUtilsCore.obj
 0001:000255e0       ??1?$DrawLine@MMHHMMEE@@UEAA@XZ 00000001800265e0 f i insertShapeUtilsCore.obj
 0001:00025610       ??1?$DrawLine@MMHHMMEH@@UEAA@XZ 0000000180026610 f i insertShapeUtilsCore.obj
 0001:00025640       ??1?$DrawLine@NNHHNNEE@@UEAA@XZ 0000000180026640 f i insertShapeUtilsCore.obj
 0001:00025670       ??1?$DrawLine@NNHHNNEH@@UEAA@XZ 0000000180026670 f i insertShapeUtilsCore.obj
 0001:000256a0       ??1?$DrawMarkerLine@EEHHMMEE@@UEAA@XZ 00000001800266a0 f i insertShapeUtilsCore.obj
 0001:000256c0       ??1?$DrawMarkerLine@FFHHMMEE@@UEAA@XZ 00000001800266c0 f i insertShapeUtilsCore.obj
 0001:000256e0       ??1?$DrawMarkerLine@GGHHMMEE@@UEAA@XZ 00000001800266e0 f i insertShapeUtilsCore.obj
 0001:00025700       ??1?$DrawMarkerLine@MMHHMMEE@@UEAA@XZ 0000000180026700 f i insertShapeUtilsCore.obj
 0001:00025720       ??1?$DrawMarkerLine@NNHHNNEE@@UEAA@XZ 0000000180026720 f i insertShapeUtilsCore.obj
 0001:00025740       ??1?$DrawPolygon@EEHHMMEE@@UEAA@XZ 0000000180026740 f i insertShapeUtilsCore.obj
 0001:00025770       ??1?$DrawPolygon@EEHHMMEH@@UEAA@XZ 0000000180026770 f i insertShapeUtilsCore.obj
 0001:000257a0       ??1?$DrawPolygon@FFHHMMEE@@UEAA@XZ 00000001800267a0 f i insertShapeUtilsCore.obj
 0001:000257d0       ??1?$DrawPolygon@FFHHMMEH@@UEAA@XZ 00000001800267d0 f i insertShapeUtilsCore.obj
 0001:00025800       ??1?$DrawPolygon@GGHHMMEE@@UEAA@XZ 0000000180026800 f i insertShapeUtilsCore.obj
 0001:00025830       ??1?$DrawPolygon@GGHHMMEH@@UEAA@XZ 0000000180026830 f i insertShapeUtilsCore.obj
 0001:00025860       ??1?$DrawPolygon@MMHHMMEE@@UEAA@XZ 0000000180026860 f i insertShapeUtilsCore.obj
 0001:00025890       ??1?$DrawPolygon@MMHHMMEH@@UEAA@XZ 0000000180026890 f i insertShapeUtilsCore.obj
 0001:000258c0       ??1?$DrawPolygon@NNHHNNEE@@UEAA@XZ 00000001800268c0 f i insertShapeUtilsCore.obj
 0001:000258f0       ??1?$DrawPolygon@NNHHNNEH@@UEAA@XZ 00000001800268f0 f i insertShapeUtilsCore.obj
 0001:00025920       ??1?$DrawRectangleAnySize@EEHHMME@@UEAA@XZ 0000000180026920 f i insertShapeUtilsCore.obj
 0001:00025950       ??1?$DrawRectangleAnySize@FFHHMME@@UEAA@XZ 0000000180026950 f i insertShapeUtilsCore.obj
 0001:00025980       ??1?$DrawRectangleAnySize@GGHHMME@@UEAA@XZ 0000000180026980 f i insertShapeUtilsCore.obj
 0001:000259b0       ??1?$DrawRectangleAnySize@MMHHMME@@UEAA@XZ 00000001800269b0 f i insertShapeUtilsCore.obj
 0001:000259e0       ??1?$DrawRectangleAnySize@NNHHNNE@@UEAA@XZ 00000001800269e0 f i insertShapeUtilsCore.obj
 0001:00025a10       ??1?$ScanLine@HHE@@UEAA@XZ 0000000180026a10 f i insertShapeUtilsCore.obj
 0001:00025a30       ??1?$ScanLine@HHH@@UEAA@XZ 0000000180026a30 f i insertShapeUtilsCore.obj
 0001:00025a50       ??1?$ScanLineBase@HHE@@UEAA@XZ 0000000180026a50 f i insertShapeUtilsCore.obj
 0001:00025aa0       ??1?$ScanLineBase@HHH@@UEAA@XZ 0000000180026aa0 f i insertShapeUtilsCore.obj
 0001:00025af0       ??1DrawBase@@UEAA@XZ       0000000180026af0 f i insertShapeUtilsCore.obj
 0001:00025b10       ??_E?$DrawAnyLine@EEHHMMEE@@UEAAPEAXI@Z 0000000180026b10 f i insertShapeUtilsCore.obj
 0001:00025b10       ??_G?$DrawAnyLine@EEHHMMEE@@UEAAPEAXI@Z 0000000180026b10 f i insertShapeUtilsCore.obj
 0001:00025b50       ??_E?$DrawAnyLine@EEHHMMEH@@UEAAPEAXI@Z 0000000180026b50 f i insertShapeUtilsCore.obj
 0001:00025b50       ??_G?$DrawAnyLine@EEHHMMEH@@UEAAPEAXI@Z 0000000180026b50 f i insertShapeUtilsCore.obj
 0001:00025b90       ??_E?$DrawAnyLine@FFHHMMEE@@UEAAPEAXI@Z 0000000180026b90 f i insertShapeUtilsCore.obj
 0001:00025b90       ??_G?$DrawAnyLine@FFHHMMEE@@UEAAPEAXI@Z 0000000180026b90 f i insertShapeUtilsCore.obj
 0001:00025bd0       ??_G?$DrawAnyLine@FFHHMMEH@@UEAAPEAXI@Z 0000000180026bd0 f i insertShapeUtilsCore.obj
 0001:00025bd0       ??_E?$DrawAnyLine@FFHHMMEH@@UEAAPEAXI@Z 0000000180026bd0 f i insertShapeUtilsCore.obj
 0001:00025c10       ??_E?$DrawAnyLine@GGHHMMEE@@UEAAPEAXI@Z 0000000180026c10 f i insertShapeUtilsCore.obj
 0001:00025c10       ??_G?$DrawAnyLine@GGHHMMEE@@UEAAPEAXI@Z 0000000180026c10 f i insertShapeUtilsCore.obj
 0001:00025c50       ??_G?$DrawAnyLine@GGHHMMEH@@UEAAPEAXI@Z 0000000180026c50 f i insertShapeUtilsCore.obj
 0001:00025c50       ??_E?$DrawAnyLine@GGHHMMEH@@UEAAPEAXI@Z 0000000180026c50 f i insertShapeUtilsCore.obj
 0001:00025c90       ??_G?$DrawAnyLine@MMHHMMEE@@UEAAPEAXI@Z 0000000180026c90 f i insertShapeUtilsCore.obj
 0001:00025c90       ??_E?$DrawAnyLine@MMHHMMEE@@UEAAPEAXI@Z 0000000180026c90 f i insertShapeUtilsCore.obj
 0001:00025cd0       ??_E?$DrawAnyLine@MMHHMMEH@@UEAAPEAXI@Z 0000000180026cd0 f i insertShapeUtilsCore.obj
 0001:00025cd0       ??_G?$DrawAnyLine@MMHHMMEH@@UEAAPEAXI@Z 0000000180026cd0 f i insertShapeUtilsCore.obj
 0001:00025d10       ??_G?$DrawAnyLine@NNHHNNEE@@UEAAPEAXI@Z 0000000180026d10 f i insertShapeUtilsCore.obj
 0001:00025d10       ??_E?$DrawAnyLine@NNHHNNEE@@UEAAPEAXI@Z 0000000180026d10 f i insertShapeUtilsCore.obj
 0001:00025d50       ??_E?$DrawAnyLine@NNHHNNEH@@UEAAPEAXI@Z 0000000180026d50 f i insertShapeUtilsCore.obj
 0001:00025d50       ??_G?$DrawAnyLine@NNHHNNEH@@UEAAPEAXI@Z 0000000180026d50 f i insertShapeUtilsCore.obj
 0001:00025d90       ??_G?$DrawCircle@EEHHMMEEE@@UEAAPEAXI@Z 0000000180026d90 f i insertShapeUtilsCore.obj
 0001:00025d90       ??_E?$DrawCircle@EEHHMMEEE@@UEAAPEAXI@Z 0000000180026d90 f i insertShapeUtilsCore.obj
 0001:00025dd0       ??_E?$DrawCircle@EEHHMMEEH@@UEAAPEAXI@Z 0000000180026dd0 f i insertShapeUtilsCore.obj
 0001:00025dd0       ??_G?$DrawCircle@EEHHMMEEH@@UEAAPEAXI@Z 0000000180026dd0 f i insertShapeUtilsCore.obj
 0001:00025e10       ??_G?$DrawCircle@EEHHMMEHE@@UEAAPEAXI@Z 0000000180026e10 f i insertShapeUtilsCore.obj
 0001:00025e10       ??_E?$DrawCircle@EEHHMMEHE@@UEAAPEAXI@Z 0000000180026e10 f i insertShapeUtilsCore.obj
 0001:00025e50       ??_G?$DrawCircle@EEHHMMEHH@@UEAAPEAXI@Z 0000000180026e50 f i insertShapeUtilsCore.obj
 0001:00025e50       ??_E?$DrawCircle@EEHHMMEHH@@UEAAPEAXI@Z 0000000180026e50 f i insertShapeUtilsCore.obj
 0001:00025e90       ??_E?$DrawCircle@FFHHMMEEE@@UEAAPEAXI@Z 0000000180026e90 f i insertShapeUtilsCore.obj
 0001:00025e90       ??_G?$DrawCircle@FFHHMMEEE@@UEAAPEAXI@Z 0000000180026e90 f i insertShapeUtilsCore.obj
 0001:00025ed0       ??_E?$DrawCircle@FFHHMMEEH@@UEAAPEAXI@Z 0000000180026ed0 f i insertShapeUtilsCore.obj
 0001:00025ed0       ??_G?$DrawCircle@FFHHMMEEH@@UEAAPEAXI@Z 0000000180026ed0 f i insertShapeUtilsCore.obj
 0001:00025f10       ??_G?$DrawCircle@FFHHMMEHE@@UEAAPEAXI@Z 0000000180026f10 f i insertShapeUtilsCore.obj
 0001:00025f10       ??_E?$DrawCircle@FFHHMMEHE@@UEAAPEAXI@Z 0000000180026f10 f i insertShapeUtilsCore.obj
 0001:00025f50       ??_E?$DrawCircle@FFHHMMEHH@@UEAAPEAXI@Z 0000000180026f50 f i insertShapeUtilsCore.obj
 0001:00025f50       ??_G?$DrawCircle@FFHHMMEHH@@UEAAPEAXI@Z 0000000180026f50 f i insertShapeUtilsCore.obj
 0001:00025f90       ??_G?$DrawCircle@GGHHMMEEE@@UEAAPEAXI@Z 0000000180026f90 f i insertShapeUtilsCore.obj
 0001:00025f90       ??_E?$DrawCircle@GGHHMMEEE@@UEAAPEAXI@Z 0000000180026f90 f i insertShapeUtilsCore.obj
 0001:00025fd0       ??_G?$DrawCircle@GGHHMMEEH@@UEAAPEAXI@Z 0000000180026fd0 f i insertShapeUtilsCore.obj
 0001:00025fd0       ??_E?$DrawCircle@GGHHMMEEH@@UEAAPEAXI@Z 0000000180026fd0 f i insertShapeUtilsCore.obj
 0001:00026010       ??_G?$DrawCircle@GGHHMMEHE@@UEAAPEAXI@Z 0000000180027010 f i insertShapeUtilsCore.obj
 0001:00026010       ??_E?$DrawCircle@GGHHMMEHE@@UEAAPEAXI@Z 0000000180027010 f i insertShapeUtilsCore.obj
 0001:00026050       ??_E?$DrawCircle@GGHHMMEHH@@UEAAPEAXI@Z 0000000180027050 f i insertShapeUtilsCore.obj
 0001:00026050       ??_G?$DrawCircle@GGHHMMEHH@@UEAAPEAXI@Z 0000000180027050 f i insertShapeUtilsCore.obj
 0001:00026090       ??_G?$DrawCircle@MMHHMMEEE@@UEAAPEAXI@Z 0000000180027090 f i insertShapeUtilsCore.obj
 0001:00026090       ??_E?$DrawCircle@MMHHMMEEE@@UEAAPEAXI@Z 0000000180027090 f i insertShapeUtilsCore.obj
 0001:000260d0       ??_G?$DrawCircle@MMHHMMEEH@@UEAAPEAXI@Z 00000001800270d0 f i insertShapeUtilsCore.obj
 0001:000260d0       ??_E?$DrawCircle@MMHHMMEEH@@UEAAPEAXI@Z 00000001800270d0 f i insertShapeUtilsCore.obj
 0001:00026110       ??_E?$DrawCircle@MMHHMMEHE@@UEAAPEAXI@Z 0000000180027110 f i insertShapeUtilsCore.obj
 0001:00026110       ??_G?$DrawCircle@MMHHMMEHE@@UEAAPEAXI@Z 0000000180027110 f i insertShapeUtilsCore.obj
 0001:00026150       ??_G?$DrawCircle@MMHHMMEHH@@UEAAPEAXI@Z 0000000180027150 f i insertShapeUtilsCore.obj
 0001:00026150       ??_E?$DrawCircle@MMHHMMEHH@@UEAAPEAXI@Z 0000000180027150 f i insertShapeUtilsCore.obj
 0001:00026190       ??_E?$DrawCircle@NNHHNNEEE@@UEAAPEAXI@Z 0000000180027190 f i insertShapeUtilsCore.obj
 0001:00026190       ??_G?$DrawCircle@NNHHNNEEE@@UEAAPEAXI@Z 0000000180027190 f i insertShapeUtilsCore.obj
 0001:000261d0       ??_G?$DrawCircle@NNHHNNEEH@@UEAAPEAXI@Z 00000001800271d0 f i insertShapeUtilsCore.obj
 0001:000261d0       ??_E?$DrawCircle@NNHHNNEEH@@UEAAPEAXI@Z 00000001800271d0 f i insertShapeUtilsCore.obj
 0001:00026210       ??_E?$DrawCircle@NNHHNNEHE@@UEAAPEAXI@Z 0000000180027210 f i insertShapeUtilsCore.obj
 0001:00026210       ??_G?$DrawCircle@NNHHNNEHE@@UEAAPEAXI@Z 0000000180027210 f i insertShapeUtilsCore.obj
 0001:00026250       ??_G?$DrawCircle@NNHHNNEHH@@UEAAPEAXI@Z 0000000180027250 f i insertShapeUtilsCore.obj
 0001:00026250       ??_E?$DrawCircle@NNHHNNEHH@@UEAAPEAXI@Z 0000000180027250 f i insertShapeUtilsCore.obj
 0001:00026290       ??_E?$DrawCircleAnySize@EEHHMMEEE@@UEAAPEAXI@Z 0000000180027290 f i insertShapeUtilsCore.obj
 0001:00026290       ??_G?$DrawCircleAnySize@EEHHMMEEE@@UEAAPEAXI@Z 0000000180027290 f i insertShapeUtilsCore.obj
 0001:000262d0       ??_E?$DrawCircleAnySize@EEHHMMEEH@@UEAAPEAXI@Z 00000001800272d0 f i insertShapeUtilsCore.obj
 0001:000262d0       ??_G?$DrawCircleAnySize@EEHHMMEEH@@UEAAPEAXI@Z 00000001800272d0 f i insertShapeUtilsCore.obj
 0001:00026310       ??_E?$DrawCircleAnySize@EEHHMMEHE@@UEAAPEAXI@Z 0000000180027310 f i insertShapeUtilsCore.obj
 0001:00026310       ??_G?$DrawCircleAnySize@EEHHMMEHE@@UEAAPEAXI@Z 0000000180027310 f i insertShapeUtilsCore.obj
 0001:00026350       ??_E?$DrawCircleAnySize@EEHHMMEHH@@UEAAPEAXI@Z 0000000180027350 f i insertShapeUtilsCore.obj
 0001:00026350       ??_G?$DrawCircleAnySize@EEHHMMEHH@@UEAAPEAXI@Z 0000000180027350 f i insertShapeUtilsCore.obj
 0001:00026390       ??_E?$DrawCircleAnySize@FFHHMMEEE@@UEAAPEAXI@Z 0000000180027390 f i insertShapeUtilsCore.obj
 0001:00026390       ??_G?$DrawCircleAnySize@FFHHMMEEE@@UEAAPEAXI@Z 0000000180027390 f i insertShapeUtilsCore.obj
 0001:000263d0       ??_E?$DrawCircleAnySize@FFHHMMEEH@@UEAAPEAXI@Z 00000001800273d0 f i insertShapeUtilsCore.obj
 0001:000263d0       ??_G?$DrawCircleAnySize@FFHHMMEEH@@UEAAPEAXI@Z 00000001800273d0 f i insertShapeUtilsCore.obj
 0001:00026410       ??_G?$DrawCircleAnySize@FFHHMMEHE@@UEAAPEAXI@Z 0000000180027410 f i insertShapeUtilsCore.obj
 0001:00026410       ??_E?$DrawCircleAnySize@FFHHMMEHE@@UEAAPEAXI@Z 0000000180027410 f i insertShapeUtilsCore.obj
 0001:00026450       ??_E?$DrawCircleAnySize@FFHHMMEHH@@UEAAPEAXI@Z 0000000180027450 f i insertShapeUtilsCore.obj
 0001:00026450       ??_G?$DrawCircleAnySize@FFHHMMEHH@@UEAAPEAXI@Z 0000000180027450 f i insertShapeUtilsCore.obj
 0001:00026490       ??_E?$DrawCircleAnySize@GGHHMMEEE@@UEAAPEAXI@Z 0000000180027490 f i insertShapeUtilsCore.obj
 0001:00026490       ??_G?$DrawCircleAnySize@GGHHMMEEE@@UEAAPEAXI@Z 0000000180027490 f i insertShapeUtilsCore.obj
 0001:000264d0       ??_G?$DrawCircleAnySize@GGHHMMEEH@@UEAAPEAXI@Z 00000001800274d0 f i insertShapeUtilsCore.obj
 0001:000264d0       ??_E?$DrawCircleAnySize@GGHHMMEEH@@UEAAPEAXI@Z 00000001800274d0 f i insertShapeUtilsCore.obj
 0001:00026510       ??_E?$DrawCircleAnySize@GGHHMMEHE@@UEAAPEAXI@Z 0000000180027510 f i insertShapeUtilsCore.obj
 0001:00026510       ??_G?$DrawCircleAnySize@GGHHMMEHE@@UEAAPEAXI@Z 0000000180027510 f i insertShapeUtilsCore.obj
 0001:00026550       ??_G?$DrawCircleAnySize@GGHHMMEHH@@UEAAPEAXI@Z 0000000180027550 f i insertShapeUtilsCore.obj
 0001:00026550       ??_E?$DrawCircleAnySize@GGHHMMEHH@@UEAAPEAXI@Z 0000000180027550 f i insertShapeUtilsCore.obj
 0001:00026590       ??_G?$DrawCircleAnySize@MMHHMMEEE@@UEAAPEAXI@Z 0000000180027590 f i insertShapeUtilsCore.obj
 0001:00026590       ??_E?$DrawCircleAnySize@MMHHMMEEE@@UEAAPEAXI@Z 0000000180027590 f i insertShapeUtilsCore.obj
 0001:000265d0       ??_G?$DrawCircleAnySize@MMHHMMEEH@@UEAAPEAXI@Z 00000001800275d0 f i insertShapeUtilsCore.obj
 0001:000265d0       ??_E?$DrawCircleAnySize@MMHHMMEEH@@UEAAPEAXI@Z 00000001800275d0 f i insertShapeUtilsCore.obj
 0001:00026610       ??_G?$DrawCircleAnySize@MMHHMMEHE@@UEAAPEAXI@Z 0000000180027610 f i insertShapeUtilsCore.obj
 0001:00026610       ??_E?$DrawCircleAnySize@MMHHMMEHE@@UEAAPEAXI@Z 0000000180027610 f i insertShapeUtilsCore.obj
 0001:00026650       ??_E?$DrawCircleAnySize@MMHHMMEHH@@UEAAPEAXI@Z 0000000180027650 f i insertShapeUtilsCore.obj
 0001:00026650       ??_G?$DrawCircleAnySize@MMHHMMEHH@@UEAAPEAXI@Z 0000000180027650 f i insertShapeUtilsCore.obj
 0001:00026690       ??_E?$DrawCircleAnySize@NNHHNNEEE@@UEAAPEAXI@Z 0000000180027690 f i insertShapeUtilsCore.obj
 0001:00026690       ??_G?$DrawCircleAnySize@NNHHNNEEE@@UEAAPEAXI@Z 0000000180027690 f i insertShapeUtilsCore.obj
 0001:000266d0       ??_E?$DrawCircleAnySize@NNHHNNEEH@@UEAAPEAXI@Z 00000001800276d0 f i insertShapeUtilsCore.obj
 0001:000266d0       ??_G?$DrawCircleAnySize@NNHHNNEEH@@UEAAPEAXI@Z 00000001800276d0 f i insertShapeUtilsCore.obj
 0001:00026710       ??_G?$DrawCircleAnySize@NNHHNNEHE@@UEAAPEAXI@Z 0000000180027710 f i insertShapeUtilsCore.obj
 0001:00026710       ??_E?$DrawCircleAnySize@NNHHNNEHE@@UEAAPEAXI@Z 0000000180027710 f i insertShapeUtilsCore.obj
 0001:00026750       ??_G?$DrawCircleAnySize@NNHHNNEHH@@UEAAPEAXI@Z 0000000180027750 f i insertShapeUtilsCore.obj
 0001:00026750       ??_E?$DrawCircleAnySize@NNHHNNEHH@@UEAAPEAXI@Z 0000000180027750 f i insertShapeUtilsCore.obj
 0001:00026790       ??_G?$DrawCommon@EEHHMMEE@@UEAAPEAXI@Z 0000000180027790 f i insertShapeUtilsCore.obj
 0001:00026790       ??_E?$DrawCommon@EEHHMMEE@@UEAAPEAXI@Z 0000000180027790 f i insertShapeUtilsCore.obj
 0001:000267d0       ??_G?$DrawCommon@EEHHMMEH@@UEAAPEAXI@Z 00000001800277d0 f i insertShapeUtilsCore.obj
 0001:000267d0       ??_E?$DrawCommon@EEHHMMEH@@UEAAPEAXI@Z 00000001800277d0 f i insertShapeUtilsCore.obj
 0001:00026810       ??_E?$DrawCommon@FFHHMMEE@@UEAAPEAXI@Z 0000000180027810 f i insertShapeUtilsCore.obj
 0001:00026810       ??_G?$DrawCommon@FFHHMMEE@@UEAAPEAXI@Z 0000000180027810 f i insertShapeUtilsCore.obj
 0001:00026850       ??_E?$DrawCommon@FFHHMMEH@@UEAAPEAXI@Z 0000000180027850 f i insertShapeUtilsCore.obj
 0001:00026850       ??_G?$DrawCommon@FFHHMMEH@@UEAAPEAXI@Z 0000000180027850 f i insertShapeUtilsCore.obj
 0001:00026890       ??_E?$DrawCommon@GGHHMMEE@@UEAAPEAXI@Z 0000000180027890 f i insertShapeUtilsCore.obj
 0001:00026890       ??_G?$DrawCommon@GGHHMMEE@@UEAAPEAXI@Z 0000000180027890 f i insertShapeUtilsCore.obj
 0001:000268d0       ??_E?$DrawCommon@GGHHMMEH@@UEAAPEAXI@Z 00000001800278d0 f i insertShapeUtilsCore.obj
 0001:000268d0       ??_G?$DrawCommon@GGHHMMEH@@UEAAPEAXI@Z 00000001800278d0 f i insertShapeUtilsCore.obj
 0001:00026910       ??_G?$DrawCommon@MMHHMMEE@@UEAAPEAXI@Z 0000000180027910 f i insertShapeUtilsCore.obj
 0001:00026910       ??_E?$DrawCommon@MMHHMMEE@@UEAAPEAXI@Z 0000000180027910 f i insertShapeUtilsCore.obj
 0001:00026950       ??_E?$DrawCommon@MMHHMMEH@@UEAAPEAXI@Z 0000000180027950 f i insertShapeUtilsCore.obj
 0001:00026950       ??_G?$DrawCommon@MMHHMMEH@@UEAAPEAXI@Z 0000000180027950 f i insertShapeUtilsCore.obj
 0001:00026990       ??_E?$DrawCommon@NNHHNNEE@@UEAAPEAXI@Z 0000000180027990 f i insertShapeUtilsCore.obj
 0001:00026990       ??_G?$DrawCommon@NNHHNNEE@@UEAAPEAXI@Z 0000000180027990 f i insertShapeUtilsCore.obj
 0001:000269d0       ??_G?$DrawCommon@NNHHNNEH@@UEAAPEAXI@Z 00000001800279d0 f i insertShapeUtilsCore.obj
 0001:000269d0       ??_E?$DrawCommon@NNHHNNEH@@UEAAPEAXI@Z 00000001800279d0 f i insertShapeUtilsCore.obj
 0001:00026a10       ??_G?$DrawFilledPolygon@EEHHMMEE@@UEAAPEAXI@Z 0000000180027a10 f i insertShapeUtilsCore.obj
 0001:00026a10       ??_E?$DrawFilledPolygon@EEHHMMEE@@UEAAPEAXI@Z 0000000180027a10 f i insertShapeUtilsCore.obj
 0001:00026a50       ??_E?$DrawFilledPolygon@EEHHMMEH@@UEAAPEAXI@Z 0000000180027a50 f i insertShapeUtilsCore.obj
 0001:00026a50       ??_G?$DrawFilledPolygon@EEHHMMEH@@UEAAPEAXI@Z 0000000180027a50 f i insertShapeUtilsCore.obj
 0001:00026a90       ??_E?$DrawFilledPolygon@FFHHMMEE@@UEAAPEAXI@Z 0000000180027a90 f i insertShapeUtilsCore.obj
 0001:00026a90       ??_G?$DrawFilledPolygon@FFHHMMEE@@UEAAPEAXI@Z 0000000180027a90 f i insertShapeUtilsCore.obj
 0001:00026ad0       ??_E?$DrawFilledPolygon@FFHHMMEH@@UEAAPEAXI@Z 0000000180027ad0 f i insertShapeUtilsCore.obj
 0001:00026ad0       ??_G?$DrawFilledPolygon@FFHHMMEH@@UEAAPEAXI@Z 0000000180027ad0 f i insertShapeUtilsCore.obj
 0001:00026b10       ??_E?$DrawFilledPolygon@GGHHMMEE@@UEAAPEAXI@Z 0000000180027b10 f i insertShapeUtilsCore.obj
 0001:00026b10       ??_G?$DrawFilledPolygon@GGHHMMEE@@UEAAPEAXI@Z 0000000180027b10 f i insertShapeUtilsCore.obj
 0001:00026b50       ??_G?$DrawFilledPolygon@GGHHMMEH@@UEAAPEAXI@Z 0000000180027b50 f i insertShapeUtilsCore.obj
 0001:00026b50       ??_E?$DrawFilledPolygon@GGHHMMEH@@UEAAPEAXI@Z 0000000180027b50 f i insertShapeUtilsCore.obj
 0001:00026b90       ??_G?$DrawFilledPolygon@MMHHMMEE@@UEAAPEAXI@Z 0000000180027b90 f i insertShapeUtilsCore.obj
 0001:00026b90       ??_E?$DrawFilledPolygon@MMHHMMEE@@UEAAPEAXI@Z 0000000180027b90 f i insertShapeUtilsCore.obj
 0001:00026bd0       ??_E?$DrawFilledPolygon@MMHHMMEH@@UEAAPEAXI@Z 0000000180027bd0 f i insertShapeUtilsCore.obj
 0001:00026bd0       ??_G?$DrawFilledPolygon@MMHHMMEH@@UEAAPEAXI@Z 0000000180027bd0 f i insertShapeUtilsCore.obj
 0001:00026c10       ??_E?$DrawFilledPolygon@NNHHNNEE@@UEAAPEAXI@Z 0000000180027c10 f i insertShapeUtilsCore.obj
 0001:00026c10       ??_G?$DrawFilledPolygon@NNHHNNEE@@UEAAPEAXI@Z 0000000180027c10 f i insertShapeUtilsCore.obj
 0001:00026c50       ??_G?$DrawFilledPolygon@NNHHNNEH@@UEAAPEAXI@Z 0000000180027c50 f i insertShapeUtilsCore.obj
 0001:00026c50       ??_E?$DrawFilledPolygon@NNHHNNEH@@UEAAPEAXI@Z 0000000180027c50 f i insertShapeUtilsCore.obj
 0001:00026c90       ??_E?$DrawFilledRectangle@EEHHMME@@UEAAPEAXI@Z 0000000180027c90 f i insertShapeUtilsCore.obj
 0001:00026c90       ??_G?$DrawFilledRectangle@EEHHMME@@UEAAPEAXI@Z 0000000180027c90 f i insertShapeUtilsCore.obj
 0001:00026cd0       ??_G?$DrawFilledRectangle@FFHHMME@@UEAAPEAXI@Z 0000000180027cd0 f i insertShapeUtilsCore.obj
 0001:00026cd0       ??_E?$DrawFilledRectangle@FFHHMME@@UEAAPEAXI@Z 0000000180027cd0 f i insertShapeUtilsCore.obj
 0001:00026d10       ??_E?$DrawFilledRectangle@GGHHMME@@UEAAPEAXI@Z 0000000180027d10 f i insertShapeUtilsCore.obj
 0001:00026d10       ??_G?$DrawFilledRectangle@GGHHMME@@UEAAPEAXI@Z 0000000180027d10 f i insertShapeUtilsCore.obj
 0001:00026d50       ??_G?$DrawFilledRectangle@MMHHMME@@UEAAPEAXI@Z 0000000180027d50 f i insertShapeUtilsCore.obj
 0001:00026d50       ??_E?$DrawFilledRectangle@MMHHMME@@UEAAPEAXI@Z 0000000180027d50 f i insertShapeUtilsCore.obj
 0001:00026d90       ??_E?$DrawFilledRectangle@NNHHNNE@@UEAAPEAXI@Z 0000000180027d90 f i insertShapeUtilsCore.obj
 0001:00026d90       ??_G?$DrawFilledRectangle@NNHHNNE@@UEAAPEAXI@Z 0000000180027d90 f i insertShapeUtilsCore.obj
 0001:00026dd0       ??_G?$DrawFilledRectangleAnySize@EEHHMME@@UEAAPEAXI@Z 0000000180027dd0 f i insertShapeUtilsCore.obj
 0001:00026dd0       ??_E?$DrawFilledRectangleAnySize@EEHHMME@@UEAAPEAXI@Z 0000000180027dd0 f i insertShapeUtilsCore.obj
 0001:00026e10       ??_G?$DrawFilledRectangleAnySize@FFHHMME@@UEAAPEAXI@Z 0000000180027e10 f i insertShapeUtilsCore.obj
 0001:00026e10       ??_E?$DrawFilledRectangleAnySize@FFHHMME@@UEAAPEAXI@Z 0000000180027e10 f i insertShapeUtilsCore.obj
 0001:00026e50       ??_G?$DrawFilledRectangleAnySize@GGHHMME@@UEAAPEAXI@Z 0000000180027e50 f i insertShapeUtilsCore.obj
 0001:00026e50       ??_E?$DrawFilledRectangleAnySize@GGHHMME@@UEAAPEAXI@Z 0000000180027e50 f i insertShapeUtilsCore.obj
 0001:00026e90       ??_G?$DrawFilledRectangleAnySize@MMHHMME@@UEAAPEAXI@Z 0000000180027e90 f i insertShapeUtilsCore.obj
 0001:00026e90       ??_E?$DrawFilledRectangleAnySize@MMHHMME@@UEAAPEAXI@Z 0000000180027e90 f i insertShapeUtilsCore.obj
 0001:00026ed0       ??_G?$DrawFilledRectangleAnySize@NNHHNNE@@UEAAPEAXI@Z 0000000180027ed0 f i insertShapeUtilsCore.obj
 0001:00026ed0       ??_E?$DrawFilledRectangleAnySize@NNHHNNE@@UEAAPEAXI@Z 0000000180027ed0 f i insertShapeUtilsCore.obj
 0001:00026f10       ??_G?$DrawLine@EEHHMMEE@@UEAAPEAXI@Z 0000000180027f10 f i insertShapeUtilsCore.obj
 0001:00026f10       ??_E?$DrawLine@EEHHMMEE@@UEAAPEAXI@Z 0000000180027f10 f i insertShapeUtilsCore.obj
 0001:00026f50       ??_G?$DrawLine@EEHHMMEH@@UEAAPEAXI@Z 0000000180027f50 f i insertShapeUtilsCore.obj
 0001:00026f50       ??_E?$DrawLine@EEHHMMEH@@UEAAPEAXI@Z 0000000180027f50 f i insertShapeUtilsCore.obj
 0001:00026f90       ??_E?$DrawLine@FFHHMMEE@@UEAAPEAXI@Z 0000000180027f90 f i insertShapeUtilsCore.obj
 0001:00026f90       ??_G?$DrawLine@FFHHMMEE@@UEAAPEAXI@Z 0000000180027f90 f i insertShapeUtilsCore.obj
 0001:00026fd0       ??_G?$DrawLine@FFHHMMEH@@UEAAPEAXI@Z 0000000180027fd0 f i insertShapeUtilsCore.obj
 0001:00026fd0       ??_E?$DrawLine@FFHHMMEH@@UEAAPEAXI@Z 0000000180027fd0 f i insertShapeUtilsCore.obj
 0001:00027010       ??_E?$DrawLine@GGHHMMEE@@UEAAPEAXI@Z 0000000180028010 f i insertShapeUtilsCore.obj
 0001:00027010       ??_G?$DrawLine@GGHHMMEE@@UEAAPEAXI@Z 0000000180028010 f i insertShapeUtilsCore.obj
 0001:00027050       ??_G?$DrawLine@GGHHMMEH@@UEAAPEAXI@Z 0000000180028050 f i insertShapeUtilsCore.obj
 0001:00027050       ??_E?$DrawLine@GGHHMMEH@@UEAAPEAXI@Z 0000000180028050 f i insertShapeUtilsCore.obj
 0001:00027090       ??_E?$DrawLine@MMHHMMEE@@UEAAPEAXI@Z 0000000180028090 f i insertShapeUtilsCore.obj
 0001:00027090       ??_G?$DrawLine@MMHHMMEE@@UEAAPEAXI@Z 0000000180028090 f i insertShapeUtilsCore.obj
 0001:000270d0       ??_E?$DrawLine@MMHHMMEH@@UEAAPEAXI@Z 00000001800280d0 f i insertShapeUtilsCore.obj
 0001:000270d0       ??_G?$DrawLine@MMHHMMEH@@UEAAPEAXI@Z 00000001800280d0 f i insertShapeUtilsCore.obj
 0001:00027110       ??_G?$DrawLine@NNHHNNEE@@UEAAPEAXI@Z 0000000180028110 f i insertShapeUtilsCore.obj
 0001:00027110       ??_E?$DrawLine@NNHHNNEE@@UEAAPEAXI@Z 0000000180028110 f i insertShapeUtilsCore.obj
 0001:00027150       ??_E?$DrawLine@NNHHNNEH@@UEAAPEAXI@Z 0000000180028150 f i insertShapeUtilsCore.obj
 0001:00027150       ??_G?$DrawLine@NNHHNNEH@@UEAAPEAXI@Z 0000000180028150 f i insertShapeUtilsCore.obj
 0001:00027190       ??_E?$DrawMarkerLine@EEHHMMEE@@UEAAPEAXI@Z 0000000180028190 f i insertShapeUtilsCore.obj
 0001:00027190       ??_G?$DrawMarkerLine@EEHHMMEE@@UEAAPEAXI@Z 0000000180028190 f i insertShapeUtilsCore.obj
 0001:000271d0       ??_E?$DrawMarkerLine@FFHHMMEE@@UEAAPEAXI@Z 00000001800281d0 f i insertShapeUtilsCore.obj
 0001:000271d0       ??_G?$DrawMarkerLine@FFHHMMEE@@UEAAPEAXI@Z 00000001800281d0 f i insertShapeUtilsCore.obj
 0001:00027210       ??_G?$DrawMarkerLine@GGHHMMEE@@UEAAPEAXI@Z 0000000180028210 f i insertShapeUtilsCore.obj
 0001:00027210       ??_E?$DrawMarkerLine@GGHHMMEE@@UEAAPEAXI@Z 0000000180028210 f i insertShapeUtilsCore.obj
 0001:00027250       ??_E?$DrawMarkerLine@MMHHMMEE@@UEAAPEAXI@Z 0000000180028250 f i insertShapeUtilsCore.obj
 0001:00027250       ??_G?$DrawMarkerLine@MMHHMMEE@@UEAAPEAXI@Z 0000000180028250 f i insertShapeUtilsCore.obj
 0001:00027290       ??_G?$DrawMarkerLine@NNHHNNEE@@UEAAPEAXI@Z 0000000180028290 f i insertShapeUtilsCore.obj
 0001:00027290       ??_E?$DrawMarkerLine@NNHHNNEE@@UEAAPEAXI@Z 0000000180028290 f i insertShapeUtilsCore.obj
 0001:000272d0       ??_G?$DrawPolygon@EEHHMMEE@@UEAAPEAXI@Z 00000001800282d0 f i insertShapeUtilsCore.obj
 0001:000272d0       ??_E?$DrawPolygon@EEHHMMEE@@UEAAPEAXI@Z 00000001800282d0 f i insertShapeUtilsCore.obj
 0001:00027310       ??_E?$DrawPolygon@EEHHMMEH@@UEAAPEAXI@Z 0000000180028310 f i insertShapeUtilsCore.obj
 0001:00027310       ??_G?$DrawPolygon@EEHHMMEH@@UEAAPEAXI@Z 0000000180028310 f i insertShapeUtilsCore.obj
 0001:00027350       ??_E?$DrawPolygon@FFHHMMEE@@UEAAPEAXI@Z 0000000180028350 f i insertShapeUtilsCore.obj
 0001:00027350       ??_G?$DrawPolygon@FFHHMMEE@@UEAAPEAXI@Z 0000000180028350 f i insertShapeUtilsCore.obj
 0001:00027390       ??_E?$DrawPolygon@FFHHMMEH@@UEAAPEAXI@Z 0000000180028390 f i insertShapeUtilsCore.obj
 0001:00027390       ??_G?$DrawPolygon@FFHHMMEH@@UEAAPEAXI@Z 0000000180028390 f i insertShapeUtilsCore.obj
 0001:000273d0       ??_E?$DrawPolygon@GGHHMMEE@@UEAAPEAXI@Z 00000001800283d0 f i insertShapeUtilsCore.obj
 0001:000273d0       ??_G?$DrawPolygon@GGHHMMEE@@UEAAPEAXI@Z 00000001800283d0 f i insertShapeUtilsCore.obj
 0001:00027410       ??_E?$DrawPolygon@GGHHMMEH@@UEAAPEAXI@Z 0000000180028410 f i insertShapeUtilsCore.obj
 0001:00027410       ??_G?$DrawPolygon@GGHHMMEH@@UEAAPEAXI@Z 0000000180028410 f i insertShapeUtilsCore.obj
 0001:00027450       ??_G?$DrawPolygon@MMHHMMEE@@UEAAPEAXI@Z 0000000180028450 f i insertShapeUtilsCore.obj
 0001:00027450       ??_E?$DrawPolygon@MMHHMMEE@@UEAAPEAXI@Z 0000000180028450 f i insertShapeUtilsCore.obj
 0001:00027490       ??_E?$DrawPolygon@MMHHMMEH@@UEAAPEAXI@Z 0000000180028490 f i insertShapeUtilsCore.obj
 0001:00027490       ??_G?$DrawPolygon@MMHHMMEH@@UEAAPEAXI@Z 0000000180028490 f i insertShapeUtilsCore.obj
 0001:000274d0       ??_E?$DrawPolygon@NNHHNNEE@@UEAAPEAXI@Z 00000001800284d0 f i insertShapeUtilsCore.obj
 0001:000274d0       ??_G?$DrawPolygon@NNHHNNEE@@UEAAPEAXI@Z 00000001800284d0 f i insertShapeUtilsCore.obj
 0001:00027510       ??_G?$DrawPolygon@NNHHNNEH@@UEAAPEAXI@Z 0000000180028510 f i insertShapeUtilsCore.obj
 0001:00027510       ??_E?$DrawPolygon@NNHHNNEH@@UEAAPEAXI@Z 0000000180028510 f i insertShapeUtilsCore.obj
 0001:00027550       ??_E?$DrawRectangleAnySize@EEHHMME@@UEAAPEAXI@Z 0000000180028550 f i insertShapeUtilsCore.obj
 0001:00027550       ??_G?$DrawRectangleAnySize@EEHHMME@@UEAAPEAXI@Z 0000000180028550 f i insertShapeUtilsCore.obj
 0001:00027590       ??_G?$DrawRectangleAnySize@FFHHMME@@UEAAPEAXI@Z 0000000180028590 f i insertShapeUtilsCore.obj
 0001:00027590       ??_E?$DrawRectangleAnySize@FFHHMME@@UEAAPEAXI@Z 0000000180028590 f i insertShapeUtilsCore.obj
 0001:000275d0       ??_E?$DrawRectangleAnySize@GGHHMME@@UEAAPEAXI@Z 00000001800285d0 f i insertShapeUtilsCore.obj
 0001:000275d0       ??_G?$DrawRectangleAnySize@GGHHMME@@UEAAPEAXI@Z 00000001800285d0 f i insertShapeUtilsCore.obj
 0001:00027610       ??_G?$DrawRectangleAnySize@MMHHMME@@UEAAPEAXI@Z 0000000180028610 f i insertShapeUtilsCore.obj
 0001:00027610       ??_E?$DrawRectangleAnySize@MMHHMME@@UEAAPEAXI@Z 0000000180028610 f i insertShapeUtilsCore.obj
 0001:00027650       ??_G?$DrawRectangleAnySize@NNHHNNE@@UEAAPEAXI@Z 0000000180028650 f i insertShapeUtilsCore.obj
 0001:00027650       ??_E?$DrawRectangleAnySize@NNHHNNE@@UEAAPEAXI@Z 0000000180028650 f i insertShapeUtilsCore.obj
 0001:00027690       ??_G?$ScanLine@HHE@@UEAAPEAXI@Z 0000000180028690 f i insertShapeUtilsCore.obj
 0001:00027690       ??_E?$ScanLine@HHE@@UEAAPEAXI@Z 0000000180028690 f i insertShapeUtilsCore.obj
 0001:000276d0       ??_E?$ScanLine@HHH@@UEAAPEAXI@Z 00000001800286d0 f i insertShapeUtilsCore.obj
 0001:000276d0       ??_G?$ScanLine@HHH@@UEAAPEAXI@Z 00000001800286d0 f i insertShapeUtilsCore.obj
 0001:00027710       ??_E?$ScanLineBase@HHE@@UEAAPEAXI@Z 0000000180028710 f i insertShapeUtilsCore.obj
 0001:00027710       ??_G?$ScanLineBase@HHE@@UEAAPEAXI@Z 0000000180028710 f i insertShapeUtilsCore.obj
 0001:00027750       ??_E?$ScanLineBase@HHH@@UEAAPEAXI@Z 0000000180028750 f i insertShapeUtilsCore.obj
 0001:00027750       ??_G?$ScanLineBase@HHH@@UEAAPEAXI@Z 0000000180028750 f i insertShapeUtilsCore.obj
 0001:00027790       ??_GDrawBase@@UEAAPEAXI@Z  0000000180028790 f i insertShapeUtilsCore.obj
 0001:00027790       ??_EDrawBase@@UEAAPEAXI@Z  0000000180028790 f i insertShapeUtilsCore.obj
 0001:000277d0       ?AbsoluteValue@?$BresenhamLine@HE@@AEAAHH@Z 00000001800287d0 f i insertShapeUtilsCore.obj
 0001:00027800       ?AbsoluteValue@?$BresenhamLine@HH@@AEAAHH@Z 0000000180028800 f i insertShapeUtilsCore.obj
 0001:00027830       ?ApplyOpacity@?$DrawCommon@EEHHMMEE@@AEAAXPEAMHHE@Z 0000000180028830 f i insertShapeUtilsCore.obj
 0001:00027850       ?ApplyOpacity@?$DrawCommon@EEHHMMEH@@AEAAXPEAMHHH@Z 0000000180028850 f i insertShapeUtilsCore.obj
 0001:000278a0       ?ApplyOpacity@?$DrawCommon@FFHHMMEE@@AEAAXPEAMHHE@Z 00000001800288a0 f i insertShapeUtilsCore.obj
 0001:000278c0       ?ApplyOpacity@?$DrawCommon@FFHHMMEH@@AEAAXPEAMHHH@Z 00000001800288c0 f i insertShapeUtilsCore.obj
 0001:00027910       ?ApplyOpacity@?$DrawCommon@GGHHMMEE@@AEAAXPEAMHHE@Z 0000000180028910 f i insertShapeUtilsCore.obj
 0001:00027930       ?ApplyOpacity@?$DrawCommon@GGHHMMEH@@AEAAXPEAMHHH@Z 0000000180028930 f i insertShapeUtilsCore.obj
 0001:00027980       ?ApplyOpacity@?$DrawCommon@MMHHMMEE@@AEAAXPEAMHHE@Z 0000000180028980 f i insertShapeUtilsCore.obj
 0001:000279a0       ?ApplyOpacity@?$DrawCommon@MMHHMMEH@@AEAAXPEAMHHH@Z 00000001800289a0 f i insertShapeUtilsCore.obj
 0001:000279f0       ?ApplyOpacity@?$DrawCommon@NNHHNNEE@@AEAAXPEANHHE@Z 00000001800289f0 f i insertShapeUtilsCore.obj
 0001:00027a10       ?ApplyOpacity@?$DrawCommon@NNHHNNEH@@AEAAXPEANHHH@Z 0000000180028a10 f i insertShapeUtilsCore.obj
 0001:00027a60       ?BresenhamLineIni@?$Polygon@HHE@@AEAAXHHHHH@Z 0000000180028a60 f i insertShapeUtilsCore.obj
 0001:00027cf0       ?BresenhamLineIni@?$Polygon@HHH@@AEAAXHHHHH@Z 0000000180028cf0 f i insertShapeUtilsCore.obj
 0001:00027f80       ?BresenhamLineMerge@?$Polygon@HHE@@AEAAEHH@Z 0000000180028f80 f i insertShapeUtilsCore.obj
 0001:00028170       ?BresenhamLineMerge@?$Polygon@HHH@@AEAAEHH@Z 0000000180029170 f i insertShapeUtilsCore.obj
 0001:00028360       ?BresenhamLineNextColumn@?$Polygon@HHE@@AEAAXH@Z 0000000180029360 f i insertShapeUtilsCore.obj
 0001:000284c0       ?BresenhamLineNextColumn@?$Polygon@HHH@@AEAAXH@Z 00000001800294c0 f i insertShapeUtilsCore.obj
 0001:00028620       ?BresenhamLineStepBack@?$Polygon@HHE@@AEAAXH@Z 0000000180029620 f i insertShapeUtilsCore.obj
 0001:00028660       ?BresenhamLineStepBack@?$Polygon@HHH@@AEAAXH@Z 0000000180029660 f i insertShapeUtilsCore.obj
 0001:000286a0       ?CalculateIndex@?$BresenhamLine@HH@@QEAAHHH@Z 00000001800296a0 f i insertShapeUtilsCore.obj
 0001:000286d0       ?CleanUp@?$DrawCommon@EEHHMMEE@@UEAAXXZ 00000001800296d0 f i insertShapeUtilsCore.obj
 0001:00028770       ?CleanUp@?$DrawCommon@EEHHMMEH@@UEAAXXZ 0000000180029770 f i insertShapeUtilsCore.obj
 0001:00028810       ?CleanUp@?$DrawCommon@FFHHMMEE@@UEAAXXZ 0000000180029810 f i insertShapeUtilsCore.obj
 0001:000288b0       ?CleanUp@?$DrawCommon@FFHHMMEH@@UEAAXXZ 00000001800298b0 f i insertShapeUtilsCore.obj
 0001:00028950       ?CleanUp@?$DrawCommon@GGHHMMEE@@UEAAXXZ 0000000180029950 f i insertShapeUtilsCore.obj
 0001:000289f0       ?CleanUp@?$DrawCommon@GGHHMMEH@@UEAAXXZ 00000001800299f0 f i insertShapeUtilsCore.obj
 0001:00028a90       ?CleanUp@?$DrawCommon@MMHHMMEE@@UEAAXXZ 0000000180029a90 f i insertShapeUtilsCore.obj
 0001:00028b30       ?CleanUp@?$DrawCommon@MMHHMMEH@@UEAAXXZ 0000000180029b30 f i insertShapeUtilsCore.obj
 0001:00028bd0       ?CleanUp@?$DrawCommon@NNHHNNEE@@UEAAXXZ 0000000180029bd0 f i insertShapeUtilsCore.obj
 0001:00028c70       ?CleanUp@?$DrawCommon@NNHHNNEH@@UEAAXXZ 0000000180029c70 f i insertShapeUtilsCore.obj
 0001:00028d10       ?ConvertVerticesToEdges@?$Polygon@HHE@@AEAAEXZ 0000000180029d10 f i insertShapeUtilsCore.obj
 0001:00029350       ?ConvertVerticesToEdges@?$Polygon@HHH@@AEAAEXZ 000000018002a350 f i insertShapeUtilsCore.obj
 0001:00029990       ?CopyEdge@?$Polygon@HHE@@AEAAXPEAH0HH@Z 000000018002a990 f i insertShapeUtilsCore.obj
 0001:000299f0       ?CopyEdge@?$Polygon@HHH@@AEAAXPEAH0HH@Z 000000018002a9f0 f i insertShapeUtilsCore.obj
 0001:00029a50       ?CountSubPixel@?$DrawCommon@EEHHMMEE@@IEAAXHHHHAEAH0HH@Z 000000018002aa50 f i insertShapeUtilsCore.obj
 0001:00029c30       ?CountSubPixel@?$DrawCommon@EEHHMMEH@@IEAAXHHHHAEAH0HH@Z 000000018002ac30 f i insertShapeUtilsCore.obj
 0001:00029e10       ?CountSubPixel@?$DrawCommon@FFHHMMEE@@IEAAXHHHHAEAH0HH@Z 000000018002ae10 f i insertShapeUtilsCore.obj
 0001:00029ff0       ?CountSubPixel@?$DrawCommon@FFHHMMEH@@IEAAXHHHHAEAH0HH@Z 000000018002aff0 f i insertShapeUtilsCore.obj
 0001:0002a1d0       ?CountSubPixel@?$DrawCommon@GGHHMMEE@@IEAAXHHHHAEAH0HH@Z 000000018002b1d0 f i insertShapeUtilsCore.obj
 0001:0002a3b0       ?CountSubPixel@?$DrawCommon@GGHHMMEH@@IEAAXHHHHAEAH0HH@Z 000000018002b3b0 f i insertShapeUtilsCore.obj
 0001:0002a590       ?CountSubPixel@?$DrawCommon@MMHHMMEE@@IEAAXHHHHAEAH0HH@Z 000000018002b590 f i insertShapeUtilsCore.obj
 0001:0002a770       ?CountSubPixel@?$DrawCommon@MMHHMMEH@@IEAAXHHHHAEAH0HH@Z 000000018002b770 f i insertShapeUtilsCore.obj
 0001:0002a950       ?CountSubPixel@?$DrawCommon@NNHHNNEE@@IEAAXHHHHAEAH0HH@Z 000000018002b950 f i insertShapeUtilsCore.obj
 0001:0002ab30       ?CountSubPixel@?$DrawCommon@NNHHNNEH@@IEAAXHHHHAEAH0HH@Z 000000018002bb30 f i insertShapeUtilsCore.obj
 0001:0002ad10       ?DownScale@?$DrawCommon@EEHHMMEE@@AEAAXAEAM@Z 000000018002bd10 f i insertShapeUtilsCore.obj
 0001:0002ad40       ?DownScale@?$DrawCommon@EEHHMMEH@@AEAAXAEAM@Z 000000018002bd40 f i insertShapeUtilsCore.obj
 0001:0002ad70       ?DownScale@?$DrawCommon@FFHHMMEE@@AEAAXAEAM@Z 000000018002bd70 f i insertShapeUtilsCore.obj
 0001:0002ada0       ?DownScale@?$DrawCommon@FFHHMMEH@@AEAAXAEAM@Z 000000018002bda0 f i insertShapeUtilsCore.obj
 0001:0002add0       ?DownScale@?$DrawCommon@GGHHMMEE@@AEAAXAEAM@Z 000000018002bdd0 f i insertShapeUtilsCore.obj
 0001:0002ae00       ?DownScale@?$DrawCommon@GGHHMMEH@@AEAAXAEAM@Z 000000018002be00 f i insertShapeUtilsCore.obj
 0001:0002ae30       ?DownScale@?$DrawCommon@MMHHMMEE@@AEAAXAEAM@Z 000000018002be30 f i insertShapeUtilsCore.obj
 0001:0002ae60       ?DownScale@?$DrawCommon@MMHHMMEH@@AEAAXAEAM@Z 000000018002be60 f i insertShapeUtilsCore.obj
 0001:0002ae90       ?DownScale@?$DrawCommon@NNHHNNEE@@AEAAXAEAN@Z 000000018002be90 f i insertShapeUtilsCore.obj
 0001:0002aec0       ?DownScale@?$DrawCommon@NNHHNNEH@@AEAAXAEAN@Z 000000018002bec0 f i insertShapeUtilsCore.obj
 0001:0002aef0       ?DrawLineAndResetStates@?$DrawCircle@EEHHMMEEE@@AEAAXHHAEAH0H@Z 000000018002bef0 f i insertShapeUtilsCore.obj
 0001:0002b0d0       ?DrawLineAndResetStates@?$DrawCircle@EEHHMMEEH@@AEAAXHHAEAH0H@Z 000000018002c0d0 f i insertShapeUtilsCore.obj
 0001:0002b2b0       ?DrawLineAndResetStates@?$DrawCircle@EEHHMMEHH@@AEAAXHHAEAH0H@Z 000000018002c2b0 f i insertShapeUtilsCore.obj
 0001:0002b490       ?DrawLineAndResetStates@?$DrawCircle@FFHHMMEEE@@AEAAXHHAEAH0H@Z 000000018002c490 f i insertShapeUtilsCore.obj
 0001:0002b670       ?DrawLineAndResetStates@?$DrawCircle@FFHHMMEEH@@AEAAXHHAEAH0H@Z 000000018002c670 f i insertShapeUtilsCore.obj
 0001:0002b850       ?DrawLineAndResetStates@?$DrawCircle@FFHHMMEHH@@AEAAXHHAEAH0H@Z 000000018002c850 f i insertShapeUtilsCore.obj
 0001:0002ba30       ?DrawLineAndResetStates@?$DrawCircle@GGHHMMEEE@@AEAAXHHAEAH0H@Z 000000018002ca30 f i insertShapeUtilsCore.obj
 0001:0002bc10       ?DrawLineAndResetStates@?$DrawCircle@GGHHMMEEH@@AEAAXHHAEAH0H@Z 000000018002cc10 f i insertShapeUtilsCore.obj
 0001:0002bdf0       ?DrawLineAndResetStates@?$DrawCircle@GGHHMMEHH@@AEAAXHHAEAH0H@Z 000000018002cdf0 f i insertShapeUtilsCore.obj
 0001:0002bfd0       ?DrawLineAndResetStates@?$DrawCircle@MMHHMMEEE@@AEAAXHHAEAH0H@Z 000000018002cfd0 f i insertShapeUtilsCore.obj
 0001:0002c1b0       ?DrawLineAndResetStates@?$DrawCircle@MMHHMMEEH@@AEAAXHHAEAH0H@Z 000000018002d1b0 f i insertShapeUtilsCore.obj
 0001:0002c390       ?DrawLineAndResetStates@?$DrawCircle@MMHHMMEHH@@AEAAXHHAEAH0H@Z 000000018002d390 f i insertShapeUtilsCore.obj
 0001:0002c570       ?DrawLineAndResetStates@?$DrawCircle@NNHHNNEEE@@AEAAXHHAEAH0H@Z 000000018002d570 f i insertShapeUtilsCore.obj
 0001:0002c750       ?DrawLineAndResetStates@?$DrawCircle@NNHHNNEEH@@AEAAXHHAEAH0H@Z 000000018002d750 f i insertShapeUtilsCore.obj
 0001:0002c930       ?DrawLineAndResetStates@?$DrawCircle@NNHHNNEHH@@AEAAXHHAEAH0H@Z 000000018002d930 f i insertShapeUtilsCore.obj
 0001:0002cb10       ?GetAndAdvanceSeparator@?$Polygon@HHE@@QEAAHXZ 000000018002db10 f i insertShapeUtilsCore.obj
 0001:0002cb50       ?GetAndAdvanceSeparator@?$Polygon@HHH@@QEAAHXZ 000000018002db50 f i insertShapeUtilsCore.obj
 0001:0002cb90       ?GetClrIdx@?$DrawCommon@EEHHMMEE@@AEAAHH@Z 000000018002db90 f i insertShapeUtilsCore.obj
 0001:0002cba0       ?GetClrIdx@?$DrawCommon@EEHHMMEH@@AEAAHH@Z 000000018002dba0 f i insertShapeUtilsCore.obj
 0001:0002cbb0       ?GetClrIdx@?$DrawCommon@FFHHMMEE@@AEAAHH@Z 000000018002dbb0 f i insertShapeUtilsCore.obj
 0001:0002cbc0       ?GetClrIdx@?$DrawCommon@FFHHMMEH@@AEAAHH@Z 000000018002dbc0 f i insertShapeUtilsCore.obj
 0001:0002cbd0       ?GetClrIdx@?$DrawCommon@GGHHMMEE@@AEAAHH@Z 000000018002dbd0 f i insertShapeUtilsCore.obj
 0001:0002cbe0       ?GetClrIdx@?$DrawCommon@GGHHMMEH@@AEAAHH@Z 000000018002dbe0 f i insertShapeUtilsCore.obj
 0001:0002cbf0       ?GetClrIdx@?$DrawCommon@MMHHMMEE@@AEAAHH@Z 000000018002dbf0 f i insertShapeUtilsCore.obj
 0001:0002cc00       ?GetClrIdx@?$DrawCommon@MMHHMMEH@@AEAAHH@Z 000000018002dc00 f i insertShapeUtilsCore.obj
 0001:0002cc10       ?GetClrIdx@?$DrawCommon@NNHHNNEE@@AEAAHH@Z 000000018002dc10 f i insertShapeUtilsCore.obj
 0001:0002cc20       ?GetClrIdx@?$DrawCommon@NNHHNNEH@@AEAAHH@Z 000000018002dc20 f i insertShapeUtilsCore.obj
 0001:0002cc30       ?GetFirstCol@?$Polygon@HHE@@QEAAHXZ 000000018002dc30 f i insertShapeUtilsCore.obj
 0001:0002ccc0       ?GetFirstCol@?$Polygon@HHH@@QEAAHXZ 000000018002dcc0 f i insertShapeUtilsCore.obj
 0001:0002cd50       ?GetIdxPix@?$BresenhamLine@HE@@QEAAHXZ 000000018002dd50 f i insertShapeUtilsCore.obj
 0001:0002cd60       ?GetLastCol@?$Polygon@HHE@@QEAAHXZ 000000018002dd60 f i insertShapeUtilsCore.obj
 0001:0002cdf0       ?GetLastCol@?$Polygon@HHH@@QEAAHXZ 000000018002ddf0 f i insertShapeUtilsCore.obj
 0001:0002ce80       ?GetNextClrIdx@?$DrawCommon@EEHHMMEE@@AEAAHH@Z 000000018002de80 f i insertShapeUtilsCore.obj
 0001:0002ce90       ?GetNextClrIdx@?$DrawCommon@EEHHMMEH@@AEAAHH@Z 000000018002de90 f i insertShapeUtilsCore.obj
 0001:0002cea0       ?GetNextClrIdx@?$DrawCommon@FFHHMMEE@@AEAAHH@Z 000000018002dea0 f i insertShapeUtilsCore.obj
 0001:0002ceb0       ?GetNextClrIdx@?$DrawCommon@FFHHMMEH@@AEAAHH@Z 000000018002deb0 f i insertShapeUtilsCore.obj
 0001:0002cec0       ?GetNextClrIdx@?$DrawCommon@GGHHMMEE@@AEAAHH@Z 000000018002dec0 f i insertShapeUtilsCore.obj
 0001:0002ced0       ?GetNextClrIdx@?$DrawCommon@GGHHMMEH@@AEAAHH@Z 000000018002ded0 f i insertShapeUtilsCore.obj
 0001:0002cee0       ?GetNextClrIdx@?$DrawCommon@MMHHMMEE@@AEAAHH@Z 000000018002dee0 f i insertShapeUtilsCore.obj
 0001:0002cef0       ?GetNextClrIdx@?$DrawCommon@MMHHMMEH@@AEAAHH@Z 000000018002def0 f i insertShapeUtilsCore.obj
 0001:0002cf00       ?GetNextClrIdx@?$DrawCommon@NNHHNNEE@@AEAAHH@Z 000000018002df00 f i insertShapeUtilsCore.obj
 0001:0002cf10       ?GetNextClrIdx@?$DrawCommon@NNHHNNEH@@AEAAHH@Z 000000018002df10 f i insertShapeUtilsCore.obj
 0001:0002cf20       ?GetNextSubClrIdx@?$DrawCommon@EEHHMMEE@@AEAAHH@Z 000000018002df20 f i insertShapeUtilsCore.obj
 0001:0002cf40       ?GetNextSubClrIdx@?$DrawCommon@EEHHMMEH@@AEAAHH@Z 000000018002df40 f i insertShapeUtilsCore.obj
 0001:0002cf60       ?GetNextSubClrIdx@?$DrawCommon@FFHHMMEE@@AEAAHH@Z 000000018002df60 f i insertShapeUtilsCore.obj
 0001:0002cf80       ?GetNextSubClrIdx@?$DrawCommon@FFHHMMEH@@AEAAHH@Z 000000018002df80 f i insertShapeUtilsCore.obj
 0001:0002cfa0       ?GetNextSubClrIdx@?$DrawCommon@GGHHMMEE@@AEAAHH@Z 000000018002dfa0 f i insertShapeUtilsCore.obj
 0001:0002cfc0       ?GetNextSubClrIdx@?$DrawCommon@GGHHMMEH@@AEAAHH@Z 000000018002dfc0 f i insertShapeUtilsCore.obj
 0001:0002cfe0       ?GetNextSubClrIdx@?$DrawCommon@MMHHMMEE@@AEAAHH@Z 000000018002dfe0 f i insertShapeUtilsCore.obj
 0001:0002d000       ?GetNextSubClrIdx@?$DrawCommon@MMHHMMEH@@AEAAHH@Z 000000018002e000 f i insertShapeUtilsCore.obj
 0001:0002d020       ?GetNextSubClrIdx@?$DrawCommon@NNHHNNEE@@AEAAHH@Z 000000018002e020 f i insertShapeUtilsCore.obj
 0001:0002d040       ?GetNextSubClrIdx@?$DrawCommon@NNHHNNEH@@AEAAHH@Z 000000018002e040 f i insertShapeUtilsCore.obj
 0001:0002d060       ?GetPolygonBdy@?$ScanLine@HHE@@UEAAPEAV?$Polygon@HHE@@XZ 000000018002e060 f i insertShapeUtilsCore.obj
 0001:0002d070       ?GetPolygonBdy@?$ScanLine@HHH@@UEAAPEAV?$Polygon@HHH@@XZ 000000018002e070 f i insertShapeUtilsCore.obj
 0001:0002d080       ?GetPosition@?$BresenhamLine@HH@@QEAAHXZ 000000018002e080 f i insertShapeUtilsCore.obj
 0001:0002d090       ?GetRow@?$MidPointFullCircle@H@@QEAAHXZ 000000018002e090 f i insertShapeUtilsCore.obj
 0001:0002d0d0       ?GetScanLine@?$ScanLineBase@HHE@@QEAAXAEAEAEAH11@Z 000000018002e0d0 f i insertShapeUtilsCore.obj
 0001:0002d450       ?GetScanLine@?$ScanLineBase@HHH@@QEAAXAEAEAEAH11@Z 000000018002e450 f i insertShapeUtilsCore.obj
 0001:0002d7d0       ?GetSeparator@?$Polygon@HHE@@QEAAHXZ 000000018002e7d0 f i insertShapeUtilsCore.obj
 0001:0002d800       ?GetSeparator@?$Polygon@HHH@@QEAAHXZ 000000018002e800 f i insertShapeUtilsCore.obj
 0001:0002d830       ?IniLayer@?$ScanLine@HHE@@UEAAXXZ 000000018002e830 f i insertShapeUtilsCore.obj
 0001:0002d910       ?IniLayer@?$ScanLine@HHH@@UEAAXXZ 000000018002e910 f i insertShapeUtilsCore.obj
 0001:0002d9f0       ?IniPolygon@?$Polygon@HHE@@QEAAXE@Z 000000018002e9f0 f i insertShapeUtilsCore.obj
 0001:0002db30       ?IniPolygon@?$Polygon@HHH@@QEAAXE@Z 000000018002eb30 f i insertShapeUtilsCore.obj
 0001:0002dc70       ?IniStates@?$ScanLine@HHE@@EEAAXXZ 000000018002ec70 f i insertShapeUtilsCore.obj
 0001:0002dc90       ?IniStates@?$ScanLine@HHH@@EEAAXXZ 000000018002ec90 f i insertShapeUtilsCore.obj
 0001:0002dcb0       ?Initialize@?$BresenhamLine@HE@@QEAAXPEAHH@Z 000000018002ecb0 f i insertShapeUtilsCore.obj
 0001:0002dff0       ?Initialize@?$BresenhamLine@HH@@QEAAXPEAHH@Z 000000018002eff0 f i insertShapeUtilsCore.obj
 0001:0002e330       ?Initialize@?$MidPointFullCircle@H@@QEAAXH@Z 000000018002f330 f i insertShapeUtilsCore.obj
 0001:0002e390       ?InitializeViewPort@?$DrawCommon@EEHHMMEE@@AEAAXHH@Z 000000018002f390 f i insertShapeUtilsCore.obj
 0001:0002e410       ?InitializeViewPort@?$DrawCommon@EEHHMMEH@@AEAAXHH@Z 000000018002f410 f i insertShapeUtilsCore.obj
 0001:0002e490       ?InitializeViewPort@?$DrawCommon@FFHHMMEE@@AEAAXHH@Z 000000018002f490 f i insertShapeUtilsCore.obj
 0001:0002e510       ?InitializeViewPort@?$DrawCommon@FFHHMMEH@@AEAAXHH@Z 000000018002f510 f i insertShapeUtilsCore.obj
 0001:0002e590       ?InitializeViewPort@?$DrawCommon@GGHHMMEE@@AEAAXHH@Z 000000018002f590 f i insertShapeUtilsCore.obj
 0001:0002e610       ?InitializeViewPort@?$DrawCommon@GGHHMMEH@@AEAAXHH@Z 000000018002f610 f i insertShapeUtilsCore.obj
 0001:0002e690       ?InitializeViewPort@?$DrawCommon@MMHHMMEE@@AEAAXHH@Z 000000018002f690 f i insertShapeUtilsCore.obj
 0001:0002e710       ?InitializeViewPort@?$DrawCommon@MMHHMMEH@@AEAAXHH@Z 000000018002f710 f i insertShapeUtilsCore.obj
 0001:0002e790       ?InitializeViewPort@?$DrawCommon@NNHHNNEE@@AEAAXHH@Z 000000018002f790 f i insertShapeUtilsCore.obj
 0001:0002e810       ?InitializeViewPort@?$DrawCommon@NNHHNNEH@@AEAAXHH@Z 000000018002f810 f i insertShapeUtilsCore.obj
 0001:0002e890       ?IsHorizontal@?$BresenhamLine@HH@@QEAAEXZ 000000018002f890 f i insertShapeUtilsCore.obj
 0001:0002e8c0       ?IsInRange@?$BresenhamLine@HE@@QEAAEXZ 000000018002f8c0 f i insertShapeUtilsCore.obj
 0001:0002e8f0       ?IsInRange@?$BresenhamLine@HH@@QEAAEXZ 000000018002f8f0 f i insertShapeUtilsCore.obj
 0001:0002e920       ?IsInRange@?$MidPointFullCircle@H@@QEAAEXZ 000000018002f920 f i insertShapeUtilsCore.obj
 0001:0002e950       ?IsMoreClr@?$DrawCommon@EEHHMMEE@@AEAAHH@Z 000000018002f950 f i insertShapeUtilsCore.obj
 0001:0002e9a0       ?IsMoreClr@?$DrawCommon@EEHHMMEH@@AEAAHH@Z 000000018002f9a0 f i insertShapeUtilsCore.obj
 0001:0002e9f0       ?IsMoreClr@?$DrawCommon@FFHHMMEE@@AEAAHH@Z 000000018002f9f0 f i insertShapeUtilsCore.obj
 0001:0002ea40       ?IsMoreClr@?$DrawCommon@FFHHMMEH@@AEAAHH@Z 000000018002fa40 f i insertShapeUtilsCore.obj
 0001:0002ea90       ?IsMoreClr@?$DrawCommon@GGHHMMEE@@AEAAHH@Z 000000018002fa90 f i insertShapeUtilsCore.obj
 0001:0002eae0       ?IsMoreClr@?$DrawCommon@GGHHMMEH@@AEAAHH@Z 000000018002fae0 f i insertShapeUtilsCore.obj
 0001:0002eb30       ?IsMoreClr@?$DrawCommon@MMHHMMEE@@AEAAHH@Z 000000018002fb30 f i insertShapeUtilsCore.obj
 0001:0002eb80       ?IsMoreClr@?$DrawCommon@MMHHMMEH@@AEAAHH@Z 000000018002fb80 f i insertShapeUtilsCore.obj
 0001:0002ebd0       ?IsMoreClr@?$DrawCommon@NNHHNNEE@@AEAAHH@Z 000000018002fbd0 f i insertShapeUtilsCore.obj
 0001:0002ec20       ?IsMoreClr@?$DrawCommon@NNHHNNEH@@AEAAHH@Z 000000018002fc20 f i insertShapeUtilsCore.obj
 0001:0002ec70       ?IsMoreForeScanLine@?$ScanLineBase@HHE@@QEAAEXZ 000000018002fc70 f i insertShapeUtilsCore.obj
 0001:0002eca0       ?IsMoreForeScanLine@?$ScanLineBase@HHH@@QEAAEXZ 000000018002fca0 f i insertShapeUtilsCore.obj
 0001:0002ecd0       ?IsMoreLayer@?$ScanLineBase@HHE@@QEAAEXZ 000000018002fcd0 f i insertShapeUtilsCore.obj
 0001:0002ecf0       ?IsMoreLayer@?$ScanLineBase@HHH@@QEAAEXZ 000000018002fcf0 f i insertShapeUtilsCore.obj
 0001:0002ed10       ?IsMorePolygon@?$Polygon@HHE@@QEAAEXZ 000000018002fd10 f i insertShapeUtilsCore.obj
 0001:0002ed50       ?IsMorePolygon@?$Polygon@HHH@@QEAAEXZ 000000018002fd50 f i insertShapeUtilsCore.obj
 0001:0002ed90       ?IsMoreSeparator@?$Polygon@HHE@@QEAAEXZ 000000018002fd90 f i insertShapeUtilsCore.obj
 0001:0002edc0       ?IsMoreSeparator@?$Polygon@HHH@@QEAAEXZ 000000018002fdc0 f i insertShapeUtilsCore.obj
 0001:0002edf0       ?MoveToColumn@?$Polygon@HHE@@QEAAXH@Z 000000018002fdf0 f i insertShapeUtilsCore.obj
 0001:0002efb0       ?MoveToColumn@?$Polygon@HHH@@QEAAXH@Z 000000018002ffb0 f i insertShapeUtilsCore.obj
 0001:0002f170       ?MoveToNextColumn@?$MidPointFullCircle@H@@QEAAXXZ 0000000180030170 f i insertShapeUtilsCore.obj
 0001:0002f3d0       ?MoveToNextFillColor@?$DrawCommon@EEHHMMEE@@IEAAXXZ 00000001800303d0 f i insertShapeUtilsCore.obj
 0001:0002f430       ?MoveToNextFillColor@?$DrawCommon@EEHHMMEH@@IEAAXXZ 0000000180030430 f i insertShapeUtilsCore.obj
 0001:0002f490       ?MoveToNextFillColor@?$DrawCommon@FFHHMMEE@@IEAAXXZ 0000000180030490 f i insertShapeUtilsCore.obj
 0001:0002f4f0       ?MoveToNextFillColor@?$DrawCommon@FFHHMMEH@@IEAAXXZ 00000001800304f0 f i insertShapeUtilsCore.obj
 0001:0002f550       ?MoveToNextFillColor@?$DrawCommon@GGHHMMEE@@IEAAXXZ 0000000180030550 f i insertShapeUtilsCore.obj
 0001:0002f5b0       ?MoveToNextFillColor@?$DrawCommon@GGHHMMEH@@IEAAXXZ 00000001800305b0 f i insertShapeUtilsCore.obj
 0001:0002f610       ?MoveToNextFillColor@?$DrawCommon@MMHHMMEE@@IEAAXXZ 0000000180030610 f i insertShapeUtilsCore.obj
 0001:0002f670       ?MoveToNextFillColor@?$DrawCommon@MMHHMMEH@@IEAAXXZ 0000000180030670 f i insertShapeUtilsCore.obj
 0001:0002f6d0       ?MoveToNextFillColor@?$DrawCommon@NNHHNNEE@@IEAAXXZ 00000001800306d0 f i insertShapeUtilsCore.obj
 0001:0002f730       ?MoveToNextFillColor@?$DrawCommon@NNHHNNEH@@IEAAXXZ 0000000180030730 f i insertShapeUtilsCore.obj
 0001:0002f790       ?MoveToNextOpacity@?$DrawCommon@EEHHMMEE@@AEAAXE@Z 0000000180030790 f i insertShapeUtilsCore.obj
 0001:0002f7a0       ?MoveToNextOpacity@?$DrawCommon@EEHHMMEE@@IEAAXXZ 00000001800307a0 f i insertShapeUtilsCore.obj
 0001:0002f7c0       ?MoveToNextOpacity@?$DrawCommon@EEHHMMEH@@AEAAXH@Z 00000001800307c0 f i insertShapeUtilsCore.obj
 0001:0002f810       ?MoveToNextOpacity@?$DrawCommon@EEHHMMEH@@IEAAXXZ 0000000180030810 f i insertShapeUtilsCore.obj
 0001:0002f830       ?MoveToNextOpacity@?$DrawCommon@FFHHMMEE@@AEAAXE@Z 0000000180030830 f i insertShapeUtilsCore.obj
 0001:0002f840       ?MoveToNextOpacity@?$DrawCommon@FFHHMMEE@@IEAAXXZ 0000000180030840 f i insertShapeUtilsCore.obj
 0001:0002f860       ?MoveToNextOpacity@?$DrawCommon@FFHHMMEH@@AEAAXH@Z 0000000180030860 f i insertShapeUtilsCore.obj
 0001:0002f8b0       ?MoveToNextOpacity@?$DrawCommon@FFHHMMEH@@IEAAXXZ 00000001800308b0 f i insertShapeUtilsCore.obj
 0001:0002f8d0       ?MoveToNextOpacity@?$DrawCommon@GGHHMMEE@@AEAAXE@Z 00000001800308d0 f i insertShapeUtilsCore.obj
 0001:0002f8e0       ?MoveToNextOpacity@?$DrawCommon@GGHHMMEE@@IEAAXXZ 00000001800308e0 f i insertShapeUtilsCore.obj
 0001:0002f900       ?MoveToNextOpacity@?$DrawCommon@GGHHMMEH@@AEAAXH@Z 0000000180030900 f i insertShapeUtilsCore.obj
 0001:0002f950       ?MoveToNextOpacity@?$DrawCommon@GGHHMMEH@@IEAAXXZ 0000000180030950 f i insertShapeUtilsCore.obj
 0001:0002f970       ?MoveToNextOpacity@?$DrawCommon@MMHHMMEE@@AEAAXE@Z 0000000180030970 f i insertShapeUtilsCore.obj
 0001:0002f980       ?MoveToNextOpacity@?$DrawCommon@MMHHMMEE@@IEAAXXZ 0000000180030980 f i insertShapeUtilsCore.obj
 0001:0002f9a0       ?MoveToNextOpacity@?$DrawCommon@MMHHMMEH@@AEAAXH@Z 00000001800309a0 f i insertShapeUtilsCore.obj
 0001:0002f9f0       ?MoveToNextOpacity@?$DrawCommon@MMHHMMEH@@IEAAXXZ 00000001800309f0 f i insertShapeUtilsCore.obj
 0001:0002fa10       ?MoveToNextOpacity@?$DrawCommon@NNHHNNEE@@AEAAXE@Z 0000000180030a10 f i insertShapeUtilsCore.obj
 0001:0002fa20       ?MoveToNextOpacity@?$DrawCommon@NNHHNNEE@@IEAAXXZ 0000000180030a20 f i insertShapeUtilsCore.obj
 0001:0002fa40       ?MoveToNextOpacity@?$DrawCommon@NNHHNNEH@@AEAAXH@Z 0000000180030a40 f i insertShapeUtilsCore.obj
 0001:0002fa90       ?MoveToNextOpacity@?$DrawCommon@NNHHNNEH@@IEAAXXZ 0000000180030a90 f i insertShapeUtilsCore.obj
 0001:0002fab0       ?MoveToNextPosition@?$BresenhamLine@HE@@AEAAXE@Z 0000000180030ab0 f i insertShapeUtilsCore.obj
 0001:0002fb40       ?MoveToNextPosition@?$BresenhamLine@HE@@QEAAXXZ 0000000180030b40 f i insertShapeUtilsCore.obj
 0001:0002fb60       ?MoveToNextPosition@?$BresenhamLine@HH@@AEAAXH@Z 0000000180030b60 f i insertShapeUtilsCore.obj
 0001:0002fbd0       ?MoveToNextPosition@?$BresenhamLine@HH@@QEAAXXZ 0000000180030bd0 f i insertShapeUtilsCore.obj
 0001:0002fbf0       ?NextColumn@?$Polygon@HHE@@QEAAXXZ 0000000180030bf0 f i insertShapeUtilsCore.obj
 0001:0002fc20       ?NextColumn@?$Polygon@HHH@@QEAAXXZ 0000000180030c20 f i insertShapeUtilsCore.obj
 0001:0002fc50       ?NextColumn@?$ScanLine@HHE@@EEAAXXZ 0000000180030c50 f i insertShapeUtilsCore.obj
 0001:0002fc70       ?NextColumn@?$ScanLine@HHH@@EEAAXXZ 0000000180030c70 f i insertShapeUtilsCore.obj
 0001:0002fc90       ?NextLayer@?$ScanLine@HHE@@UEAAXXZ 0000000180030c90 f i insertShapeUtilsCore.obj
 0001:0002fcb0       ?NextLayer@?$ScanLine@HHH@@UEAAXXZ 0000000180030cb0 f i insertShapeUtilsCore.obj
 0001:0002fcd0       ?NextPolygon@?$Polygon@HHE@@QEAAXXZ 0000000180030cd0 f i insertShapeUtilsCore.obj
 0001:0002fd30       ?NextPolygon@?$Polygon@HHH@@QEAAXXZ 0000000180030d30 f i insertShapeUtilsCore.obj
 0001:0002fd90       ?PlotOnePixel@?$DrawCommon@EEHHMMEE@@AEAAXHHE@Z 0000000180030d90 f i insertShapeUtilsCore.obj
 0001:0002fe30       ?PlotOnePixel@?$DrawCommon@EEHHMMEE@@IEAAXHH@Z 0000000180030e30 f i insertShapeUtilsCore.obj
 0001:0002fe60       ?PlotOnePixel@?$DrawCommon@FFHHMMEE@@AEAAXHHE@Z 0000000180030e60 f i insertShapeUtilsCore.obj
 0001:0002ff00       ?PlotOnePixel@?$DrawCommon@FFHHMMEE@@IEAAXHH@Z 0000000180030f00 f i insertShapeUtilsCore.obj
 0001:0002ff30       ?PlotOnePixel@?$DrawCommon@GGHHMMEE@@AEAAXHHE@Z 0000000180030f30 f i insertShapeUtilsCore.obj
 0001:0002ffd0       ?PlotOnePixel@?$DrawCommon@GGHHMMEE@@IEAAXHH@Z 0000000180030fd0 f i insertShapeUtilsCore.obj
 0001:00030000       ?PlotOnePixel@?$DrawCommon@MMHHMMEE@@AEAAXHHE@Z 0000000180031000 f i insertShapeUtilsCore.obj
 0001:000300a0       ?PlotOnePixel@?$DrawCommon@MMHHMMEE@@IEAAXHH@Z 00000001800310a0 f i insertShapeUtilsCore.obj
 0001:000300d0       ?PlotOnePixel@?$DrawCommon@NNHHNNEE@@AEAAXHHE@Z 00000001800310d0 f i insertShapeUtilsCore.obj
 0001:00030170       ?PlotOnePixel@?$DrawCommon@NNHHNNEE@@IEAAXHH@Z 0000000180031170 f i insertShapeUtilsCore.obj
 0001:000301a0       ?PlotOneSubPixelOneColor@?$DrawCommon@EEHHMMEE@@AEAAXPEAEHEHH@Z 00000001800311a0 f i insertShapeUtilsCore.obj
 0001:000303d0       ?PlotOneSubPixelOneColor@?$DrawCommon@EEHHMMEH@@AEAAXPEAEHEHH@Z 00000001800313d0 f i insertShapeUtilsCore.obj
 0001:00030610       ?PlotOneSubPixelOneColor@?$DrawCommon@FFHHMMEE@@AEAAXPEAFHEHH@Z 0000000180031610 f i insertShapeUtilsCore.obj
 0001:00030850       ?PlotOneSubPixelOneColor@?$DrawCommon@FFHHMMEH@@AEAAXPEAFHEHH@Z 0000000180031850 f i insertShapeUtilsCore.obj
 0001:00030a90       ?PlotOneSubPixelOneColor@?$DrawCommon@GGHHMMEE@@AEAAXPEAGHEHH@Z 0000000180031a90 f i insertShapeUtilsCore.obj
 0001:00030cd0       ?PlotOneSubPixelOneColor@?$DrawCommon@GGHHMMEH@@AEAAXPEAGHEHH@Z 0000000180031cd0 f i insertShapeUtilsCore.obj
 0001:00030f10       ?PlotOneSubPixelOneColor@?$DrawCommon@MMHHMMEE@@AEAAXPEAMHEHH@Z 0000000180031f10 f i insertShapeUtilsCore.obj
 0001:00031120       ?PlotOneSubPixelOneColor@?$DrawCommon@MMHHMMEH@@AEAAXPEAMHEHH@Z 0000000180032120 f i insertShapeUtilsCore.obj
 0001:00031330       ?PlotOneSubPixelOneColor@?$DrawCommon@NNHHNNEE@@AEAAXPEANHEHH@Z 0000000180032330 f i insertShapeUtilsCore.obj
 0001:00031540       ?PlotOneSubPixelOneColor@?$DrawCommon@NNHHNNEH@@AEAAXPEANHEHH@Z 0000000180032540 f i insertShapeUtilsCore.obj
 0001:00031750       ?PlotPixelsCheckRange@?$DrawCommon@EEHHMMEE@@IEAAXHHH@Z 0000000180032750 f i insertShapeUtilsCore.obj
 0001:00031810       ?PlotPixelsCheckRange@?$DrawCommon@FFHHMMEE@@IEAAXHHH@Z 0000000180032810 f i insertShapeUtilsCore.obj
 0001:000318d0       ?PlotPixelsCheckRange@?$DrawCommon@GGHHMMEE@@IEAAXHHH@Z 00000001800328d0 f i insertShapeUtilsCore.obj
 0001:00031990       ?PlotPixelsCheckRange@?$DrawCommon@MMHHMMEE@@IEAAXHHH@Z 0000000180032990 f i insertShapeUtilsCore.obj
 0001:00031a50       ?PlotPixelsCheckRange@?$DrawCommon@NNHHNNEE@@IEAAXHHH@Z 0000000180032a50 f i insertShapeUtilsCore.obj
 0001:00031b10       ?PlotSubPixels@?$DrawCommon@EEHHMMEE@@AEAAXHEHHE@Z 0000000180032b10 f i insertShapeUtilsCore.obj
 0001:00031bb0       ?PlotSubPixels@?$DrawCommon@EEHHMMEE@@AEAAXHHHHHE@Z 0000000180032bb0 f i insertShapeUtilsCore.obj
 0001:00031c70       ?PlotSubPixels@?$DrawCommon@EEHHMMEE@@IEAAXHEHH@Z 0000000180032c70 f i insertShapeUtilsCore.obj
 0001:00031cc0       ?PlotSubPixels@?$DrawCommon@EEHHMMEE@@IEAAXHHHHH@Z 0000000180032cc0 f i insertShapeUtilsCore.obj
 0001:00031d10       ?PlotSubPixels@?$DrawCommon@EEHHMMEH@@AEAAXHHHHHE@Z 0000000180032d10 f i insertShapeUtilsCore.obj
 0001:00031dd0       ?PlotSubPixels@?$DrawCommon@EEHHMMEH@@IEAAXHHHHH@Z 0000000180032dd0 f i insertShapeUtilsCore.obj
 0001:00031e20       ?PlotSubPixels@?$DrawCommon@FFHHMMEE@@AEAAXHEHHE@Z 0000000180032e20 f i insertShapeUtilsCore.obj
 0001:00031ec0       ?PlotSubPixels@?$DrawCommon@FFHHMMEE@@AEAAXHHHHHE@Z 0000000180032ec0 f i insertShapeUtilsCore.obj
 0001:00031f80       ?PlotSubPixels@?$DrawCommon@FFHHMMEE@@IEAAXHEHH@Z 0000000180032f80 f i insertShapeUtilsCore.obj
 0001:00031fd0       ?PlotSubPixels@?$DrawCommon@FFHHMMEE@@IEAAXHHHHH@Z 0000000180032fd0 f i insertShapeUtilsCore.obj
 0001:00032020       ?PlotSubPixels@?$DrawCommon@FFHHMMEH@@AEAAXHHHHHE@Z 0000000180033020 f i insertShapeUtilsCore.obj
 0001:000320e0       ?PlotSubPixels@?$DrawCommon@FFHHMMEH@@IEAAXHHHHH@Z 00000001800330e0 f i insertShapeUtilsCore.obj
 0001:00032130       ?PlotSubPixels@?$DrawCommon@GGHHMMEE@@AEAAXHEHHE@Z 0000000180033130 f i insertShapeUtilsCore.obj
 0001:000321d0       ?PlotSubPixels@?$DrawCommon@GGHHMMEE@@AEAAXHHHHHE@Z 00000001800331d0 f i insertShapeUtilsCore.obj
 0001:00032290       ?PlotSubPixels@?$DrawCommon@GGHHMMEE@@IEAAXHEHH@Z 0000000180033290 f i insertShapeUtilsCore.obj
 0001:000322e0       ?PlotSubPixels@?$DrawCommon@GGHHMMEE@@IEAAXHHHHH@Z 00000001800332e0 f i insertShapeUtilsCore.obj
 0001:00032330       ?PlotSubPixels@?$DrawCommon@GGHHMMEH@@AEAAXHHHHHE@Z 0000000180033330 f i insertShapeUtilsCore.obj
 0001:000323f0       ?PlotSubPixels@?$DrawCommon@GGHHMMEH@@IEAAXHHHHH@Z 00000001800333f0 f i insertShapeUtilsCore.obj
 0001:00032440       ?PlotSubPixels@?$DrawCommon@MMHHMMEE@@AEAAXHEHHE@Z 0000000180033440 f i insertShapeUtilsCore.obj
 0001:000324e0       ?PlotSubPixels@?$DrawCommon@MMHHMMEE@@AEAAXHHHHHE@Z 00000001800334e0 f i insertShapeUtilsCore.obj
 0001:000325a0       ?PlotSubPixels@?$DrawCommon@MMHHMMEE@@IEAAXHEHH@Z 00000001800335a0 f i insertShapeUtilsCore.obj
 0001:000325f0       ?PlotSubPixels@?$DrawCommon@MMHHMMEE@@IEAAXHHHHH@Z 00000001800335f0 f i insertShapeUtilsCore.obj
 0001:00032640       ?PlotSubPixels@?$DrawCommon@MMHHMMEH@@AEAAXHHHHHE@Z 0000000180033640 f i insertShapeUtilsCore.obj
 0001:00032700       ?PlotSubPixels@?$DrawCommon@MMHHMMEH@@IEAAXHHHHH@Z 0000000180033700 f i insertShapeUtilsCore.obj
 0001:00032750       ?PlotSubPixels@?$DrawCommon@NNHHNNEE@@AEAAXHEHHE@Z 0000000180033750 f i insertShapeUtilsCore.obj
 0001:000327f0       ?PlotSubPixels@?$DrawCommon@NNHHNNEE@@AEAAXHHHHHE@Z 00000001800337f0 f i insertShapeUtilsCore.obj
 0001:000328b0       ?PlotSubPixels@?$DrawCommon@NNHHNNEE@@IEAAXHEHH@Z 00000001800338b0 f i insertShapeUtilsCore.obj
 0001:00032900       ?PlotSubPixels@?$DrawCommon@NNHHNNEE@@IEAAXHHHHH@Z 0000000180033900 f i insertShapeUtilsCore.obj
 0001:00032950       ?PlotSubPixels@?$DrawCommon@NNHHNNEH@@AEAAXHHHHHE@Z 0000000180033950 f i insertShapeUtilsCore.obj
 0001:00032a10       ?PlotSubPixels@?$DrawCommon@NNHHNNEH@@IEAAXHHHHH@Z 0000000180033a10 f i insertShapeUtilsCore.obj
 0001:00032a60       ?PlotSubPixelsOneColor@?$DrawCommon@EEHHMMEE@@AEAAXPEAEHHHHH@Z 0000000180033a60 f i insertShapeUtilsCore.obj
 0001:00032af0       ?PlotSubPixelsOneColor@?$DrawCommon@EEHHMMEH@@AEAAXPEAEHHHHH@Z 0000000180033af0 f i insertShapeUtilsCore.obj
 0001:00032b80       ?PlotSubPixelsOneColor@?$DrawCommon@FFHHMMEE@@AEAAXPEAFHHHHH@Z 0000000180033b80 f i insertShapeUtilsCore.obj
 0001:00032c10       ?PlotSubPixelsOneColor@?$DrawCommon@FFHHMMEH@@AEAAXPEAFHHHHH@Z 0000000180033c10 f i insertShapeUtilsCore.obj
 0001:00032ca0       ?PlotSubPixelsOneColor@?$DrawCommon@GGHHMMEE@@AEAAXPEAGHHHHH@Z 0000000180033ca0 f i insertShapeUtilsCore.obj
 0001:00032d30       ?PlotSubPixelsOneColor@?$DrawCommon@GGHHMMEH@@AEAAXPEAGHHHHH@Z 0000000180033d30 f i insertShapeUtilsCore.obj
 0001:00032dc0       ?PlotSubPixelsOneColor@?$DrawCommon@MMHHMMEE@@AEAAXPEAMHHHHH@Z 0000000180033dc0 f i insertShapeUtilsCore.obj
 0001:00032e50       ?PlotSubPixelsOneColor@?$DrawCommon@MMHHMMEH@@AEAAXPEAMHHHHH@Z 0000000180033e50 f i insertShapeUtilsCore.obj
 0001:00032ee0       ?PlotSubPixelsOneColor@?$DrawCommon@NNHHNNEE@@AEAAXPEANHHHHH@Z 0000000180033ee0 f i insertShapeUtilsCore.obj
 0001:00032f70       ?PlotSubPixelsOneColor@?$DrawCommon@NNHHNNEH@@AEAAXPEANHHHHH@Z 0000000180033f70 f i insertShapeUtilsCore.obj
 0001:00033000       ?PlotVerticalLine@?$DrawCommon@EEHHMMEH@@AEAAXHHHHHE@Z 0000000180034000 f i insertShapeUtilsCore.obj
 0001:000330d0       ?PlotVerticalLine@?$DrawCommon@EEHHMMEH@@IEAAXHHHHH@Z 00000001800340d0 f i insertShapeUtilsCore.obj
 0001:00033120       ?PlotVerticalLine@?$DrawCommon@FFHHMMEH@@AEAAXHHHHHE@Z 0000000180034120 f i insertShapeUtilsCore.obj
 0001:000331f0       ?PlotVerticalLine@?$DrawCommon@FFHHMMEH@@IEAAXHHHHH@Z 00000001800341f0 f i insertShapeUtilsCore.obj
 0001:00033240       ?PlotVerticalLine@?$DrawCommon@GGHHMMEH@@AEAAXHHHHHE@Z 0000000180034240 f i insertShapeUtilsCore.obj
 0001:00033310       ?PlotVerticalLine@?$DrawCommon@GGHHMMEH@@IEAAXHHHHH@Z 0000000180034310 f i insertShapeUtilsCore.obj
 0001:00033360       ?PlotVerticalLine@?$DrawCommon@MMHHMMEH@@AEAAXHHHHHE@Z 0000000180034360 f i insertShapeUtilsCore.obj
 0001:00033430       ?PlotVerticalLine@?$DrawCommon@MMHHMMEH@@IEAAXHHHHH@Z 0000000180034430 f i insertShapeUtilsCore.obj
 0001:00033480       ?PlotVerticalLine@?$DrawCommon@NNHHNNEH@@AEAAXHHHHHE@Z 0000000180034480 f i insertShapeUtilsCore.obj
 0001:00033550       ?PlotVerticalLine@?$DrawCommon@NNHHNNEH@@IEAAXHHHHH@Z 0000000180034550 f i insertShapeUtilsCore.obj
 0001:000335a0       ?PlotVerticalLineCheckRange@?$DrawCommon@EEHHMMEH@@IEAAXHHHHH@Z 00000001800345a0 f i insertShapeUtilsCore.obj
 0001:00033680       ?PlotVerticalLineCheckRange@?$DrawCommon@FFHHMMEH@@IEAAXHHHHH@Z 0000000180034680 f i insertShapeUtilsCore.obj
 0001:00033760       ?PlotVerticalLineCheckRange@?$DrawCommon@GGHHMMEH@@IEAAXHHHHH@Z 0000000180034760 f i insertShapeUtilsCore.obj
 0001:00033840       ?PlotVerticalLineCheckRange@?$DrawCommon@MMHHMMEH@@IEAAXHHHHH@Z 0000000180034840 f i insertShapeUtilsCore.obj
 0001:00033920       ?PlotVerticalLineCheckRange@?$DrawCommon@NNHHNNEH@@IEAAXHHHHH@Z 0000000180034920 f i insertShapeUtilsCore.obj
 0001:00033a00       ?PlotVerticalLineOneColor@?$DrawCommon@EEHHMMEH@@AEAAXPEAEHHHHH@Z 0000000180034a00 f i insertShapeUtilsCore.obj
 0001:00033b40       ?PlotVerticalLineOneColor@?$DrawCommon@FFHHMMEH@@AEAAXPEAFHHHHH@Z 0000000180034b40 f i insertShapeUtilsCore.obj
 0001:00033c90       ?PlotVerticalLineOneColor@?$DrawCommon@GGHHMMEH@@AEAAXPEAGHHHHH@Z 0000000180034c90 f i insertShapeUtilsCore.obj
 0001:00033de0       ?PlotVerticalLineOneColor@?$DrawCommon@MMHHMMEH@@AEAAXPEAMHHHHH@Z 0000000180034de0 f i insertShapeUtilsCore.obj
 0001:00033f30       ?PlotVerticalLineOneColor@?$DrawCommon@NNHHNNEH@@AEAAXPEANHHHHH@Z 0000000180034f30 f i insertShapeUtilsCore.obj
 0001:00034080       ?ProcessOneShape@?$DrawCircle@EEHHMMEEE@@AEAAXHHHEE@Z 0000000180035080 f i insertShapeUtilsCore.obj
 0001:00034350       ?ProcessOneShape@?$DrawCircle@EEHHMMEEE@@AEAAXHHHEH@Z 0000000180035350 f i insertShapeUtilsCore.obj
 0001:000348c0       ?ProcessOneShape@?$DrawCircle@EEHHMMEEE@@QEAAXXZ 00000001800358c0 f i insertShapeUtilsCore.obj
 0001:000349e0       ?ProcessOneShape@?$DrawCircle@EEHHMMEEH@@AEAAXHHHEH@Z 00000001800359e0 f i insertShapeUtilsCore.obj
 0001:00034f50       ?ProcessOneShape@?$DrawCircle@EEHHMMEEH@@QEAAXXZ 0000000180035f50 f i insertShapeUtilsCore.obj
 0001:00035070       ?ProcessOneShape@?$DrawCircle@EEHHMMEHE@@AEAAXHHHHE@Z 0000000180036070 f i insertShapeUtilsCore.obj
 0001:00035350       ?ProcessOneShape@?$DrawCircle@EEHHMMEHE@@QEAAXXZ 0000000180036350 f i insertShapeUtilsCore.obj
 0001:00035470       ?ProcessOneShape@?$DrawCircle@EEHHMMEHH@@AEAAXHHHHH@Z 0000000180036470 f i insertShapeUtilsCore.obj
 0001:000356b0       ?ProcessOneShape@?$DrawCircle@EEHHMMEHH@@QEAAXXZ 00000001800366b0 f i insertShapeUtilsCore.obj
 0001:000357d0       ?ProcessOneShape@?$DrawCircle@FFHHMMEEE@@AEAAXHHHEE@Z 00000001800367d0 f i insertShapeUtilsCore.obj
 0001:00035aa0       ?ProcessOneShape@?$DrawCircle@FFHHMMEEE@@AEAAXHHHEH@Z 0000000180036aa0 f i insertShapeUtilsCore.obj
 0001:00036010       ?ProcessOneShape@?$DrawCircle@FFHHMMEEE@@QEAAXXZ 0000000180037010 f i insertShapeUtilsCore.obj
 0001:00036130       ?ProcessOneShape@?$DrawCircle@FFHHMMEEH@@AEAAXHHHEH@Z 0000000180037130 f i insertShapeUtilsCore.obj
 0001:000366a0       ?ProcessOneShape@?$DrawCircle@FFHHMMEEH@@QEAAXXZ 00000001800376a0 f i insertShapeUtilsCore.obj
 0001:000367c0       ?ProcessOneShape@?$DrawCircle@FFHHMMEHE@@AEAAXHHHHE@Z 00000001800377c0 f i insertShapeUtilsCore.obj
 0001:00036aa0       ?ProcessOneShape@?$DrawCircle@FFHHMMEHE@@QEAAXXZ 0000000180037aa0 f i insertShapeUtilsCore.obj
 0001:00036bc0       ?ProcessOneShape@?$DrawCircle@FFHHMMEHH@@AEAAXHHHHH@Z 0000000180037bc0 f i insertShapeUtilsCore.obj
 0001:00036e00       ?ProcessOneShape@?$DrawCircle@FFHHMMEHH@@QEAAXXZ 0000000180037e00 f i insertShapeUtilsCore.obj
 0001:00036f20       ?ProcessOneShape@?$DrawCircle@GGHHMMEEE@@AEAAXHHHEE@Z 0000000180037f20 f i insertShapeUtilsCore.obj
 0001:000371f0       ?ProcessOneShape@?$DrawCircle@GGHHMMEEE@@AEAAXHHHEH@Z 00000001800381f0 f i insertShapeUtilsCore.obj
 0001:00037760       ?ProcessOneShape@?$DrawCircle@GGHHMMEEE@@QEAAXXZ 0000000180038760 f i insertShapeUtilsCore.obj
 0001:00037880       ?ProcessOneShape@?$DrawCircle@GGHHMMEEH@@AEAAXHHHEH@Z 0000000180038880 f i insertShapeUtilsCore.obj
 0001:00037df0       ?ProcessOneShape@?$DrawCircle@GGHHMMEEH@@QEAAXXZ 0000000180038df0 f i insertShapeUtilsCore.obj
 0001:00037f10       ?ProcessOneShape@?$DrawCircle@GGHHMMEHE@@AEAAXHHHHE@Z 0000000180038f10 f i insertShapeUtilsCore.obj
 0001:000381f0       ?ProcessOneShape@?$DrawCircle@GGHHMMEHE@@QEAAXXZ 00000001800391f0 f i insertShapeUtilsCore.obj
 0001:00038310       ?ProcessOneShape@?$DrawCircle@GGHHMMEHH@@AEAAXHHHHH@Z 0000000180039310 f i insertShapeUtilsCore.obj
 0001:00038550       ?ProcessOneShape@?$DrawCircle@GGHHMMEHH@@QEAAXXZ 0000000180039550 f i insertShapeUtilsCore.obj
 0001:00038670       ?ProcessOneShape@?$DrawCircle@MMHHMMEEE@@AEAAXHHHEE@Z 0000000180039670 f i insertShapeUtilsCore.obj
 0001:00038940       ?ProcessOneShape@?$DrawCircle@MMHHMMEEE@@AEAAXHHHEH@Z 0000000180039940 f i insertShapeUtilsCore.obj
 0001:00038eb0       ?ProcessOneShape@?$DrawCircle@MMHHMMEEE@@QEAAXXZ 0000000180039eb0 f i insertShapeUtilsCore.obj
 0001:00038fd0       ?ProcessOneShape@?$DrawCircle@MMHHMMEEH@@AEAAXHHHEH@Z 0000000180039fd0 f i insertShapeUtilsCore.obj
 0001:00039540       ?ProcessOneShape@?$DrawCircle@MMHHMMEEH@@QEAAXXZ 000000018003a540 f i insertShapeUtilsCore.obj
 0001:00039660       ?ProcessOneShape@?$DrawCircle@MMHHMMEHE@@AEAAXHHHHE@Z 000000018003a660 f i insertShapeUtilsCore.obj
 0001:00039940       ?ProcessOneShape@?$DrawCircle@MMHHMMEHE@@QEAAXXZ 000000018003a940 f i insertShapeUtilsCore.obj
 0001:00039a60       ?ProcessOneShape@?$DrawCircle@MMHHMMEHH@@AEAAXHHHHH@Z 000000018003aa60 f i insertShapeUtilsCore.obj
 0001:00039ca0       ?ProcessOneShape@?$DrawCircle@MMHHMMEHH@@QEAAXXZ 000000018003aca0 f i insertShapeUtilsCore.obj
 0001:00039dc0       ?ProcessOneShape@?$DrawCircle@NNHHNNEEE@@AEAAXHHHEE@Z 000000018003adc0 f i insertShapeUtilsCore.obj
 0001:0003a090       ?ProcessOneShape@?$DrawCircle@NNHHNNEEE@@AEAAXHHHEH@Z 000000018003b090 f i insertShapeUtilsCore.obj
 0001:0003a600       ?ProcessOneShape@?$DrawCircle@NNHHNNEEE@@QEAAXXZ 000000018003b600 f i insertShapeUtilsCore.obj
 0001:0003a720       ?ProcessOneShape@?$DrawCircle@NNHHNNEEH@@AEAAXHHHEH@Z 000000018003b720 f i insertShapeUtilsCore.obj
 0001:0003ac90       ?ProcessOneShape@?$DrawCircle@NNHHNNEEH@@QEAAXXZ 000000018003bc90 f i insertShapeUtilsCore.obj
 0001:0003adb0       ?ProcessOneShape@?$DrawCircle@NNHHNNEHE@@AEAAXHHHHE@Z 000000018003bdb0 f i insertShapeUtilsCore.obj
 0001:0003b090       ?ProcessOneShape@?$DrawCircle@NNHHNNEHE@@QEAAXXZ 000000018003c090 f i insertShapeUtilsCore.obj
 0001:0003b1b0       ?ProcessOneShape@?$DrawCircle@NNHHNNEHH@@AEAAXHHHHH@Z 000000018003c1b0 f i insertShapeUtilsCore.obj
 0001:0003b3f0       ?ProcessOneShape@?$DrawCircle@NNHHNNEHH@@QEAAXXZ 000000018003c3f0 f i insertShapeUtilsCore.obj
 0001:0003b510       ?ProcessOneShape@?$DrawFilledRectangle@EEHHMME@@QEAAXXZ 000000018003c510 f i insertShapeUtilsCore.obj
 0001:0003b610       ?ProcessOneShape@?$DrawFilledRectangle@FFHHMME@@QEAAXXZ 000000018003c610 f i insertShapeUtilsCore.obj
 0001:0003b710       ?ProcessOneShape@?$DrawFilledRectangle@GGHHMME@@QEAAXXZ 000000018003c710 f i insertShapeUtilsCore.obj
 0001:0003b810       ?ProcessOneShape@?$DrawFilledRectangle@MMHHMME@@QEAAXXZ 000000018003c810 f i insertShapeUtilsCore.obj
 0001:0003b910       ?ProcessOneShape@?$DrawFilledRectangle@NNHHNNE@@QEAAXXZ 000000018003c910 f i insertShapeUtilsCore.obj
 0001:0003ba10       ?ProcessOneShape@?$DrawLine@EEHHMMEE@@QEAAXE@Z 000000018003ca10 f i insertShapeUtilsCore.obj
 0001:0003bb10       ?ProcessOneShape@?$DrawLine@EEHHMMEE@@QEAAXXZ 000000018003cb10 f i insertShapeUtilsCore.obj
 0001:0003bb30       ?ProcessOneShape@?$DrawLine@EEHHMMEH@@QEAAXH@Z 000000018003cb30 f i insertShapeUtilsCore.obj
 0001:0003bfa0       ?ProcessOneShape@?$DrawLine@EEHHMMEH@@QEAAXXZ 000000018003cfa0 f i insertShapeUtilsCore.obj
 0001:0003bfc0       ?ProcessOneShape@?$DrawLine@FFHHMMEE@@QEAAXE@Z 000000018003cfc0 f i insertShapeUtilsCore.obj
 0001:0003c0c0       ?ProcessOneShape@?$DrawLine@FFHHMMEE@@QEAAXXZ 000000018003d0c0 f i insertShapeUtilsCore.obj
 0001:0003c0e0       ?ProcessOneShape@?$DrawLine@FFHHMMEH@@QEAAXH@Z 000000018003d0e0 f i insertShapeUtilsCore.obj
 0001:0003c550       ?ProcessOneShape@?$DrawLine@FFHHMMEH@@QEAAXXZ 000000018003d550 f i insertShapeUtilsCore.obj
 0001:0003c570       ?ProcessOneShape@?$DrawLine@GGHHMMEE@@QEAAXE@Z 000000018003d570 f i insertShapeUtilsCore.obj
 0001:0003c670       ?ProcessOneShape@?$DrawLine@GGHHMMEE@@QEAAXXZ 000000018003d670 f i insertShapeUtilsCore.obj
 0001:0003c690       ?ProcessOneShape@?$DrawLine@GGHHMMEH@@QEAAXH@Z 000000018003d690 f i insertShapeUtilsCore.obj
 0001:0003cb00       ?ProcessOneShape@?$DrawLine@GGHHMMEH@@QEAAXXZ 000000018003db00 f i insertShapeUtilsCore.obj
 0001:0003cb20       ?ProcessOneShape@?$DrawLine@MMHHMMEE@@QEAAXE@Z 000000018003db20 f i insertShapeUtilsCore.obj
 0001:0003cc20       ?ProcessOneShape@?$DrawLine@MMHHMMEE@@QEAAXXZ 000000018003dc20 f i insertShapeUtilsCore.obj
 0001:0003cc40       ?ProcessOneShape@?$DrawLine@MMHHMMEH@@QEAAXH@Z 000000018003dc40 f i insertShapeUtilsCore.obj
 0001:0003d0b0       ?ProcessOneShape@?$DrawLine@MMHHMMEH@@QEAAXXZ 000000018003e0b0 f i insertShapeUtilsCore.obj
 0001:0003d0d0       ?ProcessOneShape@?$DrawLine@NNHHNNEE@@QEAAXE@Z 000000018003e0d0 f i insertShapeUtilsCore.obj
 0001:0003d1d0       ?ProcessOneShape@?$DrawLine@NNHHNNEE@@QEAAXXZ 000000018003e1d0 f i insertShapeUtilsCore.obj
 0001:0003d1f0       ?ProcessOneShape@?$DrawLine@NNHHNNEH@@QEAAXH@Z 000000018003e1f0 f i insertShapeUtilsCore.obj
 0001:0003d660       ?ProcessOneShape@?$DrawLine@NNHHNNEH@@QEAAXXZ 000000018003e660 f i insertShapeUtilsCore.obj
 0001:0003d680       ?ProcessOneShape@?$DrawMarkerLine@EEHHMMEE@@QEAAXE@Z 000000018003e680 f i insertShapeUtilsCore.obj
 0001:0003d870       ?ProcessOneShape@?$DrawMarkerLine@EEHHMMEE@@QEAAXXZ 000000018003e870 f i insertShapeUtilsCore.obj
 0001:0003d890       ?ProcessOneShape@?$DrawMarkerLine@FFHHMMEE@@QEAAXE@Z 000000018003e890 f i insertShapeUtilsCore.obj
 0001:0003da80       ?ProcessOneShape@?$DrawMarkerLine@FFHHMMEE@@QEAAXXZ 000000018003ea80 f i insertShapeUtilsCore.obj
 0001:0003daa0       ?ProcessOneShape@?$DrawMarkerLine@GGHHMMEE@@QEAAXE@Z 000000018003eaa0 f i insertShapeUtilsCore.obj
 0001:0003dc90       ?ProcessOneShape@?$DrawMarkerLine@GGHHMMEE@@QEAAXXZ 000000018003ec90 f i insertShapeUtilsCore.obj
 0001:0003dcb0       ?ProcessOneShape@?$DrawMarkerLine@MMHHMMEE@@QEAAXE@Z 000000018003ecb0 f i insertShapeUtilsCore.obj
 0001:0003dea0       ?ProcessOneShape@?$DrawMarkerLine@MMHHMMEE@@QEAAXXZ 000000018003eea0 f i insertShapeUtilsCore.obj
 0001:0003dec0       ?ProcessOneShape@?$DrawMarkerLine@NNHHNNEE@@QEAAXE@Z 000000018003eec0 f i insertShapeUtilsCore.obj
 0001:0003e0b0       ?ProcessOneShape@?$DrawMarkerLine@NNHHNNEE@@QEAAXXZ 000000018003f0b0 f i insertShapeUtilsCore.obj
 0001:0003e0d0       ?ProcessStep@?$DrawAnyLine@EEHHMMEE@@UEAAXXZ 000000018003f0d0 f i insertShapeUtilsCore.obj
 0001:0003e2f0       ?ProcessStep@?$DrawAnyLine@EEHHMMEH@@UEAAXXZ 000000018003f2f0 f i insertShapeUtilsCore.obj
 0001:0003e510       ?ProcessStep@?$DrawAnyLine@FFHHMMEE@@UEAAXXZ 000000018003f510 f i insertShapeUtilsCore.obj
 0001:0003e730       ?ProcessStep@?$DrawAnyLine@FFHHMMEH@@UEAAXXZ 000000018003f730 f i insertShapeUtilsCore.obj
 0001:0003e950       ?ProcessStep@?$DrawAnyLine@GGHHMMEE@@UEAAXXZ 000000018003f950 f i insertShapeUtilsCore.obj
 0001:0003eb70       ?ProcessStep@?$DrawAnyLine@GGHHMMEH@@UEAAXXZ 000000018003fb70 f i insertShapeUtilsCore.obj
 0001:0003ed90       ?ProcessStep@?$DrawAnyLine@MMHHMMEE@@UEAAXXZ 000000018003fd90 f i insertShapeUtilsCore.obj
 0001:0003efb0       ?ProcessStep@?$DrawAnyLine@MMHHMMEH@@UEAAXXZ 000000018003ffb0 f i insertShapeUtilsCore.obj
 0001:0003f1d0       ?ProcessStep@?$DrawAnyLine@NNHHNNEE@@UEAAXXZ 00000001800401d0 f i insertShapeUtilsCore.obj
 0001:0003f3f0       ?ProcessStep@?$DrawAnyLine@NNHHNNEH@@UEAAXXZ 00000001800403f0 f i insertShapeUtilsCore.obj
 0001:0003f610       ?ProcessStep@?$DrawCircleAnySize@EEHHMMEEE@@UEAAXXZ 0000000180040610 f i insertShapeUtilsCore.obj
 0001:0003f700       ?ProcessStep@?$DrawCircleAnySize@EEHHMMEEH@@UEAAXXZ 0000000180040700 f i insertShapeUtilsCore.obj
 0001:0003f7f0       ?ProcessStep@?$DrawCircleAnySize@EEHHMMEHE@@UEAAXXZ 00000001800407f0 f i insertShapeUtilsCore.obj
 0001:0003f8e0       ?ProcessStep@?$DrawCircleAnySize@EEHHMMEHH@@UEAAXXZ 00000001800408e0 f i insertShapeUtilsCore.obj
 0001:0003f9d0       ?ProcessStep@?$DrawCircleAnySize@FFHHMMEEE@@UEAAXXZ 00000001800409d0 f i insertShapeUtilsCore.obj
 0001:0003fac0       ?ProcessStep@?$DrawCircleAnySize@FFHHMMEEH@@UEAAXXZ 0000000180040ac0 f i insertShapeUtilsCore.obj
 0001:0003fbb0       ?ProcessStep@?$DrawCircleAnySize@FFHHMMEHE@@UEAAXXZ 0000000180040bb0 f i insertShapeUtilsCore.obj
 0001:0003fca0       ?ProcessStep@?$DrawCircleAnySize@FFHHMMEHH@@UEAAXXZ 0000000180040ca0 f i insertShapeUtilsCore.obj
 0001:0003fd90       ?ProcessStep@?$DrawCircleAnySize@GGHHMMEEE@@UEAAXXZ 0000000180040d90 f i insertShapeUtilsCore.obj
 0001:0003fe80       ?ProcessStep@?$DrawCircleAnySize@GGHHMMEEH@@UEAAXXZ 0000000180040e80 f i insertShapeUtilsCore.obj
 0001:0003ff70       ?ProcessStep@?$DrawCircleAnySize@GGHHMMEHE@@UEAAXXZ 0000000180040f70 f i insertShapeUtilsCore.obj
 0001:00040060       ?ProcessStep@?$DrawCircleAnySize@GGHHMMEHH@@UEAAXXZ 0000000180041060 f i insertShapeUtilsCore.obj
 0001:00040150       ?ProcessStep@?$DrawCircleAnySize@MMHHMMEEE@@UEAAXXZ 0000000180041150 f i insertShapeUtilsCore.obj
 0001:00040240       ?ProcessStep@?$DrawCircleAnySize@MMHHMMEEH@@UEAAXXZ 0000000180041240 f i insertShapeUtilsCore.obj
 0001:00040330       ?ProcessStep@?$DrawCircleAnySize@MMHHMMEHE@@UEAAXXZ 0000000180041330 f i insertShapeUtilsCore.obj
 0001:00040420       ?ProcessStep@?$DrawCircleAnySize@MMHHMMEHH@@UEAAXXZ 0000000180041420 f i insertShapeUtilsCore.obj
 0001:00040510       ?ProcessStep@?$DrawCircleAnySize@NNHHNNEEE@@UEAAXXZ 0000000180041510 f i insertShapeUtilsCore.obj
 0001:00040600       ?ProcessStep@?$DrawCircleAnySize@NNHHNNEEH@@UEAAXXZ 0000000180041600 f i insertShapeUtilsCore.obj
 0001:000406f0       ?ProcessStep@?$DrawCircleAnySize@NNHHNNEHE@@UEAAXXZ 00000001800416f0 f i insertShapeUtilsCore.obj
 0001:000407e0       ?ProcessStep@?$DrawCircleAnySize@NNHHNNEHH@@UEAAXXZ 00000001800417e0 f i insertShapeUtilsCore.obj
 0001:000408d0       ?ProcessStep@?$DrawFilledPolygon@EEHHMMEE@@AEAAXE@Z 00000001800418d0 f i insertShapeUtilsCore.obj
 0001:00040b60       ?ProcessStep@?$DrawFilledPolygon@EEHHMMEE@@UEAAXXZ 0000000180041b60 f i insertShapeUtilsCore.obj
 0001:00040b80       ?ProcessStep@?$DrawFilledPolygon@EEHHMMEH@@AEAAXH@Z 0000000180041b80 f i insertShapeUtilsCore.obj
 0001:00041040       ?ProcessStep@?$DrawFilledPolygon@EEHHMMEH@@UEAAXXZ 0000000180042040 f i insertShapeUtilsCore.obj
 0001:00041060       ?ProcessStep@?$DrawFilledPolygon@FFHHMMEE@@AEAAXE@Z 0000000180042060 f i insertShapeUtilsCore.obj
 0001:000412f0       ?ProcessStep@?$DrawFilledPolygon@FFHHMMEE@@UEAAXXZ 00000001800422f0 f i insertShapeUtilsCore.obj
 0001:00041310       ?ProcessStep@?$DrawFilledPolygon@FFHHMMEH@@AEAAXH@Z 0000000180042310 f i insertShapeUtilsCore.obj
 0001:000417d0       ?ProcessStep@?$DrawFilledPolygon@FFHHMMEH@@UEAAXXZ 00000001800427d0 f i insertShapeUtilsCore.obj
 0001:000417f0       ?ProcessStep@?$DrawFilledPolygon@GGHHMMEE@@AEAAXE@Z 00000001800427f0 f i insertShapeUtilsCore.obj
 0001:00041a80       ?ProcessStep@?$DrawFilledPolygon@GGHHMMEE@@UEAAXXZ 0000000180042a80 f i insertShapeUtilsCore.obj
 0001:00041aa0       ?ProcessStep@?$DrawFilledPolygon@GGHHMMEH@@AEAAXH@Z 0000000180042aa0 f i insertShapeUtilsCore.obj
 0001:00041f60       ?ProcessStep@?$DrawFilledPolygon@GGHHMMEH@@UEAAXXZ 0000000180042f60 f i insertShapeUtilsCore.obj
 0001:00041f80       ?ProcessStep@?$DrawFilledPolygon@MMHHMMEE@@AEAAXE@Z 0000000180042f80 f i insertShapeUtilsCore.obj
 0001:00042210       ?ProcessStep@?$DrawFilledPolygon@MMHHMMEE@@UEAAXXZ 0000000180043210 f i insertShapeUtilsCore.obj
 0001:00042230       ?ProcessStep@?$DrawFilledPolygon@MMHHMMEH@@AEAAXH@Z 0000000180043230 f i insertShapeUtilsCore.obj
 0001:000426f0       ?ProcessStep@?$DrawFilledPolygon@MMHHMMEH@@UEAAXXZ 00000001800436f0 f i insertShapeUtilsCore.obj
 0001:00042710       ?ProcessStep@?$DrawFilledPolygon@NNHHNNEE@@AEAAXE@Z 0000000180043710 f i insertShapeUtilsCore.obj
 0001:000429a0       ?ProcessStep@?$DrawFilledPolygon@NNHHNNEE@@UEAAXXZ 00000001800439a0 f i insertShapeUtilsCore.obj
 0001:000429c0       ?ProcessStep@?$DrawFilledPolygon@NNHHNNEH@@AEAAXH@Z 00000001800439c0 f i insertShapeUtilsCore.obj
 0001:00042e80       ?ProcessStep@?$DrawFilledPolygon@NNHHNNEH@@UEAAXXZ 0000000180043e80 f i insertShapeUtilsCore.obj
 0001:00042ea0       ?ProcessStep@?$DrawFilledRectangleAnySize@EEHHMME@@UEAAXXZ 0000000180043ea0 f i insertShapeUtilsCore.obj
 0001:00043000       ?ProcessStep@?$DrawFilledRectangleAnySize@FFHHMME@@UEAAXXZ 0000000180044000 f i insertShapeUtilsCore.obj
 0001:00043160       ?ProcessStep@?$DrawFilledRectangleAnySize@GGHHMME@@UEAAXXZ 0000000180044160 f i insertShapeUtilsCore.obj
 0001:000432c0       ?ProcessStep@?$DrawFilledRectangleAnySize@MMHHMME@@UEAAXXZ 00000001800442c0 f i insertShapeUtilsCore.obj
 0001:00043420       ?ProcessStep@?$DrawFilledRectangleAnySize@NNHHNNE@@UEAAXXZ 0000000180044420 f i insertShapeUtilsCore.obj
 0001:00043580       ?ProcessStep@?$DrawPolygon@EEHHMMEE@@UEAAXXZ 0000000180044580 f i insertShapeUtilsCore.obj
 0001:00043810       ?ProcessStep@?$DrawPolygon@EEHHMMEH@@UEAAXXZ 0000000180044810 f i insertShapeUtilsCore.obj
 0001:00043aa0       ?ProcessStep@?$DrawPolygon@FFHHMMEE@@UEAAXXZ 0000000180044aa0 f i insertShapeUtilsCore.obj
 0001:00043d30       ?ProcessStep@?$DrawPolygon@FFHHMMEH@@UEAAXXZ 0000000180044d30 f i insertShapeUtilsCore.obj
 0001:00043fc0       ?ProcessStep@?$DrawPolygon@GGHHMMEE@@UEAAXXZ 0000000180044fc0 f i insertShapeUtilsCore.obj
 0001:00044250       ?ProcessStep@?$DrawPolygon@GGHHMMEH@@UEAAXXZ 0000000180045250 f i insertShapeUtilsCore.obj
 0001:000444e0       ?ProcessStep@?$DrawPolygon@MMHHMMEE@@UEAAXXZ 00000001800454e0 f i insertShapeUtilsCore.obj
 0001:00044770       ?ProcessStep@?$DrawPolygon@MMHHMMEH@@UEAAXXZ 0000000180045770 f i insertShapeUtilsCore.obj
 0001:00044a00       ?ProcessStep@?$DrawPolygon@NNHHNNEE@@UEAAXXZ 0000000180045a00 f i insertShapeUtilsCore.obj
 0001:00044c90       ?ProcessStep@?$DrawPolygon@NNHHNNEH@@UEAAXXZ 0000000180045c90 f i insertShapeUtilsCore.obj
 0001:00044f20       ?ProcessStep@?$DrawRectangleAnySize@EEHHMME@@UEAAXXZ 0000000180045f20 f i insertShapeUtilsCore.obj
 0001:00045320       ?ProcessStep@?$DrawRectangleAnySize@FFHHMME@@UEAAXXZ 0000000180046320 f i insertShapeUtilsCore.obj
 0001:00045720       ?ProcessStep@?$DrawRectangleAnySize@GGHHMME@@UEAAXXZ 0000000180046720 f i insertShapeUtilsCore.obj
 0001:00045b20       ?ProcessStep@?$DrawRectangleAnySize@MMHHMME@@UEAAXXZ 0000000180046b20 f i insertShapeUtilsCore.obj
 0001:00045f20       ?ProcessStep@?$DrawRectangleAnySize@NNHHNNE@@UEAAXXZ 0000000180046f20 f i insertShapeUtilsCore.obj
 0001:00046320       ?Reset@?$Polygon@HHE@@QEAAXXZ 0000000180047320 f i insertShapeUtilsCore.obj
 0001:00046350       ?Reset@?$Polygon@HHH@@QEAAXXZ 0000000180047350 f i insertShapeUtilsCore.obj
 0001:00046380       ?Reset@?$ScanLine@HHE@@UEAAXXZ 0000000180047380 f i insertShapeUtilsCore.obj
 0001:000463b0       ?Reset@?$ScanLine@HHH@@UEAAXXZ 00000001800473b0 f i insertShapeUtilsCore.obj
 0001:000463e0       ?ResetFillColorOpacityIndices@?$DrawCommon@EEHHMMEE@@IEAAXXZ 00000001800473e0 f i insertShapeUtilsCore.obj
 0001:00046410       ?ResetFillColorOpacityIndices@?$DrawCommon@EEHHMMEH@@IEAAXXZ 0000000180047410 f i insertShapeUtilsCore.obj
 0001:00046440       ?ResetFillColorOpacityIndices@?$DrawCommon@FFHHMMEE@@IEAAXXZ 0000000180047440 f i insertShapeUtilsCore.obj
 0001:00046470       ?ResetFillColorOpacityIndices@?$DrawCommon@FFHHMMEH@@IEAAXXZ 0000000180047470 f i insertShapeUtilsCore.obj
 0001:000464a0       ?ResetFillColorOpacityIndices@?$DrawCommon@GGHHMMEE@@IEAAXXZ 00000001800474a0 f i insertShapeUtilsCore.obj
 0001:000464d0       ?ResetFillColorOpacityIndices@?$DrawCommon@GGHHMMEH@@IEAAXXZ 00000001800474d0 f i insertShapeUtilsCore.obj
 0001:00046500       ?ResetFillColorOpacityIndices@?$DrawCommon@MMHHMMEE@@IEAAXXZ 0000000180047500 f i insertShapeUtilsCore.obj
 0001:00046530       ?ResetFillColorOpacityIndices@?$DrawCommon@MMHHMMEH@@IEAAXXZ 0000000180047530 f i insertShapeUtilsCore.obj
 0001:00046560       ?ResetFillColorOpacityIndices@?$DrawCommon@NNHHNNEE@@IEAAXXZ 0000000180047560 f i insertShapeUtilsCore.obj
 0001:00046590       ?ResetFillColorOpacityIndices@?$DrawCommon@NNHHNNEH@@IEAAXXZ 0000000180047590 f i insertShapeUtilsCore.obj
 0001:000465c0       ?ResetStates@?$Polygon@HHE@@AEAAXXZ 00000001800475c0 f i insertShapeUtilsCore.obj
 0001:00046610       ?ResetStates@?$Polygon@HHH@@AEAAXXZ 0000000180047610 f i insertShapeUtilsCore.obj
 0001:00046660       ?SortEdges@?$Polygon@HHE@@AEAAXHHH@Z 0000000180047660 f i insertShapeUtilsCore.obj
 0001:000467c0       ?SortEdges@?$Polygon@HHH@@AEAAXHHH@Z 00000001800477c0 f i insertShapeUtilsCore.obj
 0001:00046920       ?SwapValues@?$BresenhamLine@HE@@AEAAXAEAH0@Z 0000000180047920 f i insertShapeUtilsCore.obj
 0001:00046960       ?SwapValues@?$BresenhamLine@HH@@AEAAXAEAH0@Z 0000000180047960 f i insertShapeUtilsCore.obj
 0001:000469a0       ?UpdateFillColor@DrawBase@@UEAAXPEAX@Z 00000001800479a0 f i insertShapeUtilsCore.obj
 0001:000469b0       ?UpdateFillColorOpacity@?$DrawCommon@EEHHMMEE@@UEAAXE@Z 00000001800479b0 f i insertShapeUtilsCore.obj
 0001:00046be0       ?UpdateFillColorOpacity@?$DrawCommon@EEHHMMEH@@UEAAXE@Z 0000000180047be0 f i insertShapeUtilsCore.obj
 0001:00046e10       ?UpdateFillColorOpacity@?$DrawCommon@FFHHMMEE@@UEAAXE@Z 0000000180047e10 f i insertShapeUtilsCore.obj
 0001:00047040       ?UpdateFillColorOpacity@?$DrawCommon@FFHHMMEH@@UEAAXE@Z 0000000180048040 f i insertShapeUtilsCore.obj
 0001:00047270       ?UpdateFillColorOpacity@?$DrawCommon@GGHHMMEE@@UEAAXE@Z 0000000180048270 f i insertShapeUtilsCore.obj
 0001:000474a0       ?UpdateFillColorOpacity@?$DrawCommon@GGHHMMEH@@UEAAXE@Z 00000001800484a0 f i insertShapeUtilsCore.obj
 0001:000476d0       ?UpdateFillColorOpacity@?$DrawCommon@MMHHMMEE@@UEAAXE@Z 00000001800486d0 f i insertShapeUtilsCore.obj
 0001:00047900       ?UpdateFillColorOpacity@?$DrawCommon@MMHHMMEH@@UEAAXE@Z 0000000180048900 f i insertShapeUtilsCore.obj
 0001:00047b30       ?UpdateFillColorOpacity@?$DrawCommon@NNHHNNEE@@UEAAXE@Z 0000000180048b30 f i insertShapeUtilsCore.obj
 0001:00047d60       ?UpdateFillColorOpacity@?$DrawCommon@NNHHNNEH@@UEAAXE@Z 0000000180048d60 f i insertShapeUtilsCore.obj
 0001:00047f90       ?UpdateFillColorSrc@DrawBase@@UEAAXPEAX@Z 0000000180048f90 f i insertShapeUtilsCore.obj
 0001:00047fa0       ?UpdateImageBoundary@?$DrawCommon@EEHHMMEE@@UEAAXHH@Z 0000000180048fa0 f i insertShapeUtilsCore.obj
 0001:00048000       ?UpdateImageBoundary@?$DrawCommon@EEHHMMEH@@UEAAXHH@Z 0000000180049000 f i insertShapeUtilsCore.obj
 0001:00048060       ?UpdateImageBoundary@?$DrawCommon@FFHHMMEE@@UEAAXHH@Z 0000000180049060 f i insertShapeUtilsCore.obj
 0001:000480c0       ?UpdateImageBoundary@?$DrawCommon@FFHHMMEH@@UEAAXHH@Z 00000001800490c0 f i insertShapeUtilsCore.obj
 0001:00048120       ?UpdateImageBoundary@?$DrawCommon@GGHHMMEE@@UEAAXHH@Z 0000000180049120 f i insertShapeUtilsCore.obj
 0001:00048180       ?UpdateImageBoundary@?$DrawCommon@GGHHMMEH@@UEAAXHH@Z 0000000180049180 f i insertShapeUtilsCore.obj
 0001:000481e0       ?UpdateImageBoundary@?$DrawCommon@MMHHMMEE@@UEAAXHH@Z 00000001800491e0 f i insertShapeUtilsCore.obj
 0001:00048240       ?UpdateImageBoundary@?$DrawCommon@MMHHMMEH@@UEAAXHH@Z 0000000180049240 f i insertShapeUtilsCore.obj
 0001:000482a0       ?UpdateImageBoundary@?$DrawCommon@NNHHNNEE@@UEAAXHH@Z 00000001800492a0 f i insertShapeUtilsCore.obj
 0001:00048300       ?UpdateImageBoundary@?$DrawCommon@NNHHNNEH@@UEAAXHH@Z 0000000180049300 f i insertShapeUtilsCore.obj
 0001:00048360       ?UpdateImageBoundary@DrawBase@@UEAAXHH@Z 0000000180049360 f i insertShapeUtilsCore.obj
 0001:00048370       ?UpdateLineWidthSrc@?$DrawCommon@EEHHMMEE@@UEAAXPEAH@Z 0000000180049370 f i insertShapeUtilsCore.obj
 0001:00048390       ?UpdateLineWidthSrc@?$DrawCommon@EEHHMMEH@@UEAAXPEAH@Z 0000000180049390 f i insertShapeUtilsCore.obj
 0001:000483b0       ?UpdateLineWidthSrc@?$DrawCommon@FFHHMMEE@@UEAAXPEAH@Z 00000001800493b0 f i insertShapeUtilsCore.obj
 0001:000483d0       ?UpdateLineWidthSrc@?$DrawCommon@FFHHMMEH@@UEAAXPEAH@Z 00000001800493d0 f i insertShapeUtilsCore.obj
 0001:000483f0       ?UpdateLineWidthSrc@?$DrawCommon@GGHHMMEE@@UEAAXPEAH@Z 00000001800493f0 f i insertShapeUtilsCore.obj
 0001:00048410       ?UpdateLineWidthSrc@?$DrawCommon@GGHHMMEH@@UEAAXPEAH@Z 0000000180049410 f i insertShapeUtilsCore.obj
 0001:00048430       ?UpdateLineWidthSrc@?$DrawCommon@MMHHMMEE@@UEAAXPEAH@Z 0000000180049430 f i insertShapeUtilsCore.obj
 0001:00048450       ?UpdateLineWidthSrc@?$DrawCommon@MMHHMMEH@@UEAAXPEAH@Z 0000000180049450 f i insertShapeUtilsCore.obj
 0001:00048470       ?UpdateLineWidthSrc@?$DrawCommon@NNHHNNEE@@UEAAXPEAH@Z 0000000180049470 f i insertShapeUtilsCore.obj
 0001:00048490       ?UpdateLineWidthSrc@?$DrawCommon@NNHHNNEH@@UEAAXPEAH@Z 0000000180049490 f i insertShapeUtilsCore.obj
 0001:000484b0       ?UpdateLineWidthSrc@DrawBase@@UEAAXPEAH@Z 00000001800494b0 f i insertShapeUtilsCore.obj
 0001:000484c0       ?UpdateNumFillColor@?$DrawCommon@EEHHMMEE@@UEAAXH@Z 00000001800494c0 f i insertShapeUtilsCore.obj
 0001:000484e0       ?UpdateNumFillColor@?$DrawCommon@EEHHMMEH@@UEAAXH@Z 00000001800494e0 f i insertShapeUtilsCore.obj
 0001:00048500       ?UpdateNumFillColor@?$DrawCommon@FFHHMMEE@@UEAAXH@Z 0000000180049500 f i insertShapeUtilsCore.obj
 0001:00048520       ?UpdateNumFillColor@?$DrawCommon@FFHHMMEH@@UEAAXH@Z 0000000180049520 f i insertShapeUtilsCore.obj
 0001:00048540       ?UpdateNumFillColor@?$DrawCommon@GGHHMMEE@@UEAAXH@Z 0000000180049540 f i insertShapeUtilsCore.obj
 0001:00048560       ?UpdateNumFillColor@?$DrawCommon@GGHHMMEH@@UEAAXH@Z 0000000180049560 f i insertShapeUtilsCore.obj
 0001:00048580       ?UpdateNumFillColor@?$DrawCommon@MMHHMMEE@@UEAAXH@Z 0000000180049580 f i insertShapeUtilsCore.obj
 0001:000485a0       ?UpdateNumFillColor@?$DrawCommon@MMHHMMEH@@UEAAXH@Z 00000001800495a0 f i insertShapeUtilsCore.obj
 0001:000485c0       ?UpdateNumFillColor@?$DrawCommon@NNHHNNEE@@UEAAXH@Z 00000001800495c0 f i insertShapeUtilsCore.obj
 0001:000485e0       ?UpdateNumFillColor@?$DrawCommon@NNHHNNEH@@UEAAXH@Z 00000001800495e0 f i insertShapeUtilsCore.obj
 0001:00048600       ?UpdateNumFillColor@DrawBase@@UEAAXH@Z 0000000180049600 f i insertShapeUtilsCore.obj
 0001:00048610       ?UpdateNumOpacity@?$DrawCommon@EEHHMMEE@@UEAAXH@Z 0000000180049610 f i insertShapeUtilsCore.obj
 0001:00048630       ?UpdateNumOpacity@?$DrawCommon@EEHHMMEH@@UEAAXH@Z 0000000180049630 f i insertShapeUtilsCore.obj
 0001:00048650       ?UpdateNumOpacity@?$DrawCommon@FFHHMMEE@@UEAAXH@Z 0000000180049650 f i insertShapeUtilsCore.obj
 0001:00048670       ?UpdateNumOpacity@?$DrawCommon@FFHHMMEH@@UEAAXH@Z 0000000180049670 f i insertShapeUtilsCore.obj
 0001:00048690       ?UpdateNumOpacity@?$DrawCommon@GGHHMMEE@@UEAAXH@Z 0000000180049690 f i insertShapeUtilsCore.obj
 0001:000486b0       ?UpdateNumOpacity@?$DrawCommon@GGHHMMEH@@UEAAXH@Z 00000001800496b0 f i insertShapeUtilsCore.obj
 0001:000486d0       ?UpdateNumOpacity@?$DrawCommon@MMHHMMEE@@UEAAXH@Z 00000001800496d0 f i insertShapeUtilsCore.obj
 0001:000486f0       ?UpdateNumOpacity@?$DrawCommon@MMHHMMEH@@UEAAXH@Z 00000001800496f0 f i insertShapeUtilsCore.obj
 0001:00048710       ?UpdateNumOpacity@?$DrawCommon@NNHHNNEE@@UEAAXH@Z 0000000180049710 f i insertShapeUtilsCore.obj
 0001:00048730       ?UpdateNumOpacity@?$DrawCommon@NNHHNNEH@@UEAAXH@Z 0000000180049730 f i insertShapeUtilsCore.obj
 0001:00048750       ?UpdateNumOpacity@DrawBase@@UEAAXH@Z 0000000180049750 f i insertShapeUtilsCore.obj
 0001:00048760       ?UpdateNumShape@?$DrawCommon@EEHHMMEE@@UEAAXH@Z 0000000180049760 f i insertShapeUtilsCore.obj
 0001:00048780       ?UpdateNumShape@?$DrawCommon@EEHHMMEH@@UEAAXH@Z 0000000180049780 f i insertShapeUtilsCore.obj
 0001:000487a0       ?UpdateNumShape@?$DrawCommon@FFHHMMEE@@UEAAXH@Z 00000001800497a0 f i insertShapeUtilsCore.obj
 0001:000487c0       ?UpdateNumShape@?$DrawCommon@FFHHMMEH@@UEAAXH@Z 00000001800497c0 f i insertShapeUtilsCore.obj
 0001:000487e0       ?UpdateNumShape@?$DrawCommon@GGHHMMEE@@UEAAXH@Z 00000001800497e0 f i insertShapeUtilsCore.obj
 0001:00048800       ?UpdateNumShape@?$DrawCommon@GGHHMMEH@@UEAAXH@Z 0000000180049800 f i insertShapeUtilsCore.obj
 0001:00048820       ?UpdateNumShape@?$DrawCommon@MMHHMMEE@@UEAAXH@Z 0000000180049820 f i insertShapeUtilsCore.obj
 0001:00048840       ?UpdateNumShape@?$DrawCommon@MMHHMMEH@@UEAAXH@Z 0000000180049840 f i insertShapeUtilsCore.obj
 0001:00048860       ?UpdateNumShape@?$DrawCommon@NNHHNNEE@@UEAAXH@Z 0000000180049860 f i insertShapeUtilsCore.obj
 0001:00048880       ?UpdateNumShape@?$DrawCommon@NNHHNNEH@@UEAAXH@Z 0000000180049880 f i insertShapeUtilsCore.obj
 0001:000488a0       ?UpdateNumShape@DrawBase@@UEAAXH@Z 00000001800498a0 f i insertShapeUtilsCore.obj
 0001:000488b0       ?UpdateNumSubShape@?$DrawCommon@EEHHMMEE@@UEAAXH@Z 00000001800498b0 f i insertShapeUtilsCore.obj
 0001:000488d0       ?UpdateNumSubShape@?$DrawCommon@EEHHMMEH@@UEAAXH@Z 00000001800498d0 f i insertShapeUtilsCore.obj
 0001:000488f0       ?UpdateNumSubShape@?$DrawCommon@FFHHMMEE@@UEAAXH@Z 00000001800498f0 f i insertShapeUtilsCore.obj
 0001:00048910       ?UpdateNumSubShape@?$DrawCommon@FFHHMMEH@@UEAAXH@Z 0000000180049910 f i insertShapeUtilsCore.obj
 0001:00048930       ?UpdateNumSubShape@?$DrawCommon@GGHHMMEE@@UEAAXH@Z 0000000180049930 f i insertShapeUtilsCore.obj
 0001:00048950       ?UpdateNumSubShape@?$DrawCommon@GGHHMMEH@@UEAAXH@Z 0000000180049950 f i insertShapeUtilsCore.obj
 0001:00048970       ?UpdateNumSubShape@?$DrawCommon@MMHHMMEE@@UEAAXH@Z 0000000180049970 f i insertShapeUtilsCore.obj
 0001:00048990       ?UpdateNumSubShape@?$DrawCommon@MMHHMMEH@@UEAAXH@Z 0000000180049990 f i insertShapeUtilsCore.obj
 0001:000489b0       ?UpdateNumSubShape@?$DrawCommon@NNHHNNEE@@UEAAXH@Z 00000001800499b0 f i insertShapeUtilsCore.obj
 0001:000489d0       ?UpdateNumSubShape@?$DrawCommon@NNHHNNEH@@UEAAXH@Z 00000001800499d0 f i insertShapeUtilsCore.obj
 0001:000489f0       ?UpdateNumSubShape@DrawBase@@UEAAXH@Z 00000001800499f0 f i insertShapeUtilsCore.obj
 0001:00048a00       ?UpdateOpacity@DrawBase@@UEAAXPEAX@Z 0000000180049a00 f i insertShapeUtilsCore.obj
 0001:00048a10       ?UpdateOpacitySrc@DrawBase@@UEAAXPEAX@Z 0000000180049a10 f i insertShapeUtilsCore.obj
 0001:00048a20       ?UpdatePolygonNumbers@?$Polygon@HHE@@QEAAXHHH@Z 0000000180049a20 f i insertShapeUtilsCore.obj
 0001:00048a60       ?UpdatePolygonNumbers@?$Polygon@HHH@@QEAAXHHH@Z 0000000180049a60 f i insertShapeUtilsCore.obj
 0001:00048aa0       ?UpdatePolygonNumbers@?$ScanLineBase@HHE@@QEAAXHHH@Z 0000000180049aa0 f i insertShapeUtilsCore.obj
 0001:00048ae0       ?UpdatePolygonNumbers@?$ScanLineBase@HHH@@QEAAXHHH@Z 0000000180049ae0 f i insertShapeUtilsCore.obj
 0001:00048b20       ?UpdateSize@?$DrawCommon@EEHHMMEE@@UEAAXPEAX@Z 0000000180049b20 f i insertShapeUtilsCore.obj
 0001:00048b40       ?UpdateSize@?$DrawCommon@EEHHMMEH@@UEAAXPEAX@Z 0000000180049b40 f i insertShapeUtilsCore.obj
 0001:00048b60       ?UpdateSize@?$DrawCommon@FFHHMMEE@@UEAAXPEAX@Z 0000000180049b60 f i insertShapeUtilsCore.obj
 0001:00048b80       ?UpdateSize@?$DrawCommon@FFHHMMEH@@UEAAXPEAX@Z 0000000180049b80 f i insertShapeUtilsCore.obj
 0001:00048ba0       ?UpdateSize@?$DrawCommon@GGHHMMEE@@UEAAXPEAX@Z 0000000180049ba0 f i insertShapeUtilsCore.obj
 0001:00048bc0       ?UpdateSize@?$DrawCommon@GGHHMMEH@@UEAAXPEAX@Z 0000000180049bc0 f i insertShapeUtilsCore.obj
 0001:00048be0       ?UpdateSize@?$DrawCommon@MMHHMMEE@@UEAAXPEAX@Z 0000000180049be0 f i insertShapeUtilsCore.obj
 0001:00048c00       ?UpdateSize@?$DrawCommon@MMHHMMEH@@UEAAXPEAX@Z 0000000180049c00 f i insertShapeUtilsCore.obj
 0001:00048c20       ?UpdateSize@?$DrawCommon@NNHHNNEE@@UEAAXPEAX@Z 0000000180049c20 f i insertShapeUtilsCore.obj
 0001:00048c40       ?UpdateSize@?$DrawCommon@NNHHNNEH@@UEAAXPEAX@Z 0000000180049c40 f i insertShapeUtilsCore.obj
 0001:00048c60       ?UpdateSize@DrawBase@@UEAAXPEAX@Z 0000000180049c60 f i insertShapeUtilsCore.obj
 0001:00048c70       ?UpdateViewPort@?$DrawCommon@EEHHMMEE@@UEAAXPEAH@Z 0000000180049c70 f i insertShapeUtilsCore.obj
 0001:00048cd0       ?UpdateViewPort@?$DrawCommon@EEHHMMEH@@UEAAXPEAH@Z 0000000180049cd0 f i insertShapeUtilsCore.obj
 0001:00048d30       ?UpdateViewPort@?$DrawCommon@FFHHMMEE@@UEAAXPEAH@Z 0000000180049d30 f i insertShapeUtilsCore.obj
 0001:00048d90       ?UpdateViewPort@?$DrawCommon@FFHHMMEH@@UEAAXPEAH@Z 0000000180049d90 f i insertShapeUtilsCore.obj
 0001:00048df0       ?UpdateViewPort@?$DrawCommon@GGHHMMEE@@UEAAXPEAH@Z 0000000180049df0 f i insertShapeUtilsCore.obj
 0001:00048e50       ?UpdateViewPort@?$DrawCommon@GGHHMMEH@@UEAAXPEAH@Z 0000000180049e50 f i insertShapeUtilsCore.obj
 0001:00048eb0       ?UpdateViewPort@?$DrawCommon@MMHHMMEE@@UEAAXPEAH@Z 0000000180049eb0 f i insertShapeUtilsCore.obj
 0001:00048f10       ?UpdateViewPort@?$DrawCommon@MMHHMMEH@@UEAAXPEAH@Z 0000000180049f10 f i insertShapeUtilsCore.obj
 0001:00048f70       ?UpdateViewPort@?$DrawCommon@NNHHNNEE@@UEAAXPEAH@Z 0000000180049f70 f i insertShapeUtilsCore.obj
 0001:00048fd0       ?UpdateViewPort@?$DrawCommon@NNHHNNEH@@UEAAXPEAH@Z 0000000180049fd0 f i insertShapeUtilsCore.obj
 0001:00049030       ?UpdateViewPort@?$ScanLineBase@HHE@@QEAAXHHHH@Z 000000018004a030 f i insertShapeUtilsCore.obj
 0001:000490b0       ?UpdateViewPort@?$ScanLineBase@HHH@@QEAAXHHHH@Z 000000018004a0b0 f i insertShapeUtilsCore.obj
 0001:00049130       ?UpdateViewPort@DrawBase@@UEAAXPEAH@Z 000000018004a130 f i insertShapeUtilsCore.obj
 0001:00049140       ?UpdateViewPortSub@?$DrawCommon@EEHHMMEE@@AEAAXXZ 000000018004a140 f i insertShapeUtilsCore.obj
 0001:00049210       ?UpdateViewPortSub@?$DrawCommon@EEHHMMEH@@AEAAXXZ 000000018004a210 f i insertShapeUtilsCore.obj
 0001:000492e0       ?UpdateViewPortSub@?$DrawCommon@FFHHMMEE@@AEAAXXZ 000000018004a2e0 f i insertShapeUtilsCore.obj
 0001:000493b0       ?UpdateViewPortSub@?$DrawCommon@FFHHMMEH@@AEAAXXZ 000000018004a3b0 f i insertShapeUtilsCore.obj
 0001:00049480       ?UpdateViewPortSub@?$DrawCommon@GGHHMMEE@@AEAAXXZ 000000018004a480 f i insertShapeUtilsCore.obj
 0001:00049550       ?UpdateViewPortSub@?$DrawCommon@GGHHMMEH@@AEAAXXZ 000000018004a550 f i insertShapeUtilsCore.obj
 0001:00049620       ?UpdateViewPortSub@?$DrawCommon@MMHHMMEE@@AEAAXXZ 000000018004a620 f i insertShapeUtilsCore.obj
 0001:000496f0       ?UpdateViewPortSub@?$DrawCommon@MMHHMMEH@@AEAAXXZ 000000018004a6f0 f i insertShapeUtilsCore.obj
 0001:000497c0       ?UpdateViewPortSub@?$DrawCommon@NNHHNNEE@@AEAAXXZ 000000018004a7c0 f i insertShapeUtilsCore.obj
 0001:00049890       ?UpdateViewPortSub@?$DrawCommon@NNHHNNEH@@AEAAXXZ 000000018004a890 f i insertShapeUtilsCore.obj
 0001:00049960       ?UpsamplePoints@?$Polygon@HHE@@AEAAXAEAH000E@Z 000000018004a960 f i insertShapeUtilsCore.obj
 0001:00049980       ?UpsamplePoints@?$Polygon@HHH@@AEAAXAEAH000H@Z 000000018004a980 f i insertShapeUtilsCore.obj
 0001:000499f0       ?cast@@YAXPEAEHPEBM@Z      000000018004a9f0 f i insertShapeUtilsCore.obj
 0001:00049a20       ?cast@@YAXPEAFHPEBM@Z      000000018004aa20 f i insertShapeUtilsCore.obj
 0001:00049a50       ?cast@@YAXPEAGHPEBM@Z      000000018004aa50 f i insertShapeUtilsCore.obj
 0001:00049a90       ?cast@@YAXPEAMHPEBM@Z      000000018004aa90 f i insertShapeUtilsCore.obj
 0001:00049ad0       ?cast@@YAXPEANHPEBN@Z      000000018004aad0 f i insertShapeUtilsCore.obj
 0001:00049b10       ?converPolygonPts2TwoPolygonPts@?$DrawFilledPolygon@EEHHMMEE@@AEAAXXZ 000000018004ab10 f i insertShapeUtilsCore.obj
 0001:0004a250       ?converPolygonPts2TwoPolygonPts@?$DrawFilledPolygon@EEHHMMEH@@AEAAXXZ 000000018004b250 f i insertShapeUtilsCore.obj
 0001:0004a990       ?converPolygonPts2TwoPolygonPts@?$DrawFilledPolygon@FFHHMMEE@@AEAAXXZ 000000018004b990 f i insertShapeUtilsCore.obj
 0001:0004b0d0       ?converPolygonPts2TwoPolygonPts@?$DrawFilledPolygon@FFHHMMEH@@AEAAXXZ 000000018004c0d0 f i insertShapeUtilsCore.obj
 0001:0004b810       ?converPolygonPts2TwoPolygonPts@?$DrawFilledPolygon@GGHHMMEE@@AEAAXXZ 000000018004c810 f i insertShapeUtilsCore.obj
 0001:0004bf50       ?converPolygonPts2TwoPolygonPts@?$DrawFilledPolygon@GGHHMMEH@@AEAAXXZ 000000018004cf50 f i insertShapeUtilsCore.obj
 0001:0004c690       ?converPolygonPts2TwoPolygonPts@?$DrawFilledPolygon@MMHHMMEE@@AEAAXXZ 000000018004d690 f i insertShapeUtilsCore.obj
 0001:0004cdd0       ?converPolygonPts2TwoPolygonPts@?$DrawFilledPolygon@MMHHMMEH@@AEAAXXZ 000000018004ddd0 f i insertShapeUtilsCore.obj
 0001:0004d510       ?converPolygonPts2TwoPolygonPts@?$DrawFilledPolygon@NNHHNNEE@@AEAAXXZ 000000018004e510 f i insertShapeUtilsCore.obj
 0001:0004dc50       ?converPolygonPts2TwoPolygonPts@?$DrawFilledPolygon@NNHHNNEH@@AEAAXXZ 000000018004ec50 f i insertShapeUtilsCore.obj
 0001:0004e390       ?convertLinePts2PolygonPts@?$DrawFilledPolygon@EEHHMMEE@@AEAAXXZ 000000018004f390 f i insertShapeUtilsCore.obj
 0001:0004ef90       ?convertLinePts2PolygonPts@?$DrawFilledPolygon@EEHHMMEH@@AEAAXXZ 000000018004ff90 f i insertShapeUtilsCore.obj
 0001:0004fb90       ?convertLinePts2PolygonPts@?$DrawFilledPolygon@FFHHMMEE@@AEAAXXZ 0000000180050b90 f i insertShapeUtilsCore.obj
 0001:00050790       ?convertLinePts2PolygonPts@?$DrawFilledPolygon@FFHHMMEH@@AEAAXXZ 0000000180051790 f i insertShapeUtilsCore.obj
 0001:00051390       ?convertLinePts2PolygonPts@?$DrawFilledPolygon@GGHHMMEE@@AEAAXXZ 0000000180052390 f i insertShapeUtilsCore.obj
 0001:00051f90       ?convertLinePts2PolygonPts@?$DrawFilledPolygon@GGHHMMEH@@AEAAXXZ 0000000180052f90 f i insertShapeUtilsCore.obj
 0001:00052b90       ?convertLinePts2PolygonPts@?$DrawFilledPolygon@MMHHMMEE@@AEAAXXZ 0000000180053b90 f i insertShapeUtilsCore.obj
 0001:00053790       ?convertLinePts2PolygonPts@?$DrawFilledPolygon@MMHHMMEH@@AEAAXXZ 0000000180054790 f i insertShapeUtilsCore.obj
 0001:00054390       ?convertLinePts2PolygonPts@?$DrawFilledPolygon@NNHHNNEE@@AEAAXXZ 0000000180055390 f i insertShapeUtilsCore.obj
 0001:00054f90       ?convertLinePts2PolygonPts@?$DrawFilledPolygon@NNHHNNEH@@AEAAXXZ 0000000180055f90 f i insertShapeUtilsCore.obj
 0001:00055b90       ?findPointOfIntersection@?$DrawFilledPolygon@EEHHMMEE@@AEAAXEPEAM0AEAH1W4Paral_T@@2HH@Z 0000000180056b90 f i insertShapeUtilsCore.obj
 0001:00055f30       ?findPointOfIntersection@?$DrawFilledPolygon@EEHHMMEH@@AEAAXEPEAM0AEAH1W4Paral_T@@2HH@Z 0000000180056f30 f i insertShapeUtilsCore.obj
 0001:000562d0       ?findPointOfIntersection@?$DrawFilledPolygon@FFHHMMEE@@AEAAXEPEAM0AEAH1W4Paral_T@@2HH@Z 00000001800572d0 f i insertShapeUtilsCore.obj
 0001:00056670       ?findPointOfIntersection@?$DrawFilledPolygon@FFHHMMEH@@AEAAXEPEAM0AEAH1W4Paral_T@@2HH@Z 0000000180057670 f i insertShapeUtilsCore.obj
 0001:00056a10       ?findPointOfIntersection@?$DrawFilledPolygon@GGHHMMEE@@AEAAXEPEAM0AEAH1W4Paral_T@@2HH@Z 0000000180057a10 f i insertShapeUtilsCore.obj
 0001:00056db0       ?findPointOfIntersection@?$DrawFilledPolygon@GGHHMMEH@@AEAAXEPEAM0AEAH1W4Paral_T@@2HH@Z 0000000180057db0 f i insertShapeUtilsCore.obj
 0001:00057150       ?findPointOfIntersection@?$DrawFilledPolygon@MMHHMMEE@@AEAAXEPEAM0AEAH1W4Paral_T@@2HH@Z 0000000180058150 f i insertShapeUtilsCore.obj
 0001:000574f0       ?findPointOfIntersection@?$DrawFilledPolygon@MMHHMMEH@@AEAAXEPEAM0AEAH1W4Paral_T@@2HH@Z 00000001800584f0 f i insertShapeUtilsCore.obj
 0001:00057890       ?findPointOfIntersection@?$DrawFilledPolygon@NNHHNNEE@@AEAAXEPEAN0AEAH1W4Paral_T@@2HH@Z 0000000180058890 f i insertShapeUtilsCore.obj
 0001:00057c30       ?findPointOfIntersection@?$DrawFilledPolygon@NNHHNNEH@@AEAAXEPEAN0AEAH1W4Paral_T@@2HH@Z 0000000180058c30 f i insertShapeUtilsCore.obj
 0001:00057fd0       ?findPointOfIntersectionNormal@?$DrawFilledPolygon@EEHHMMEE@@AEAAXEPEAMAEAH1W4Paral_T@@@Z 0000000180058fd0 f i insertShapeUtilsCore.obj
 0001:00058260       ?findPointOfIntersectionNormal@?$DrawFilledPolygon@EEHHMMEH@@AEAAXEPEAMAEAH1W4Paral_T@@@Z 0000000180059260 f i insertShapeUtilsCore.obj
 0001:000584f0       ?findPointOfIntersectionNormal@?$DrawFilledPolygon@FFHHMMEE@@AEAAXEPEAMAEAH1W4Paral_T@@@Z 00000001800594f0 f i insertShapeUtilsCore.obj
 0001:00058780       ?findPointOfIntersectionNormal@?$DrawFilledPolygon@FFHHMMEH@@AEAAXEPEAMAEAH1W4Paral_T@@@Z 0000000180059780 f i insertShapeUtilsCore.obj
 0001:00058a10       ?findPointOfIntersectionNormal@?$DrawFilledPolygon@GGHHMMEE@@AEAAXEPEAMAEAH1W4Paral_T@@@Z 0000000180059a10 f i insertShapeUtilsCore.obj
 0001:00058ca0       ?findPointOfIntersectionNormal@?$DrawFilledPolygon@GGHHMMEH@@AEAAXEPEAMAEAH1W4Paral_T@@@Z 0000000180059ca0 f i insertShapeUtilsCore.obj
 0001:00058f30       ?findPointOfIntersectionNormal@?$DrawFilledPolygon@MMHHMMEE@@AEAAXEPEAMAEAH1W4Paral_T@@@Z 0000000180059f30 f i insertShapeUtilsCore.obj
 0001:000591c0       ?findPointOfIntersectionNormal@?$DrawFilledPolygon@MMHHMMEH@@AEAAXEPEAMAEAH1W4Paral_T@@@Z 000000018005a1c0 f i insertShapeUtilsCore.obj
 0001:00059450       ?findPointOfIntersectionNormal@?$DrawFilledPolygon@NNHHNNEE@@AEAAXEPEANAEAH1W4Paral_T@@@Z 000000018005a450 f i insertShapeUtilsCore.obj
 0001:000596f0       ?findPointOfIntersectionNormal@?$DrawFilledPolygon@NNHHNNEH@@AEAAXEPEANAEAH1W4Paral_T@@@Z 000000018005a6f0 f i insertShapeUtilsCore.obj
 0001:00059990       ?floor@@YAMM@Z             000000018005a990 f i insertShapeUtilsCore.obj
 0001:000599c0       ?getCoordinate@?$Polygon@HHE@@AEAAHH@Z 000000018005a9c0 f i insertShapeUtilsCore.obj
 0001:00059a10       ?getCoordinate@?$Polygon@HHH@@AEAAHH@Z 000000018005aa10 f i insertShapeUtilsCore.obj
 0001:00059a60       ?getLineParams@?$DrawFilledPolygon@EEHHMMEE@@AEAAXHHHHHHPEAMAEAW4Paral_T@@@Z 000000018005aa60 f i insertShapeUtilsCore.obj
 0001:0005a050       ?getLineParams@?$DrawFilledPolygon@EEHHMMEH@@AEAAXHHHHHHPEAMAEAW4Paral_T@@@Z 000000018005b050 f i insertShapeUtilsCore.obj
 0001:0005a640       ?getLineParams@?$DrawFilledPolygon@FFHHMMEE@@AEAAXHHHHHHPEAMAEAW4Paral_T@@@Z 000000018005b640 f i insertShapeUtilsCore.obj
 0001:0005ac30       ?getLineParams@?$DrawFilledPolygon@FFHHMMEH@@AEAAXHHHHHHPEAMAEAW4Paral_T@@@Z 000000018005bc30 f i insertShapeUtilsCore.obj
 0001:0005b220       ?getLineParams@?$DrawFilledPolygon@GGHHMMEE@@AEAAXHHHHHHPEAMAEAW4Paral_T@@@Z 000000018005c220 f i insertShapeUtilsCore.obj
 0001:0005b810       ?getLineParams@?$DrawFilledPolygon@GGHHMMEH@@AEAAXHHHHHHPEAMAEAW4Paral_T@@@Z 000000018005c810 f i insertShapeUtilsCore.obj
 0001:0005be00       ?getLineParams@?$DrawFilledPolygon@MMHHMMEE@@AEAAXHHHHHHPEAMAEAW4Paral_T@@@Z 000000018005ce00 f i insertShapeUtilsCore.obj
 0001:0005c3f0       ?getLineParams@?$DrawFilledPolygon@MMHHMMEH@@AEAAXHHHHHHPEAMAEAW4Paral_T@@@Z 000000018005d3f0 f i insertShapeUtilsCore.obj
 0001:0005c9e0       ?getLineParams@?$DrawFilledPolygon@NNHHNNEE@@AEAAXHHHHHHPEANAEAW4Paral_T@@@Z 000000018005d9e0 f i insertShapeUtilsCore.obj
 0001:0005cfe0       ?getLineParams@?$DrawFilledPolygon@NNHHNNEH@@AEAAXHHHHHHPEANAEAW4Paral_T@@@Z 000000018005dfe0 f i insertShapeUtilsCore.obj
 0001:0005d5e0       ?idxCol@?$Polygon@HHE@@AEAAHHH@Z 000000018005e5e0 f i insertShapeUtilsCore.obj
 0001:0005d630       ?idxCol@?$Polygon@HHH@@AEAAHHH@Z 000000018005e630 f i insertShapeUtilsCore.obj
 0001:0005d680       ?idxNextPoint@?$Polygon@HHE@@AEAAHH@Z 000000018005e680 f i insertShapeUtilsCore.obj
 0001:0005d6c0       ?idxNextPoint@?$Polygon@HHH@@AEAAHH@Z 000000018005e6c0 f i insertShapeUtilsCore.obj
 0001:0005d700       ?idxRow@?$Polygon@HHE@@AEAAHHH@Z 000000018005e700 f i insertShapeUtilsCore.obj
 0001:0005d750       ?idxRow@?$Polygon@HHH@@AEAAHHH@Z 000000018005e750 f i insertShapeUtilsCore.obj
 0001:0005d7a0       ?isValidPair@?$DrawFilledPolygon@EEHHMMEE@@AEAAEHHHHHHPEAM0W4Paral_T@@1@Z 000000018005e7a0 f i insertShapeUtilsCore.obj
 0001:0005d9c0       ?isValidPair@?$DrawFilledPolygon@EEHHMMEH@@AEAAEHHHHHHPEAM0W4Paral_T@@1@Z 000000018005e9c0 f i insertShapeUtilsCore.obj
 0001:0005dbe0       ?isValidPair@?$DrawFilledPolygon@FFHHMMEE@@AEAAEHHHHHHPEAM0W4Paral_T@@1@Z 000000018005ebe0 f i insertShapeUtilsCore.obj
 0001:0005de00       ?isValidPair@?$DrawFilledPolygon@FFHHMMEH@@AEAAEHHHHHHPEAM0W4Paral_T@@1@Z 000000018005ee00 f i insertShapeUtilsCore.obj
 0001:0005e020       ?isValidPair@?$DrawFilledPolygon@GGHHMMEE@@AEAAEHHHHHHPEAM0W4Paral_T@@1@Z 000000018005f020 f i insertShapeUtilsCore.obj
 0001:0005e240       ?isValidPair@?$DrawFilledPolygon@GGHHMMEH@@AEAAEHHHHHHPEAM0W4Paral_T@@1@Z 000000018005f240 f i insertShapeUtilsCore.obj
 0001:0005e460       ?isValidPair@?$DrawFilledPolygon@MMHHMMEE@@AEAAEHHHHHHPEAM0W4Paral_T@@1@Z 000000018005f460 f i insertShapeUtilsCore.obj
 0001:0005e680       ?isValidPair@?$DrawFilledPolygon@MMHHMMEH@@AEAAEHHHHHHPEAM0W4Paral_T@@1@Z 000000018005f680 f i insertShapeUtilsCore.obj
 0001:0005e8a0       ?isValidPair@?$DrawFilledPolygon@NNHHNNEE@@AEAAEHHHHHHPEAN0W4Paral_T@@1@Z 000000018005f8a0 f i insertShapeUtilsCore.obj
 0001:0005eac0       ?isValidPair@?$DrawFilledPolygon@NNHHNNEH@@AEAAEHHHHHHPEAN0W4Paral_T@@1@Z 000000018005fac0 f i insertShapeUtilsCore.obj
 0001:0005ece0       ?is_RightOfLine_CtrToRef@?$DrawFilledPolygon@EEHHMMEE@@AEAAEUXY_T@@00@Z 000000018005fce0 f i insertShapeUtilsCore.obj
 0001:0005ee00       ?is_RightOfLine_CtrToRef@?$DrawFilledPolygon@EEHHMMEH@@AEAAEUXY_T@@00@Z 000000018005fe00 f i insertShapeUtilsCore.obj
 0001:0005ef20       ?is_RightOfLine_CtrToRef@?$DrawFilledPolygon@FFHHMMEE@@AEAAEUXY_T@@00@Z 000000018005ff20 f i insertShapeUtilsCore.obj
 0001:0005f040       ?is_RightOfLine_CtrToRef@?$DrawFilledPolygon@FFHHMMEH@@AEAAEUXY_T@@00@Z 0000000180060040 f i insertShapeUtilsCore.obj
 0001:0005f160       ?is_RightOfLine_CtrToRef@?$DrawFilledPolygon@GGHHMMEE@@AEAAEUXY_T@@00@Z 0000000180060160 f i insertShapeUtilsCore.obj
 0001:0005f280       ?is_RightOfLine_CtrToRef@?$DrawFilledPolygon@GGHHMMEH@@AEAAEUXY_T@@00@Z 0000000180060280 f i insertShapeUtilsCore.obj
 0001:0005f3a0       ?is_RightOfLine_CtrToRef@?$DrawFilledPolygon@MMHHMMEE@@AEAAEUXY_T@@00@Z 00000001800603a0 f i insertShapeUtilsCore.obj
 0001:0005f4c0       ?is_RightOfLine_CtrToRef@?$DrawFilledPolygon@MMHHMMEH@@AEAAEUXY_T@@00@Z 00000001800604c0 f i insertShapeUtilsCore.obj
 0001:0005f5e0       ?is_RightOfLine_CtrToRef@?$DrawFilledPolygon@NNHHNNEE@@AEAAEUXY_T@@00@Z 00000001800605e0 f i insertShapeUtilsCore.obj
 0001:0005f700       ?is_RightOfLine_CtrToRef@?$DrawFilledPolygon@NNHHNNEH@@AEAAEUXY_T@@00@Z 0000000180060700 f i insertShapeUtilsCore.obj
 0001:0005f820       ?lclAssign@?$DrawFilledPolygon@EEHHMMEE@@AEAAXAEAMH@Z 0000000180060820 f i insertShapeUtilsCore.obj
 0001:0005f840       ?lclAssign@?$DrawFilledPolygon@EEHHMMEH@@AEAAXAEAMH@Z 0000000180060840 f i insertShapeUtilsCore.obj
 0001:0005f860       ?lclAssign@?$DrawFilledPolygon@FFHHMMEE@@AEAAXAEAMH@Z 0000000180060860 f i insertShapeUtilsCore.obj
 0001:0005f880       ?lclAssign@?$DrawFilledPolygon@FFHHMMEH@@AEAAXAEAMH@Z 0000000180060880 f i insertShapeUtilsCore.obj
 0001:0005f8a0       ?lclAssign@?$DrawFilledPolygon@GGHHMMEE@@AEAAXAEAMH@Z 00000001800608a0 f i insertShapeUtilsCore.obj
 0001:0005f8c0       ?lclAssign@?$DrawFilledPolygon@GGHHMMEH@@AEAAXAEAMH@Z 00000001800608c0 f i insertShapeUtilsCore.obj
 0001:0005f8e0       ?lclAssign@?$DrawFilledPolygon@MMHHMMEE@@AEAAXAEAMH@Z 00000001800608e0 f i insertShapeUtilsCore.obj
 0001:0005f900       ?lclAssign@?$DrawFilledPolygon@MMHHMMEH@@AEAAXAEAMH@Z 0000000180060900 f i insertShapeUtilsCore.obj
 0001:0005f920       ?lclAssign@?$DrawFilledPolygon@NNHHNNEE@@AEAAXAEANH@Z 0000000180060920 f i insertShapeUtilsCore.obj
 0001:0005f940       ?lclAssign@?$DrawFilledPolygon@NNHHNNEH@@AEAAXAEANH@Z 0000000180060940 f i insertShapeUtilsCore.obj
 0001:0005f960       ?lclDSPFixptDivide@?$DrawFilledPolygon@EEHHMMEE@@AEAAXAEAMAEBM1@Z 0000000180060960 f i insertShapeUtilsCore.obj
 0001:0005f990       ?lclDSPFixptDivide@?$DrawFilledPolygon@EEHHMMEH@@AEAAXAEAMAEBM1@Z 0000000180060990 f i insertShapeUtilsCore.obj
 0001:0005f9c0       ?lclDSPFixptDivide@?$DrawFilledPolygon@FFHHMMEE@@AEAAXAEAMAEBM1@Z 00000001800609c0 f i insertShapeUtilsCore.obj
 0001:0005f9f0       ?lclDSPFixptDivide@?$DrawFilledPolygon@FFHHMMEH@@AEAAXAEAMAEBM1@Z 00000001800609f0 f i insertShapeUtilsCore.obj
 0001:0005fa20       ?lclDSPFixptDivide@?$DrawFilledPolygon@GGHHMMEE@@AEAAXAEAMAEBM1@Z 0000000180060a20 f i insertShapeUtilsCore.obj
 0001:0005fa50       ?lclDSPFixptDivide@?$DrawFilledPolygon@GGHHMMEH@@AEAAXAEAMAEBM1@Z 0000000180060a50 f i insertShapeUtilsCore.obj
 0001:0005fa80       ?lclDSPFixptDivide@?$DrawFilledPolygon@MMHHMMEE@@AEAAXAEAMAEBM1@Z 0000000180060a80 f i insertShapeUtilsCore.obj
 0001:0005fab0       ?lclDSPFixptDivide@?$DrawFilledPolygon@MMHHMMEH@@AEAAXAEAMAEBM1@Z 0000000180060ab0 f i insertShapeUtilsCore.obj
 0001:0005fae0       ?lclDSPFixptDivide@?$DrawFilledPolygon@NNHHNNEE@@AEAAXAEANAEBN1@Z 0000000180060ae0 f i insertShapeUtilsCore.obj
 0001:0005fb10       ?lclDSPFixptDivide@?$DrawFilledPolygon@NNHHNNEH@@AEAAXAEANAEBN1@Z 0000000180060b10 f i insertShapeUtilsCore.obj
 0001:0005fb40       ?lclDSPFixptSqrt@?$DrawFilledPolygon@EEHHMMEE@@AEAAXAEAMM@Z 0000000180060b40 f i insertShapeUtilsCore.obj
 0001:0005fb70       ?lclDSPFixptSqrt@?$DrawFilledPolygon@EEHHMMEH@@AEAAXAEAMM@Z 0000000180060b70 f i insertShapeUtilsCore.obj
 0001:0005fba0       ?lclDSPFixptSqrt@?$DrawFilledPolygon@FFHHMMEE@@AEAAXAEAMM@Z 0000000180060ba0 f i insertShapeUtilsCore.obj
 0001:0005fbd0       ?lclDSPFixptSqrt@?$DrawFilledPolygon@FFHHMMEH@@AEAAXAEAMM@Z 0000000180060bd0 f i insertShapeUtilsCore.obj
 0001:0005fc00       ?lclDSPFixptSqrt@?$DrawFilledPolygon@GGHHMMEE@@AEAAXAEAMM@Z 0000000180060c00 f i insertShapeUtilsCore.obj
 0001:0005fc30       ?lclDSPFixptSqrt@?$DrawFilledPolygon@GGHHMMEH@@AEAAXAEAMM@Z 0000000180060c30 f i insertShapeUtilsCore.obj
 0001:0005fc60       ?lclDSPFixptSqrt@?$DrawFilledPolygon@MMHHMMEE@@AEAAXAEAMM@Z 0000000180060c60 f i insertShapeUtilsCore.obj
 0001:0005fc90       ?lclDSPFixptSqrt@?$DrawFilledPolygon@MMHHMMEH@@AEAAXAEAMM@Z 0000000180060c90 f i insertShapeUtilsCore.obj
 0001:0005fcc0       ?lclDSPFixptSqrt@?$DrawFilledPolygon@NNHHNNEE@@AEAAXAEANN@Z 0000000180060cc0 f i insertShapeUtilsCore.obj
 0001:0005fcf0       ?lclDSPFixptSqrt@?$DrawFilledPolygon@NNHHNNEH@@AEAAXAEANN@Z 0000000180060cf0 f i insertShapeUtilsCore.obj
 0001:0005fd20       ?nearest@?$DrawFilledPolygon@EEHHMMEE@@AEAAHM@Z 0000000180060d20 f i insertShapeUtilsCore.obj
 0001:0005fdb0       ?nearest@?$DrawFilledPolygon@EEHHMMEH@@AEAAHM@Z 0000000180060db0 f i insertShapeUtilsCore.obj
 0001:0005fe40       ?nearest@?$DrawFilledPolygon@FFHHMMEE@@AEAAHM@Z 0000000180060e40 f i insertShapeUtilsCore.obj
 0001:0005fed0       ?nearest@?$DrawFilledPolygon@FFHHMMEH@@AEAAHM@Z 0000000180060ed0 f i insertShapeUtilsCore.obj
 0001:0005ff60       ?nearest@?$DrawFilledPolygon@GGHHMMEE@@AEAAHM@Z 0000000180060f60 f i insertShapeUtilsCore.obj
 0001:0005fff0       ?nearest@?$DrawFilledPolygon@GGHHMMEH@@AEAAHM@Z 0000000180060ff0 f i insertShapeUtilsCore.obj
 0001:00060080       ?nearest@?$DrawFilledPolygon@MMHHMMEE@@AEAAHM@Z 0000000180061080 f i insertShapeUtilsCore.obj
 0001:00060110       ?nearest@?$DrawFilledPolygon@MMHHMMEH@@AEAAHM@Z 0000000180061110 f i insertShapeUtilsCore.obj
 0001:000601a0       ?nearest@?$DrawFilledPolygon@NNHHNNEE@@AEAAHN@Z 00000001800611a0 f i insertShapeUtilsCore.obj
 0001:00060230       ?nearest@?$DrawFilledPolygon@NNHHNNEH@@AEAAHN@Z 0000000180061230 f i insertShapeUtilsCore.obj
 0001:000602c0       ?sqrt@@YAMM@Z              00000001800612c0 f i insertShapeUtilsCore.obj
 0001:000602f0       ?multiplyEqual@@YAXPEANHPEBNH@Z 00000001800612f0 f   cvstDraw.obj
 0001:00060340       ?multiplyEqual@@YAXPEAMHPEBMH@Z 0000000180061340 f   cvstDraw.obj
 0001:00060390       ?multiplyEqual@@YAXPEAEHPEBMH@Z 0000000180061390 f   cvstDraw.obj
 0001:00060400       ?multiplyEqual@@YAXPEAGHPEBMH@Z 0000000180061400 f   cvstDraw.obj
 0001:00060470       ?multiplyEqual@@YAXPEAFHPEBMH@Z 0000000180061470 f   cvstDraw.obj
 0001:000604d0       ?checkAntiAlias@@YAEHE@Z   00000001800614d0 f   insertShapeAndMarkerUtils.obj
 0001:00060500       ?isLineWidthApplicable@@YAEHE@Z 0000000180061500 f   insertShapeAndMarkerUtils.obj
 0001:00060540       ?useFillShapePolygonCodeX@@YAEHEE@Z 0000000180061540 f   insertShapeAndMarkerUtils.obj
 0001:000605a0       ?isLineOrNonFilledPolygon@@YAEHE@Z 00000001800615a0 f   insertShapeAndMarkerUtils.obj
 0001:000605f0       ?drawShapes@@YAXPEAPEAVDrawBase@@EEHHHH@Z 00000001800615f0 f   insertShapeAndMarkerUtils.obj
 0001:00060740       ?copyInputImageToOutput@@YAXPEAXPEBX_K@Z 0000000180061740 f   insertShapeAndMarkerUtils.obj
 0001:0006076c       rgb2hsv_tbb_uint8          000000018006176c f   libmwrgb2hsv_tbb:libmwrgb2hsv_tbb.dll
 0001:00060772       sf_load_rtw_optimization_info 0000000180061772 f   sf_runtime:sf_runtime.dll
 0001:00060778       sf_mex_decode              0000000180061778 f   sf_runtime:sf_runtime.dll
 0001:0006077e       sf_init_ChartRunTimeInfo   000000018006177e f   sf_runtime:sf_runtime.dll
 0001:00060784       sf_free_ChartRunTimeInfo   0000000180061784 f   sf_runtime:sf_runtime.dll
 0001:0006078a       sfrtGetEmlrtCtx            000000018006178a f   sf_runtime:sf_runtime.dll
 0001:00060790       sfrtGetCovrtInstance       0000000180061790 f   sf_runtime:sf_runtime.dll
 0001:00060796       sf_get_chart_instance_ptr  0000000180061796 f   sf_runtime:sf_runtime.dll
 0001:0006079c       sim_mode_is_rtw_gen        000000018006179c f   sf_runtime:sf_runtime.dll
 0001:000607a2       sim_mode_is_external       00000001800617a2 f   sf_runtime:sf_runtime.dll
 0001:000607a8       sf_clear_rtw_identifier    00000001800617a8 f   sf_runtime:sf_runtime.dll
 0001:000607ae       sf_get_time                00000001800617ae f   sf_runtime:sf_runtime.dll
 0001:000607b4       sfDoAnimationWrapper       00000001800617b4 f   sf_runtime:sf_runtime.dll
 0001:000607ba       setDataBrowseFcn           00000001800617ba f   sf_runtime:sf_runtime.dll
 0001:000607c0       setLegacyDebuggerFlag      00000001800617c0 f   sf_runtime:sf_runtime.dll
 0001:000607c6       setDebuggerFlag            00000001800617c6 f   sf_runtime:sf_runtime.dll
 0001:000607cc       sf_warn_if_symbolic_dimension_param_changed 00000001800617cc f   sf_runtime:sf_runtime.dll
 0001:000607d2       sf_set_work_widths         00000001800617d2 f   sf_runtime:sf_runtime.dll
 0001:000607d8       sf_error_out_about_continuous_sample_time_with_persistent_vars 00000001800617d8 f   sf_runtime:sf_runtime.dll
 0001:000607de       sfListenerCacheSimStruct   00000001800617de f   sf_runtime:sf_runtime.dll
 0001:000607e4       sfListenerLightTerminate   00000001800617e4 f   sf_runtime:sf_runtime.dll
 0001:000607ea       sfListenerInitializeRuntimeVars 00000001800617ea f   sf_runtime:sf_runtime.dll
 0001:000607f0       sf_mex_call                00000001800617f0 f   sf_runtime:sf_runtime.dll
 0001:000607f6       sf_mex_error_message       00000001800617f6 f   sf_runtime:sf_runtime.dll
 0001:000607fc       sf_mex_create              00000001800617fc f   sf_runtime:sf_runtime.dll
 0001:00060802       sf_mex_createcellmatrix    0000000180061802 f   sf_runtime:sf_runtime.dll
 0001:00060808       sf_mex_setcell             0000000180061808 f   sf_runtime:sf_runtime.dll
 0001:0006080e       sf_mex_getcell             000000018006180e f   sf_runtime:sf_runtime.dll
 0001:00060814       sf_mex_assign              0000000180061814 f   sf_runtime:sf_runtime.dll
 0001:0006081a       sf_mex_dup                 000000018006181a f   sf_runtime:sf_runtime.dll
 0001:00060820       sf_mex_destroy             0000000180061820 f   sf_runtime:sf_runtime.dll
 0001:00060826       sf_mex_import              0000000180061826 f   sf_runtime:sf_runtime.dll
 0001:0006082c       ssGetInputPortSignal_wrapper 000000018006182c f   sf_runtime:sf_runtime.dll
 0001:00060832       ssGetOutputPortSignal_wrapper 0000000180061832 f   sf_runtime:sf_runtime.dll
 0001:00060838       sf_data_saturate_error     0000000180061838 f   sf_runtime:sf_runtime.dll
 0001:0006083e       sf_get_ChartInfoStruct_CodeGen 000000018006183e f   sf_runtime:sf_runtime.dll
 0001:00060844       sf_get_hasSeparateUpdateOutputs 0000000180061844 f   sf_runtime:sf_runtime.dll
 0001:0006084a       callMdlMethodAndReportError 000000018006184a f   sf_runtime:sf_runtime.dll
 0001:00060850       call_sf_machine_global_method_dispatcher 0000000180061850 f   sf_runtime:sf_runtime.dll
 0001:00060856       getRuntimeInstanceInfoAsVoid 0000000180061856 f   sf_runtime:sf_runtime.dll
 0001:0006085c       sf_mex_error_direct_call   000000018006185c f   sf_runtime:sf_runtime.dll
 0001:00060862       sf_clear_error_manager_info 0000000180061862 f   sf_runtime:sf_runtime.dll
 0001:00060868       mxIsChar_800               0000000180061868 f   libmx:libmx.dll
 0001:0006086e       mxGetScalar_800            000000018006186e f   libmx:libmx.dll
 0001:00060874       mxGetPr_800                0000000180061874 f   libmx:libmx.dll
 0001:0006087a       mxDestroyArray_800         000000018006187a f   libmx:libmx.dll
 0001:00060880       mxCreateDoubleMatrix_800   0000000180061880 f   libmx:libmx.dll
 0001:00060886       mxGetString_800            0000000180061886 f   libmx:libmx.dll
 0001:0006088c       mxDuplicateArray_800       000000018006188c f   libmx:libmx.dll
 0001:00060892       mxSetCell_800              0000000180061892 f   libmx:libmx.dll
 0001:00060898       mxSetField_800             0000000180061898 f   libmx:libmx.dll
 0001:0006089e       mxCreateString_800         000000018006189e f   libmx:libmx.dll
 0001:000608a4       mxCreateCellMatrix_800     00000001800618a4 f   libmx:libmx.dll
 0001:000608aa       mxCreateStructMatrix_800   00000001800618aa f   libmx:libmx.dll
 0001:000608b0       mxCalloc_800               00000001800618b0 f   libmx:libmx.dll
 0001:000608b6       mxGetM_800                 00000001800618b6 f   libmx:libmx.dll
 0001:000608bc       mxGetClassID_800           00000001800618bc f   libmx:libmx.dll
 0001:000608c2       mxIsNumeric_800            00000001800618c2 f   libmx:libmx.dll
 0001:000608c8       mxIsComplex_800            00000001800618c8 f   libmx:libmx.dll
 0001:000608ce       mxGetN_800                 00000001800618ce f   libmx:libmx.dll
 0001:000608d4       mxCreateDoubleScalar_800   00000001800618d4 f   libmx:libmx.dll
 0001:000608da       mexMakeArrayPersistent_800 00000001800618da f   libmex:libmex.dll
 0001:000608e0       mexErrMsgTxt_800           00000001800618e0 f   libmex:libmex.dll
 0001:000608e6       mexWarnMsgTxt_800          00000001800618e6 f   libmex:libmex.dll
 0001:000608ec       mexCallMATLAB_800          00000001800618ec f   libmex:libmex.dll
 0001:000608f2       mexLock_800                00000001800618f2 f   libmex:libmex.dll
 0001:000608f8       mexUnlock_800              00000001800618f8 f   libmex:libmex.dll
 0001:000608fe       mexIsLocked_800            00000001800618fe f   libmex:libmex.dll
 0001:00060904       utMalloc                   0000000180061904 f   libut:libut.dll
 0001:0006090a       utFree                     000000018006190a f   libut:libut.dll
 0001:00060910       muDoubleScalarRound        0000000180061910 f   libmwmathutil:libmwmathutil.dll
 0001:00060916       emlrtLicenseCheckR2012b    0000000180061916 f   libemlrt:libemlrt.dll
 0001:0006091c       emlrtHeapReferenceStackEnterFcnR2012b 000000018006191c f   libemlrt:libemlrt.dll
 0001:00060922       emlrtHeapReferenceStackLeaveFcnR2012b 0000000180061922 f   libemlrt:libemlrt.dll
 0001:00060928       emlrtPushHeapReferenceStackR2018aSL 0000000180061928 f   libemlrt:libemlrt.dll
 0001:0006092e       covrtCreateStateflowInstanceData 000000018006192e f   libcovrt:libcovrt.dll
 0001:00060934       covrtDeleteStateflowInstanceData 0000000180061934 f   libcovrt:libcovrt.dll
 0001:0006093a       covrtTransInitFcn          000000018006193a f   libcovrt:libcovrt.dll
 0001:00060940       covrtStateInitFcn          0000000180061940 f   libcovrt:libcovrt.dll
 0001:00060946       covrtChartInitFcn          0000000180061946 f   libcovrt:libcovrt.dll
 0001:0006094c       covrtSigUpdateFcn          000000018006194c f   libcovrt:libcovrt.dll
 0001:00060952       covrtEmlInitFcn            0000000180061952 f   libcovrt:libcovrt.dll
 0001:00060958       covrtEmlFcnInitFcn         0000000180061958 f   libcovrt:libcovrt.dll
 0001:0006095e       covrtEmlFcnEval            000000018006195e f   libcovrt:libcovrt.dll
 0001:00060964       __raise_securityfailure    0000000180061964 f   MSVCRT:gs_report.obj
 0001:00060998       __report_gsfailure         0000000180061998 f   MSVCRT:gs_report.obj
 0001:00060a6c       __report_rangecheckfailure 0000000180061a6c f   MSVCRT:gs_report.obj
 0001:00060a80       __report_securityfailure   0000000180061a80 f   MSVCRT:gs_report.obj
 0001:00060b1c       __report_securityfailureEx 0000000180061b1c f   MSVCRT:gs_report.obj
 0001:00060d10       __GSHandlerCheck           0000000180061d10 f   MSVCRT:_gshandler_.obj
 0001:00060d30       __GSHandlerCheckCommon     0000000180061d30 f   MSVCRT:_gshandler_.obj
 0001:00060da0       __security_check_cookie    0000000180061da0 f   MSVCRT:_amdsecgs_.obj
 0001:00060de0       _alloca_probe              0000000180061de0 f   MSVCRT:_chkstk_.obj
 0001:00060de0       __chkstk                   0000000180061de0 f   MSVCRT:_chkstk_.obj
 0001:00060e34       ??2@YAPEAX_K@Z             0000000180061e34 f   MSVCRT:new_scalar.obj
 0001:00060e70       ??3@YAXPEAX_K@Z            0000000180061e70 f   MSVCRT:delete_scalar_size.obj
 0001:00060e78       ??_U@YAPEAX_K@Z            0000000180061e78 f   MSVCRT:new_array.obj
 0001:00060e80       ??_V@YAXPEAX@Z             0000000180061e80 f   MSVCRT:delete_array.obj
 0001:00060e88       ??1type_info@@UEAA@XZ      0000000180061e88 f   MSVCRT:std_type_info_static.obj
 0001:00060e94       ??_Etype_info@@UEAAPEAXI@Z 0000000180061e94 f i MSVCRT:std_type_info_static.obj
 0001:00060e94       ??_Gtype_info@@UEAAPEAXI@Z 0000000180061e94 f i MSVCRT:std_type_info_static.obj
 0001:0006120c       _CRT_INIT                  000000018006220c f   MSVCRT:dll_dllmain.obj
 0001:00061214       _DllMainCRTStartup         0000000180062214 f   MSVCRT:dll_dllmain.obj
 0001:00061254       ??0bad_alloc@std@@AEAA@QEBD@Z 0000000180062254 f i MSVCRT:throw_bad_alloc.obj
 0001:0006126c       ??0bad_alloc@std@@QEAA@AEBV01@@Z 000000018006226c f i MSVCRT:throw_bad_alloc.obj
 0001:000612ac       ??0bad_alloc@std@@QEAA@XZ  00000001800622ac f i MSVCRT:throw_bad_alloc.obj
 0001:000612cc       ??0bad_array_new_length@std@@QEAA@AEBV01@@Z 00000001800622cc f i MSVCRT:throw_bad_alloc.obj
 0001:0006130c       ??0bad_array_new_length@std@@QEAA@XZ 000000018006230c f i MSVCRT:throw_bad_alloc.obj
 0001:0006132c       ??0exception@std@@QEAA@AEBV01@@Z 000000018006232c f i MSVCRT:throw_bad_alloc.obj
 0001:00061364       ??0exception@std@@QEAA@QEBDH@Z 0000000180062364 f i MSVCRT:throw_bad_alloc.obj
 0001:0006137c       ??1bad_alloc@std@@UEAA@XZ  000000018006237c f i MSVCRT:throw_bad_alloc.obj
 0001:00061390       ??1bad_array_new_length@std@@UEAA@XZ 0000000180062390 f i MSVCRT:throw_bad_alloc.obj
 0001:000613a4       ??1exception@std@@UEAA@XZ  00000001800623a4 f i MSVCRT:throw_bad_alloc.obj
 0001:000613b8       ??_Gbad_alloc@std@@UEAAPEAXI@Z 00000001800623b8 f i MSVCRT:throw_bad_alloc.obj
 0001:000613b8       ??_Ebad_alloc@std@@UEAAPEAXI@Z 00000001800623b8 f i MSVCRT:throw_bad_alloc.obj
 0001:000613fc       ??_Gbad_array_new_length@std@@UEAAPEAXI@Z 00000001800623fc f i MSVCRT:throw_bad_alloc.obj
 0001:000613fc       ??_Ebad_array_new_length@std@@UEAAPEAXI@Z 00000001800623fc f i MSVCRT:throw_bad_alloc.obj
 0001:00061440       ??_Eexception@std@@UEAAPEAXI@Z 0000000180062440 f i MSVCRT:throw_bad_alloc.obj
 0001:00061440       ??_Gexception@std@@UEAAPEAXI@Z 0000000180062440 f i MSVCRT:throw_bad_alloc.obj
 0001:00061484       ?__scrt_throw_std_bad_alloc@@YAXXZ 0000000180062484 f   MSVCRT:throw_bad_alloc.obj
 0001:000614a4       ?__scrt_throw_std_bad_array_new_length@@YAXXZ 00000001800624a4 f   MSVCRT:throw_bad_alloc.obj
 0001:000614c4       ?what@exception@std@@UEBAPEBDXZ 00000001800624c4 f i MSVCRT:throw_bad_alloc.obj
 0001:000614d8       ??3@YAXPEAX@Z              00000001800624d8 f   MSVCRT:delete_scalar.obj
 0001:000614e0       ??$__crt_fast_decode_pointer@PEAP6AXXZ@@YAPEAP6AXXZQEAP6AXXZ@Z 00000001800624e0 f i MSVCRT:utility.obj
 0001:000614f8       ??$__crt_fast_encode_pointer@PEAP6AXXZ@@YAPEAP6AXXZQEAP6AXXZ@Z 00000001800624f8 f i MSVCRT:utility.obj
 0001:00061518       ?__crt_rotate_pointer_value@@YA_K_KH@Z 0000000180062518 f i MSVCRT:utility.obj
 0001:00061524       ?configure_argv@__scrt_narrow_argv_policy@@SAHXZ 0000000180062524 f i MSVCRT:utility.obj
 0001:000615b4       NtCurrentTeb               00000001800625b4 f i MSVCRT:utility.obj
 0001:000615c0       __scrt_acquire_startup_lock 00000001800625c0 f   MSVCRT:utility.obj
 0001:000615fc       __scrt_dllmain_after_initialize_c 00000001800625fc f   MSVCRT:utility.obj
 0001:00061630       __scrt_dllmain_before_initialize_c 0000000180062630 f   MSVCRT:utility.obj
 0001:00061648       __scrt_dllmain_crt_thread_attach 0000000180062648 f   MSVCRT:utility.obj
 0001:00061670       __scrt_dllmain_crt_thread_detach 0000000180062670 f   MSVCRT:utility.obj
 0001:00061688       __scrt_dllmain_exception_filter 0000000180062688 f   MSVCRT:utility.obj
 0001:000616ec       __scrt_dllmain_uninitialize_c 00000001800626ec f   MSVCRT:utility.obj
 0001:0006171c       __scrt_dllmain_uninitialize_critical 000000018006271c f   MSVCRT:utility.obj
 0001:00061730       __scrt_initialize_crt      0000000180062730 f   MSVCRT:utility.obj
 0001:0006177c       __scrt_initialize_onexit_tables 000000018006277c f   MSVCRT:utility.obj
 0001:00061848       __scrt_is_nonwritable_in_current_image 0000000180062848 f   MSVCRT:utility.obj
 0001:000618e4       __scrt_release_startup_lock 00000001800628e4 f   MSVCRT:utility.obj
 0001:00061908       __scrt_uninitialize_crt    0000000180062908 f   MSVCRT:utility.obj
 0001:00061934       _onexit                    0000000180062934 f   MSVCRT:utility.obj
 0001:00061984       at_quick_exit              0000000180062984 f   MSVCRT:utility.obj
 0001:000619bc       atexit                     00000001800629bc f   MSVCRT:utility.obj
 0001:000619d4       __security_init_cookie     00000001800629d4 f   MSVCRT:gs_support.obj
 0001:00061a80       DllMain                    0000000180062a80 f   MSVCRT:dll_dllmain_stub.obj
 0001:00061aa4       ?__scrt_initialize_type_info@@YAXXZ 0000000180062aa4 f   MSVCRT:tncleanup.obj
 0001:00061ab4       ?__scrt_uninitialize_type_info@@YAXXZ 0000000180062ab4 f   MSVCRT:tncleanup.obj
 0001:00061ac0       __local_stdio_scanf_options 0000000180062ac0 f i MSVCRT:default_local_stdio_options.obj
 0001:00061ac8       __scrt_initialize_default_local_stdio_options 0000000180062ac8 f   MSVCRT:default_local_stdio_options.obj
 0001:00061ae4       __scrt_get_dyn_tls_init_callback 0000000180062ae4 f   MSVCRT:dyn_tls_init.obj
 0001:00061aec       __crt_debugger_hook        0000000180062aec f   MSVCRT:utility_desktop.obj
 0001:00061af4       __scrt_fastfail            0000000180062af4 f   MSVCRT:utility_desktop.obj
 0001:00061c3c       __scrt_get_show_window_mode 0000000180062c3c f   MSVCRT:utility_desktop.obj
 0001:00061c78       __scrt_initialize_winrt    0000000180062c78 f   MSVCRT:utility_desktop.obj
 0001:00061c7c       __scrt_is_managed_app      0000000180062c7c f   MSVCRT:utility_desktop.obj
 0001:00061cd0       __scrt_set_unhandled_exception_filter 0000000180062cd0 f   MSVCRT:utility_desktop.obj
 0001:00061ce0       __scrt_unhandled_exception_filter 0000000180062ce0 f   MSVCRT:utility_desktop.obj
 0001:00061d18       _RTC_Initialize            0000000180062d18 f   MSVCRT:_initsect_.obj
 0001:00061d64       _RTC_Terminate             0000000180062d64 f   MSVCRT:_initsect_.obj
 0001:00061db0       _guard_check_icall         0000000180062db0 f i MSVCRT:checkcfg.obj
 0001:00061db8       __isa_available_init       0000000180062db8 f   MSVCRT:_cpu_disp_.obj
 0001:00061f80       _get_startup_argv_mode     0000000180062f80 f   MSVCRT:argv_mode.obj
 0001:00061f88       __scrt_is_ucrt_dll_in_use  0000000180062f88 f   MSVCRT:ucrt_detection.obj
 0001:00061f94       _guard_check_icall_nop     0000000180062f94 f i MSVCRT:guard_support.obj
 0001:00061f98       _guard_icall_checks_enforced 0000000180062f98 f i MSVCRT:guard_support.obj
 0001:00061fb0       RtlCaptureContext          0000000180062fb0 f   kernel32:KERNEL32.dll
 0001:00061fb6       RtlLookupFunctionEntry     0000000180062fb6 f   kernel32:KERNEL32.dll
 0001:00061fbc       RtlVirtualUnwind           0000000180062fbc f   kernel32:KERNEL32.dll
 0001:00061fc2       UnhandledExceptionFilter   0000000180062fc2 f   kernel32:KERNEL32.dll
 0001:00061fc8       SetUnhandledExceptionFilter 0000000180062fc8 f   kernel32:KERNEL32.dll
 0001:00061fce       GetCurrentProcess          0000000180062fce f   kernel32:KERNEL32.dll
 0001:00061fd4       TerminateProcess           0000000180062fd4 f   kernel32:KERNEL32.dll
 0001:00061fda       IsProcessorFeaturePresent  0000000180062fda f   kernel32:KERNEL32.dll
 0001:00061fe0       QueryPerformanceCounter    0000000180062fe0 f   kernel32:KERNEL32.dll
 0001:00061fe6       GetCurrentProcessId        0000000180062fe6 f   kernel32:KERNEL32.dll
 0001:00061fec       GetCurrentThreadId         0000000180062fec f   kernel32:KERNEL32.dll
 0001:00061ff2       GetSystemTimeAsFileTime    0000000180062ff2 f   kernel32:KERNEL32.dll
 0001:00061ff8       DisableThreadLibraryCalls  0000000180062ff8 f   kernel32:KERNEL32.dll
 0001:00061ffe       InitializeSListHead        0000000180062ffe f   kernel32:KERNEL32.dll
 0001:00062004       IsDebuggerPresent          0000000180063004 f   kernel32:KERNEL32.dll
 0001:0006200a       GetStartupInfoW            000000018006300a f   kernel32:KERNEL32.dll
 0001:00062010       GetModuleHandleW           0000000180063010 f   kernel32:KERNEL32.dll
 0001:00062016       memset                     0000000180063016 f   vcruntime:VCRUNTIME140.dll
 0001:0006201c       memcpy                     000000018006301c f   vcruntime:VCRUNTIME140.dll
 0001:00062022       _purecall                  0000000180063022 f   vcruntime:VCRUNTIME140.dll
 0001:00062028       __CxxFrameHandler3         0000000180063028 f   vcruntime:VCRUNTIME140.dll
 0001:0006202e       __C_specific_handler       000000018006302e f   vcruntime:VCRUNTIME140.dll
 0001:00062034       __std_exception_copy       0000000180063034 f   vcruntime:VCRUNTIME140.dll
 0001:0006203a       __std_exception_destroy    000000018006303a f   vcruntime:VCRUNTIME140.dll
 0001:00062040       _CxxThrowException         0000000180063040 f   vcruntime:VCRUNTIME140.dll
 0001:00062046       __std_type_info_destroy_list 0000000180063046 f   vcruntime:VCRUNTIME140.dll
 0001:0006204c       strcmp                     000000018006304c f   ucrt:api-ms-win-crt-string-l1-1-0.dll
 0001:00062052       strcat                     0000000180063052 f   ucrt:api-ms-win-crt-string-l1-1-0.dll
 0001:00062058       __stdio_common_vsprintf    0000000180063058 f   ucrt:api-ms-win-crt-stdio-l1-1-0.dll
 0001:0006205e       free                       000000018006305e f   ucrt:api-ms-win-crt-heap-l1-1-0.dll
 0001:00062064       malloc                     0000000180063064 f   ucrt:api-ms-win-crt-heap-l1-1-0.dll
 0001:0006206a       strlen                     000000018006306a f   ucrt:api-ms-win-crt-string-l1-1-0.dll
 0001:00062070       sqrt                       0000000180063070 f   ucrt:api-ms-win-crt-math-l1-1-0.dll
 0001:00062076       floor                      0000000180063076 f   ucrt:api-ms-win-crt-math-l1-1-0.dll
 0001:0006207c       floorf                     000000018006307c f   ucrt:api-ms-win-crt-math-l1-1-0.dll
 0001:00062082       sqrtf                      0000000180063082 f   ucrt:api-ms-win-crt-math-l1-1-0.dll
 0001:00062088       _callnewh                  0000000180063088 f   ucrt:api-ms-win-crt-heap-l1-1-0.dll
 0001:0006208e       _initterm                  000000018006308e f   ucrt:api-ms-win-crt-runtime-l1-1-0.dll
 0001:00062094       _initterm_e                0000000180063094 f   ucrt:api-ms-win-crt-runtime-l1-1-0.dll
 0001:0006209a       _seh_filter_dll            000000018006309a f   ucrt:api-ms-win-crt-runtime-l1-1-0.dll
 0001:000620a0       _configure_narrow_argv     00000001800630a0 f   ucrt:api-ms-win-crt-runtime-l1-1-0.dll
 0001:000620a6       _initialize_narrow_environment 00000001800630a6 f   ucrt:api-ms-win-crt-runtime-l1-1-0.dll
 0001:000620ac       _initialize_onexit_table   00000001800630ac f   ucrt:api-ms-win-crt-runtime-l1-1-0.dll
 0001:000620b2       _register_onexit_function  00000001800630b2 f   ucrt:api-ms-win-crt-runtime-l1-1-0.dll
 0001:000620b8       _execute_onexit_table      00000001800630b8 f   ucrt:api-ms-win-crt-runtime-l1-1-0.dll
 0001:000620be       _crt_atexit                00000001800630be f   ucrt:api-ms-win-crt-runtime-l1-1-0.dll
 0001:000620c4       _crt_at_quick_exit         00000001800630c4 f   ucrt:api-ms-win-crt-runtime-l1-1-0.dll
 0001:000620ca       _cexit                     00000001800630ca f   ucrt:api-ms-win-crt-runtime-l1-1-0.dll
 0001:000620d0       terminate                  00000001800630d0 f   ucrt:api-ms-win-crt-runtime-l1-1-0.dll
 0001:000620d8       __vcrt_initialize          00000001800630d8 f   MSVCRT:ucrt_stubs.obj
 0001:000620d8       __scrt_stub_for_acrt_initialize 00000001800630d8 f   MSVCRT:ucrt_stubs.obj
 0001:000620d8       __acrt_initialize          00000001800630d8 f   MSVCRT:ucrt_stubs.obj
 0001:000620dc       __vcrt_thread_attach       00000001800630dc f   MSVCRT:ucrt_stubs.obj
 0001:000620dc       __acrt_thread_attach       00000001800630dc f   MSVCRT:ucrt_stubs.obj
 0001:000620dc       __scrt_stub_for_acrt_thread_attach 00000001800630dc f   MSVCRT:ucrt_stubs.obj
 0001:000620e0       __vcrt_thread_detach       00000001800630e0 f   MSVCRT:ucrt_stubs.obj
 0001:000620e0       __scrt_stub_for_acrt_thread_detach 00000001800630e0 f   MSVCRT:ucrt_stubs.obj
 0001:000620e0       __acrt_thread_detach       00000001800630e0 f   MSVCRT:ucrt_stubs.obj
 0001:000620e4       __scrt_stub_for_acrt_uninitialize 00000001800630e4 f   MSVCRT:ucrt_stubs.obj
 0001:000620e4       __acrt_uninitialize        00000001800630e4 f   MSVCRT:ucrt_stubs.obj
 0001:000620e4       __vcrt_uninitialize        00000001800630e4 f   MSVCRT:ucrt_stubs.obj
 0001:000620e8       __vcrt_uninitialize_critical 00000001800630e8 f   MSVCRT:ucrt_stubs.obj
 0001:000620e8       __scrt_stub_for_acrt_uninitialize_critical 00000001800630e8 f   MSVCRT:ucrt_stubs.obj
 0001:000620e8       __acrt_uninitialize_critical 00000001800630e8 f   MSVCRT:ucrt_stubs.obj
 0001:000620ec       __scrt_stub_for_is_c_termination_complete 00000001800630ec f   MSVCRT:ucrt_stubs.obj
 0001:000620ec       _is_c_termination_complete 00000001800630ec f   MSVCRT:ucrt_stubs.obj
 0001:00062100       _guard_dispatch_icall_nop  0000000180063100 f   MSVCRT:_guard_dispatch_.obj
 0002:00000000       __imp_GetStartupInfoW      0000000180064000     kernel32:KERNEL32.dll
 0002:00000008       __imp_RtlCaptureContext    0000000180064008     kernel32:KERNEL32.dll
 0002:00000010       __imp_QueryPerformanceCounter 0000000180064010     kernel32:KERNEL32.dll
 0002:00000018       __imp_GetCurrentProcessId  0000000180064018     kernel32:KERNEL32.dll
 0002:00000020       __imp_RtlLookupFunctionEntry 0000000180064020     kernel32:KERNEL32.dll
 0002:00000028       __imp_RtlVirtualUnwind     0000000180064028     kernel32:KERNEL32.dll
 0002:00000030       __imp_GetCurrentThreadId   0000000180064030     kernel32:KERNEL32.dll
 0002:00000038       __imp_GetSystemTimeAsFileTime 0000000180064038     kernel32:KERNEL32.dll
 0002:00000040       __imp_DisableThreadLibraryCalls 0000000180064040     kernel32:KERNEL32.dll
 0002:00000048       __imp_InitializeSListHead  0000000180064048     kernel32:KERNEL32.dll
 0002:00000050       __imp_IsDebuggerPresent    0000000180064050     kernel32:KERNEL32.dll
 0002:00000058       __imp_GetModuleHandleW     0000000180064058     kernel32:KERNEL32.dll
 0002:00000060       __imp_TerminateProcess     0000000180064060     kernel32:KERNEL32.dll
 0002:00000068       __imp_GetCurrentProcess    0000000180064068     kernel32:KERNEL32.dll
 0002:00000070       __imp_SetUnhandledExceptionFilter 0000000180064070     kernel32:KERNEL32.dll
 0002:00000078       __imp_IsProcessorFeaturePresent 0000000180064078     kernel32:KERNEL32.dll
 0002:00000080       __imp_UnhandledExceptionFilter 0000000180064080     kernel32:KERNEL32.dll
 0002:00000088       \177KERNEL32_NULL_THUNK_DATA 0000000180064088     kernel32:KERNEL32.dll
 0002:00000090       __imp___C_specific_handler 0000000180064090     vcruntime:VCRUNTIME140.dll
 0002:00000098       __imp_memset               0000000180064098     vcruntime:VCRUNTIME140.dll
 0002:000000a0       __imp_memcpy               00000001800640a0     vcruntime:VCRUNTIME140.dll
 0002:000000a8       __imp__purecall            00000001800640a8     vcruntime:VCRUNTIME140.dll
 0002:000000b0       __imp___CxxFrameHandler3   00000001800640b0     vcruntime:VCRUNTIME140.dll
 0002:000000b8       __imp___std_type_info_destroy_list 00000001800640b8     vcruntime:VCRUNTIME140.dll
 0002:000000c0       __imp__CxxThrowException   00000001800640c0     vcruntime:VCRUNTIME140.dll
 0002:000000c8       __imp___std_exception_copy 00000001800640c8     vcruntime:VCRUNTIME140.dll
 0002:000000d0       __imp___std_exception_destroy 00000001800640d0     vcruntime:VCRUNTIME140.dll
 0002:000000d8       \177VCRUNTIME140_NULL_THUNK_DATA 00000001800640d8     vcruntime:VCRUNTIME140.dll
 0002:000000e0       __imp_malloc               00000001800640e0     ucrt:api-ms-win-crt-heap-l1-1-0.dll
 0002:000000e8       __imp__callnewh            00000001800640e8     ucrt:api-ms-win-crt-heap-l1-1-0.dll
 0002:000000f0       __imp_free                 00000001800640f0     ucrt:api-ms-win-crt-heap-l1-1-0.dll
 0002:000000f8       \177api-ms-win-crt-heap-l1-1-0_NULL_THUNK_DATA 00000001800640f8     ucrt:api-ms-win-crt-heap-l1-1-0.dll
 0002:00000100       __imp_sqrtf                0000000180064100     ucrt:api-ms-win-crt-math-l1-1-0.dll
 0002:00000108       __imp_floorf               0000000180064108     ucrt:api-ms-win-crt-math-l1-1-0.dll
 0002:00000110       __imp_floor                0000000180064110     ucrt:api-ms-win-crt-math-l1-1-0.dll
 0002:00000118       __imp_sqrt                 0000000180064118     ucrt:api-ms-win-crt-math-l1-1-0.dll
 0002:00000120       \177api-ms-win-crt-math-l1-1-0_NULL_THUNK_DATA 0000000180064120     ucrt:api-ms-win-crt-math-l1-1-0.dll
 0002:00000128       __imp__initterm            0000000180064128     ucrt:api-ms-win-crt-runtime-l1-1-0.dll
 0002:00000130       __imp__initterm_e          0000000180064130     ucrt:api-ms-win-crt-runtime-l1-1-0.dll
 0002:00000138       __imp__initialize_onexit_table 0000000180064138     ucrt:api-ms-win-crt-runtime-l1-1-0.dll
 0002:00000140       __imp__seh_filter_dll      0000000180064140     ucrt:api-ms-win-crt-runtime-l1-1-0.dll
 0002:00000148       __imp__execute_onexit_table 0000000180064148     ucrt:api-ms-win-crt-runtime-l1-1-0.dll
 0002:00000150       __imp__crt_atexit          0000000180064150     ucrt:api-ms-win-crt-runtime-l1-1-0.dll
 0002:00000158       __imp__crt_at_quick_exit   0000000180064158     ucrt:api-ms-win-crt-runtime-l1-1-0.dll
 0002:00000160       __imp__cexit               0000000180064160     ucrt:api-ms-win-crt-runtime-l1-1-0.dll
 0002:00000168       __imp_terminate            0000000180064168     ucrt:api-ms-win-crt-runtime-l1-1-0.dll
 0002:00000170       __imp__configure_narrow_argv 0000000180064170     ucrt:api-ms-win-crt-runtime-l1-1-0.dll
 0002:00000178       __imp__register_onexit_function 0000000180064178     ucrt:api-ms-win-crt-runtime-l1-1-0.dll
 0002:00000180       __imp__initialize_narrow_environment 0000000180064180     ucrt:api-ms-win-crt-runtime-l1-1-0.dll
 0002:00000188       \177api-ms-win-crt-runtime-l1-1-0_NULL_THUNK_DATA 0000000180064188     ucrt:api-ms-win-crt-runtime-l1-1-0.dll
 0002:00000190       __imp___stdio_common_vsprintf 0000000180064190     ucrt:api-ms-win-crt-stdio-l1-1-0.dll
 0002:00000198       \177api-ms-win-crt-stdio-l1-1-0_NULL_THUNK_DATA 0000000180064198     ucrt:api-ms-win-crt-stdio-l1-1-0.dll
 0002:000001a0       __imp_strlen               00000001800641a0     ucrt:api-ms-win-crt-string-l1-1-0.dll
 0002:000001a8       __imp_strcat               00000001800641a8     ucrt:api-ms-win-crt-string-l1-1-0.dll
 0002:000001b0       __imp_strcmp               00000001800641b0     ucrt:api-ms-win-crt-string-l1-1-0.dll
 0002:000001b8       \177api-ms-win-crt-string-l1-1-0_NULL_THUNK_DATA 00000001800641b8     ucrt:api-ms-win-crt-string-l1-1-0.dll
 0002:000001c0       __imp_covrtDeleteStateflowInstanceData 00000001800641c0     libcovrt:libcovrt.dll
 0002:000001c8       __imp_covrtEmlFcnEval      00000001800641c8     libcovrt:libcovrt.dll
 0002:000001d0       __imp_covrtEmlFcnInitFcn   00000001800641d0     libcovrt:libcovrt.dll
 0002:000001d8       __imp_covrtEmlInitFcn      00000001800641d8     libcovrt:libcovrt.dll
 0002:000001e0       __imp_covrtSigUpdateFcn    00000001800641e0     libcovrt:libcovrt.dll
 0002:000001e8       __imp_covrtChartInitFcn    00000001800641e8     libcovrt:libcovrt.dll
 0002:000001f0       __imp_covrtStateInitFcn    00000001800641f0     libcovrt:libcovrt.dll
 0002:000001f8       __imp_covrtTransInitFcn    00000001800641f8     libcovrt:libcovrt.dll
 0002:00000200       __imp_covrtCreateStateflowInstanceData 0000000180064200     libcovrt:libcovrt.dll
 0002:00000208       \177libcovrt_NULL_THUNK_DATA 0000000180064208     libcovrt:libcovrt.dll
 0002:00000210       __imp_emlrtHeapReferenceStackEnterFcnR2012b 0000000180064210     libemlrt:libemlrt.dll
 0002:00000218       __imp_emlrtHeapReferenceStackLeaveFcnR2012b 0000000180064218     libemlrt:libemlrt.dll
 0002:00000220       __imp_emlrtPushHeapReferenceStackR2018aSL 0000000180064220     libemlrt:libemlrt.dll
 0002:00000228       __imp_emlrtLicenseCheckR2012b 0000000180064228     libemlrt:libemlrt.dll
 0002:00000230       \177libemlrt_NULL_THUNK_DATA 0000000180064230     libemlrt:libemlrt.dll
 0002:00000238       __imp_mexIsLocked_800      0000000180064238     libmex:libmex.dll
 0002:00000240       __imp_mexUnlock_800        0000000180064240     libmex:libmex.dll
 0002:00000248       __imp_mexWarnMsgTxt_800    0000000180064248     libmex:libmex.dll
 0002:00000250       __imp_mexLock_800          0000000180064250     libmex:libmex.dll
 0002:00000258       __imp_mexCallMATLAB_800    0000000180064258     libmex:libmex.dll
 0002:00000260       __imp_mexMakeArrayPersistent_800 0000000180064260     libmex:libmex.dll
 0002:00000268       __imp_mexErrMsgTxt_800     0000000180064268     libmex:libmex.dll
 0002:00000270       \177libmex_NULL_THUNK_DATA 0000000180064270     libmex:libmex.dll
 0002:00000278       __imp_muDoubleScalarRound  0000000180064278     libmwmathutil:libmwmathutil.dll
 0002:00000280       \177libmwmathutil_NULL_THUNK_DATA 0000000180064280     libmwmathutil:libmwmathutil.dll
 0002:00000288       __imp_rgb2hsv_tbb_uint8    0000000180064288     libmwrgb2hsv_tbb:libmwrgb2hsv_tbb.dll
 0002:00000290       \177libmwrgb2hsv_tbb_NULL_THUNK_DATA 0000000180064290     libmwrgb2hsv_tbb:libmwrgb2hsv_tbb.dll
 0002:00000298       __imp_mxCreateCellMatrix_800 0000000180064298     libmx:libmx.dll
 0002:000002a0       __imp_mxGetScalar_800      00000001800642a0     libmx:libmx.dll
 0002:000002a8       __imp_mxCreateDoubleScalar_800 00000001800642a8     libmx:libmx.dll
 0002:000002b0       __imp_mxGetN_800           00000001800642b0     libmx:libmx.dll
 0002:000002b8       __imp_mxIsComplex_800      00000001800642b8     libmx:libmx.dll
 0002:000002c0       __imp_mxIsNumeric_800      00000001800642c0     libmx:libmx.dll
 0002:000002c8       __imp_mxGetClassID_800     00000001800642c8     libmx:libmx.dll
 0002:000002d0       __imp_mxGetM_800           00000001800642d0     libmx:libmx.dll
 0002:000002d8       __imp_mxCalloc_800         00000001800642d8     libmx:libmx.dll
 0002:000002e0       __imp_mxCreateStructMatrix_800 00000001800642e0     libmx:libmx.dll
 0002:000002e8       __imp_mxIsChar_800         00000001800642e8     libmx:libmx.dll
 0002:000002f0       __imp_mxCreateString_800   00000001800642f0     libmx:libmx.dll
 0002:000002f8       __imp_mxSetField_800       00000001800642f8     libmx:libmx.dll
 0002:00000300       __imp_mxSetCell_800        0000000180064300     libmx:libmx.dll
 0002:00000308       __imp_mxDuplicateArray_800 0000000180064308     libmx:libmx.dll
 0002:00000310       __imp_mxGetString_800      0000000180064310     libmx:libmx.dll
 0002:00000318       __imp_mxCreateDoubleMatrix_800 0000000180064318     libmx:libmx.dll
 0002:00000320       __imp_mxDestroyArray_800   0000000180064320     libmx:libmx.dll
 0002:00000328       __imp_mxGetPr_800          0000000180064328     libmx:libmx.dll
 0002:00000330       \177libmx_NULL_THUNK_DATA  0000000180064330     libmx:libmx.dll
 0002:00000338       __imp_utFree               0000000180064338     libut:libut.dll
 0002:00000340       __imp_utMalloc             0000000180064340     libut:libut.dll
 0002:00000348       \177libut_NULL_THUNK_DATA  0000000180064348     libut:libut.dll
 0002:00000350       __imp_sf_clear_error_manager_info 0000000180064350     sf_runtime:sf_runtime.dll
 0002:00000358       __imp_sf_mex_error_direct_call 0000000180064358     sf_runtime:sf_runtime.dll
 0002:00000360       __imp_getRuntimeInstanceInfoAsVoid 0000000180064360     sf_runtime:sf_runtime.dll
 0002:00000368       __imp_call_sf_machine_global_method_dispatcher 0000000180064368     sf_runtime:sf_runtime.dll
 0002:00000370       __imp_callMdlMethodAndReportError 0000000180064370     sf_runtime:sf_runtime.dll
 0002:00000378       __imp_sf_get_hasSeparateUpdateOutputs 0000000180064378     sf_runtime:sf_runtime.dll
 0002:00000380       __imp_sf_get_ChartInfoStruct_CodeGen 0000000180064380     sf_runtime:sf_runtime.dll
 0002:00000388       __imp_sf_data_saturate_error 0000000180064388     sf_runtime:sf_runtime.dll
 0002:00000390       __imp_ssGetOutputPortSignal_wrapper 0000000180064390     sf_runtime:sf_runtime.dll
 0002:00000398       __imp_sf_mex_import        0000000180064398     sf_runtime:sf_runtime.dll
 0002:000003a0       __imp_sf_mex_destroy       00000001800643a0     sf_runtime:sf_runtime.dll
 0002:000003a8       __imp_sf_mex_dup           00000001800643a8     sf_runtime:sf_runtime.dll
 0002:000003b0       __imp_sf_mex_assign        00000001800643b0     sf_runtime:sf_runtime.dll
 0002:000003b8       __imp_sf_mex_getcell       00000001800643b8     sf_runtime:sf_runtime.dll
 0002:000003c0       __imp_sf_mex_setcell       00000001800643c0     sf_runtime:sf_runtime.dll
 0002:000003c8       __imp_sf_mex_createcellmatrix 00000001800643c8     sf_runtime:sf_runtime.dll
 0002:000003d0       __imp_sf_mex_create        00000001800643d0     sf_runtime:sf_runtime.dll
 0002:000003d8       __imp_sf_mex_error_message 00000001800643d8     sf_runtime:sf_runtime.dll
 0002:000003e0       __imp_sf_mex_call          00000001800643e0     sf_runtime:sf_runtime.dll
 0002:000003e8       __imp_sfListenerInitializeRuntimeVars 00000001800643e8     sf_runtime:sf_runtime.dll
 0002:000003f0       __imp_sfListenerLightTerminate 00000001800643f0     sf_runtime:sf_runtime.dll
 0002:000003f8       __imp_sfListenerCacheSimStruct 00000001800643f8     sf_runtime:sf_runtime.dll
 0002:00000400       __imp_sf_error_out_about_continuous_sample_time_with_persistent_vars 0000000180064400     sf_runtime:sf_runtime.dll
 0002:00000408       __imp_sf_set_work_widths   0000000180064408     sf_runtime:sf_runtime.dll
 0002:00000410       __imp_sf_warn_if_symbolic_dimension_param_changed 0000000180064410     sf_runtime:sf_runtime.dll
 0002:00000418       __imp_setDebuggerFlag      0000000180064418     sf_runtime:sf_runtime.dll
 0002:00000420       __imp_setLegacyDebuggerFlag 0000000180064420     sf_runtime:sf_runtime.dll
 0002:00000428       __imp_setDataBrowseFcn     0000000180064428     sf_runtime:sf_runtime.dll
 0002:00000430       __imp_sfDoAnimationWrapper 0000000180064430     sf_runtime:sf_runtime.dll
 0002:00000438       __imp_sf_get_time          0000000180064438     sf_runtime:sf_runtime.dll
 0002:00000440       __imp_sf_clear_rtw_identifier 0000000180064440     sf_runtime:sf_runtime.dll
 0002:00000448       __imp_sim_mode_is_external 0000000180064448     sf_runtime:sf_runtime.dll
 0002:00000450       __imp_sim_mode_is_rtw_gen  0000000180064450     sf_runtime:sf_runtime.dll
 0002:00000458       __imp_sf_get_chart_instance_ptr 0000000180064458     sf_runtime:sf_runtime.dll
 0002:00000460       __imp_sfrtGetCovrtInstance 0000000180064460     sf_runtime:sf_runtime.dll
 0002:00000468       __imp_sfrtGetEmlrtCtx      0000000180064468     sf_runtime:sf_runtime.dll
 0002:00000470       __imp_sf_free_ChartRunTimeInfo 0000000180064470     sf_runtime:sf_runtime.dll
 0002:00000478       __imp_sf_init_ChartRunTimeInfo 0000000180064478     sf_runtime:sf_runtime.dll
 0002:00000480       __imp_sf_mex_decode        0000000180064480     sf_runtime:sf_runtime.dll
 0002:00000488       __imp_sf_load_rtw_optimization_info 0000000180064488     sf_runtime:sf_runtime.dll
 0002:00000490       __imp_ssGetInputPortSignal_wrapper 0000000180064490     sf_runtime:sf_runtime.dll
 0002:00000498       \177sf_runtime_NULL_THUNK_DATA 0000000180064498     sf_runtime:sf_runtime.dll
 0002:000004a0       __guard_check_icall_fptr   00000001800644a0     MSVCRT:guard_support.obj
 0002:000004a8       __guard_dispatch_icall_fptr 00000001800644a8     MSVCRT:guard_support.obj
 0002:000004b0       __xc_a                     00000001800644b0     MSVCRT:initializers.obj
 0002:000004b8       __xc_z                     00000001800644b8     MSVCRT:initializers.obj
 0002:000004c0       __xi_a                     00000001800644c0     MSVCRT:initializers.obj
 0002:000004c8       __xi_z                     00000001800644c8     MSVCRT:initializers.obj
 0002:000004d0       __xp_a                     00000001800644d0     MSVCRT:initializers.obj
 0002:000004d8       __xp_z                     00000001800644d8     MSVCRT:initializers.obj
 0002:000004e0       __xt_a                     00000001800644e0     MSVCRT:initializers.obj
 0002:000004e8       __xt_z                     00000001800644e8     MSVCRT:initializers.obj
 0002:000004f0       __real@41b44f897d000000    00000001800644f0     flightControlSystem_sfun.obj
 0002:000004f8       __real@41b92f8712000000    00000001800644f8     flightControlSystem_sfun.obj
 0002:00000500       __real@41bad2f744000000    0000000180064500     flightControlSystem_sfun.obj
 0002:00000508       __real@41bc7b7738000000    0000000180064508     flightControlSystem_sfun.obj
 0002:00000510       __real@41c591e52b800000    0000000180064510     flightControlSystem_sfun.obj
 0002:00000518       __real@41c9c5da0c800000    0000000180064518     flightControlSystem_sfun.obj
 0002:00000520       __real@41ceb78bc0800000    0000000180064520     flightControlSystem_sfun.obj
 0002:00000528       __real@41d2bf11bc800000    0000000180064528     flightControlSystem_sfun.obj
 0002:00000530       __real@41da488b87400000    0000000180064530     flightControlSystem_sfun.obj
 0002:00000538       __real@41e3f2a9e2200000    0000000180064538     flightControlSystem_sfun.obj
 0002:00000540       __real@41e3fa3198000000    0000000180064540     flightControlSystem_sfun.obj
 0002:00000548       __real@41eeee8481c00000    0000000180064548     flightControlSystem_sfun.obj
 0002:00000558       __real@0000000000000000    0000000180064558     c1_flightControlSystem.obj
 0002:00000560       __real@3f9a9fbe76c8b439    0000000180064560     c1_flightControlSystem.obj
 0002:00000568       __real@3fe3333333333333    0000000180064568     c1_flightControlSystem.obj
 0002:00000570       __real@3fecfdf3b645a1cb    0000000180064570     c1_flightControlSystem.obj
 0002:00000578       __real@3fef8d4fdf3b645a    0000000180064578     c1_flightControlSystem.obj
 0002:00000580       __real@3ff0000000000000    0000000180064580     c1_flightControlSystem.obj
 0002:00000588       __real@4010000000000000    0000000180064588     c1_flightControlSystem.obj
 0002:00000590       __real@40d2c00000000000    0000000180064590     c1_flightControlSystem.obj
 0002:00000598       __real@40e0000000000000    0000000180064598     c1_flightControlSystem.obj
 0002:000005a0       __real@40f86a0000000000    00000001800645a0     c1_flightControlSystem.obj
 0002:000005a8       __real@410fbd0000000000    00000001800645a8     c1_flightControlSystem.obj
 0002:000005b0       __real@41d1e7abfa400000    00000001800645b0     c1_flightControlSystem.obj
 0002:000005b8       __real@41d29e2b55c00000    00000001800645b8     c1_flightControlSystem.obj
 0002:000005c0       __real@41d3e5e840400000    00000001800645c0     c1_flightControlSystem.obj
 0002:000005c8       __real@41dfffffffc00000    00000001800645c8     c1_flightControlSystem.obj
 0002:000005d0       __real@41e727a516800000    00000001800645d0     c1_flightControlSystem.obj
 0002:000005d8       __real@c0e0000000000000    00000001800645d8     c1_flightControlSystem.obj
 0002:000005e0       DYNAMIC_DIMENSION_DEF      00000001800645e0     flightControlSystem_sfun_registry.obj
 0002:000005f8       __real@41602cbca0000000    00000001800645f8     flightControlSystem_sfun_registry.obj
 0002:00000600       __real@bff0000000000000    0000000180064600     flightControlSystem_sfun_registry.obj
 0002:000008b8       ??_7DrawBase@@6B@          00000001800648b8     insertShapeUtilsCore.obj
 0002:00000940       ??_7?$DrawCommon@MMHHMMEH@@6B@ 0000000180064940     insertShapeUtilsCore.obj
 0002:000009c8       ??_7?$DrawFilledRectangle@MMHHMME@@6B@ 00000001800649c8     insertShapeUtilsCore.obj
 0002:00000a50       ??_7?$DrawFilledRectangleAnySize@MMHHMME@@6B@ 0000000180064a50     insertShapeUtilsCore.obj
 0002:00000ad8       ??_7?$DrawCommon@MMHHMMEE@@6B@ 0000000180064ad8     insertShapeUtilsCore.obj
 0002:00000b60       ??_7?$DrawLine@MMHHMMEE@@6B@ 0000000180064b60     insertShapeUtilsCore.obj
 0002:00000be8       ??_7?$DrawMarkerLine@MMHHMMEE@@6B@ 0000000180064be8     insertShapeUtilsCore.obj
 0002:00000c70       ??_7?$DrawRectangleAnySize@MMHHMME@@6B@ 0000000180064c70     insertShapeUtilsCore.obj
 0002:00000cf8       ??_7?$ScanLineBase@HHH@@6B@ 0000000180064cf8     insertShapeUtilsCore.obj
 0002:00000d38       ??_7?$ScanLine@HHH@@6B@    0000000180064d38     insertShapeUtilsCore.obj
 0002:00000d78       ??_7?$DrawFilledPolygon@MMHHMMEH@@6B@ 0000000180064d78     insertShapeUtilsCore.obj
 0002:00000e00       ??_7?$ScanLineBase@HHE@@6B@ 0000000180064e00     insertShapeUtilsCore.obj
 0002:00000e40       ??_7?$ScanLine@HHE@@6B@    0000000180064e40     insertShapeUtilsCore.obj
 0002:00000e80       ??_7?$DrawFilledPolygon@MMHHMMEE@@6B@ 0000000180064e80     insertShapeUtilsCore.obj
 0002:00000f08       ??_7?$DrawLine@MMHHMMEH@@6B@ 0000000180064f08     insertShapeUtilsCore.obj
 0002:00000f90       ??_7?$DrawPolygon@MMHHMMEH@@6B@ 0000000180064f90     insertShapeUtilsCore.obj
 0002:00001018       ??_7?$DrawPolygon@MMHHMMEE@@6B@ 0000000180065018     insertShapeUtilsCore.obj
 0002:000010a0       ??_7?$DrawAnyLine@MMHHMMEH@@6B@ 00000001800650a0     insertShapeUtilsCore.obj
 0002:00001128       ??_7?$DrawAnyLine@MMHHMMEE@@6B@ 0000000180065128     insertShapeUtilsCore.obj
 0002:000011b0       ??_7?$DrawCircle@MMHHMMEHH@@6B@ 00000001800651b0     insertShapeUtilsCore.obj
 0002:00001238       ??_7?$DrawCircleAnySize@MMHHMMEHH@@6B@ 0000000180065238     insertShapeUtilsCore.obj
 0002:000012c0       ??_7?$DrawCircle@MMHHMMEEH@@6B@ 00000001800652c0     insertShapeUtilsCore.obj
 0002:00001348       ??_7?$DrawCircleAnySize@MMHHMMEEH@@6B@ 0000000180065348     insertShapeUtilsCore.obj
 0002:000013d0       ??_7?$DrawCircle@MMHHMMEHE@@6B@ 00000001800653d0     insertShapeUtilsCore.obj
 0002:00001458       ??_7?$DrawCircleAnySize@MMHHMMEHE@@6B@ 0000000180065458     insertShapeUtilsCore.obj
 0002:000014e0       ??_7?$DrawCircle@MMHHMMEEE@@6B@ 00000001800654e0     insertShapeUtilsCore.obj
 0002:00001568       ??_7?$DrawCircleAnySize@MMHHMMEEE@@6B@ 0000000180065568     insertShapeUtilsCore.obj
 0002:000015f0       ??_7?$DrawCommon@NNHHNNEH@@6B@ 00000001800655f0     insertShapeUtilsCore.obj
 0002:00001678       ??_7?$DrawFilledRectangle@NNHHNNE@@6B@ 0000000180065678     insertShapeUtilsCore.obj
 0002:00001700       ??_7?$DrawFilledRectangleAnySize@NNHHNNE@@6B@ 0000000180065700     insertShapeUtilsCore.obj
 0002:00001788       ??_7?$DrawCommon@NNHHNNEE@@6B@ 0000000180065788     insertShapeUtilsCore.obj
 0002:00001810       ??_7?$DrawLine@NNHHNNEE@@6B@ 0000000180065810     insertShapeUtilsCore.obj
 0002:00001898       ??_7?$DrawMarkerLine@NNHHNNEE@@6B@ 0000000180065898     insertShapeUtilsCore.obj
 0002:00001920       ??_7?$DrawRectangleAnySize@NNHHNNE@@6B@ 0000000180065920     insertShapeUtilsCore.obj
 0002:000019a8       ??_7?$DrawFilledPolygon@NNHHNNEH@@6B@ 00000001800659a8     insertShapeUtilsCore.obj
 0002:00001a30       ??_7?$DrawFilledPolygon@NNHHNNEE@@6B@ 0000000180065a30     insertShapeUtilsCore.obj
 0002:00001ab8       ??_7?$DrawLine@NNHHNNEH@@6B@ 0000000180065ab8     insertShapeUtilsCore.obj
 0002:00001b40       ??_7?$DrawPolygon@NNHHNNEH@@6B@ 0000000180065b40     insertShapeUtilsCore.obj
 0002:00001bc8       ??_7?$DrawPolygon@NNHHNNEE@@6B@ 0000000180065bc8     insertShapeUtilsCore.obj
 0002:00001c50       ??_7?$DrawAnyLine@NNHHNNEH@@6B@ 0000000180065c50     insertShapeUtilsCore.obj
 0002:00001cd8       ??_7?$DrawAnyLine@NNHHNNEE@@6B@ 0000000180065cd8     insertShapeUtilsCore.obj
 0002:00001d60       ??_7?$DrawCircle@NNHHNNEHH@@6B@ 0000000180065d60     insertShapeUtilsCore.obj
 0002:00001de8       ??_7?$DrawCircleAnySize@NNHHNNEHH@@6B@ 0000000180065de8     insertShapeUtilsCore.obj
 0002:00001e70       ??_7?$DrawCircle@NNHHNNEEH@@6B@ 0000000180065e70     insertShapeUtilsCore.obj
 0002:00001ef8       ??_7?$DrawCircleAnySize@NNHHNNEEH@@6B@ 0000000180065ef8     insertShapeUtilsCore.obj
 0002:00001f80       ??_7?$DrawCircle@NNHHNNEHE@@6B@ 0000000180065f80     insertShapeUtilsCore.obj
 0002:00002008       ??_7?$DrawCircleAnySize@NNHHNNEHE@@6B@ 0000000180066008     insertShapeUtilsCore.obj
 0002:00002090       ??_7?$DrawCircle@NNHHNNEEE@@6B@ 0000000180066090     insertShapeUtilsCore.obj
 0002:00002118       ??_7?$DrawCircleAnySize@NNHHNNEEE@@6B@ 0000000180066118     insertShapeUtilsCore.obj
 0002:000021a0       ??_7?$DrawCommon@EEHHMMEH@@6B@ 00000001800661a0     insertShapeUtilsCore.obj
 0002:00002228       ??_7?$DrawFilledRectangle@EEHHMME@@6B@ 0000000180066228     insertShapeUtilsCore.obj
 0002:000022b0       ??_7?$DrawFilledRectangleAnySize@EEHHMME@@6B@ 00000001800662b0     insertShapeUtilsCore.obj
 0002:00002338       ??_7?$DrawCommon@EEHHMMEE@@6B@ 0000000180066338     insertShapeUtilsCore.obj
 0002:000023c0       ??_7?$DrawLine@EEHHMMEE@@6B@ 00000001800663c0     insertShapeUtilsCore.obj
 0002:00002448       ??_7?$DrawMarkerLine@EEHHMMEE@@6B@ 0000000180066448     insertShapeUtilsCore.obj
 0002:000024d0       ??_7?$DrawRectangleAnySize@EEHHMME@@6B@ 00000001800664d0     insertShapeUtilsCore.obj
 0002:00002558       ??_7?$DrawFilledPolygon@EEHHMMEH@@6B@ 0000000180066558     insertShapeUtilsCore.obj
 0002:000025e0       ??_7?$DrawFilledPolygon@EEHHMMEE@@6B@ 00000001800665e0     insertShapeUtilsCore.obj
 0002:00002668       ??_7?$DrawLine@EEHHMMEH@@6B@ 0000000180066668     insertShapeUtilsCore.obj
 0002:000026f0       ??_7?$DrawPolygon@EEHHMMEH@@6B@ 00000001800666f0     insertShapeUtilsCore.obj
 0002:00002778       ??_7?$DrawPolygon@EEHHMMEE@@6B@ 0000000180066778     insertShapeUtilsCore.obj
 0002:00002800       ??_7?$DrawAnyLine@EEHHMMEH@@6B@ 0000000180066800     insertShapeUtilsCore.obj
 0002:00002888       ??_7?$DrawAnyLine@EEHHMMEE@@6B@ 0000000180066888     insertShapeUtilsCore.obj
 0002:00002910       ??_7?$DrawCircle@EEHHMMEHH@@6B@ 0000000180066910     insertShapeUtilsCore.obj
 0002:00002998       ??_7?$DrawCircleAnySize@EEHHMMEHH@@6B@ 0000000180066998     insertShapeUtilsCore.obj
 0002:00002a20       ??_7?$DrawCircle@EEHHMMEEH@@6B@ 0000000180066a20     insertShapeUtilsCore.obj
 0002:00002aa8       ??_7?$DrawCircleAnySize@EEHHMMEEH@@6B@ 0000000180066aa8     insertShapeUtilsCore.obj
 0002:00002b30       ??_7?$DrawCircle@EEHHMMEHE@@6B@ 0000000180066b30     insertShapeUtilsCore.obj
 0002:00002bb8       ??_7?$DrawCircleAnySize@EEHHMMEHE@@6B@ 0000000180066bb8     insertShapeUtilsCore.obj
 0002:00002c40       ??_7?$DrawCircle@EEHHMMEEE@@6B@ 0000000180066c40     insertShapeUtilsCore.obj
 0002:00002cc8       ??_7?$DrawCircleAnySize@EEHHMMEEE@@6B@ 0000000180066cc8     insertShapeUtilsCore.obj
 0002:00002d50       ??_7?$DrawCommon@GGHHMMEH@@6B@ 0000000180066d50     insertShapeUtilsCore.obj
 0002:00002dd8       ??_7?$DrawFilledRectangle@GGHHMME@@6B@ 0000000180066dd8     insertShapeUtilsCore.obj
 0002:00002e60       ??_7?$DrawFilledRectangleAnySize@GGHHMME@@6B@ 0000000180066e60     insertShapeUtilsCore.obj
 0002:00002ee8       ??_7?$DrawCommon@GGHHMMEE@@6B@ 0000000180066ee8     insertShapeUtilsCore.obj
 0002:00002f70       ??_7?$DrawLine@GGHHMMEE@@6B@ 0000000180066f70     insertShapeUtilsCore.obj
 0002:00002ff8       ??_7?$DrawMarkerLine@GGHHMMEE@@6B@ 0000000180066ff8     insertShapeUtilsCore.obj
 0002:00003080       ??_7?$DrawRectangleAnySize@GGHHMME@@6B@ 0000000180067080     insertShapeUtilsCore.obj
 0002:00003108       ??_7?$DrawFilledPolygon@GGHHMMEH@@6B@ 0000000180067108     insertShapeUtilsCore.obj
 0002:00003190       ??_7?$DrawFilledPolygon@GGHHMMEE@@6B@ 0000000180067190     insertShapeUtilsCore.obj
 0002:00003218       ??_7?$DrawLine@GGHHMMEH@@6B@ 0000000180067218     insertShapeUtilsCore.obj
 0002:000032a0       ??_7?$DrawPolygon@GGHHMMEH@@6B@ 00000001800672a0     insertShapeUtilsCore.obj
 0002:00003328       ??_7?$DrawPolygon@GGHHMMEE@@6B@ 0000000180067328     insertShapeUtilsCore.obj
 0002:000033b0       ??_7?$DrawAnyLine@GGHHMMEH@@6B@ 00000001800673b0     insertShapeUtilsCore.obj
 0002:00003438       ??_7?$DrawAnyLine@GGHHMMEE@@6B@ 0000000180067438     insertShapeUtilsCore.obj
 0002:000034c0       ??_7?$DrawCircle@GGHHMMEHH@@6B@ 00000001800674c0     insertShapeUtilsCore.obj
 0002:00003548       ??_7?$DrawCircleAnySize@GGHHMMEHH@@6B@ 0000000180067548     insertShapeUtilsCore.obj
 0002:000035d0       ??_7?$DrawCircle@GGHHMMEEH@@6B@ 00000001800675d0     insertShapeUtilsCore.obj
 0002:00003658       ??_7?$DrawCircleAnySize@GGHHMMEEH@@6B@ 0000000180067658     insertShapeUtilsCore.obj
 0002:000036e0       ??_7?$DrawCircle@GGHHMMEHE@@6B@ 00000001800676e0     insertShapeUtilsCore.obj
 0002:00003768       ??_7?$DrawCircleAnySize@GGHHMMEHE@@6B@ 0000000180067768     insertShapeUtilsCore.obj
 0002:000037f0       ??_7?$DrawCircle@GGHHMMEEE@@6B@ 00000001800677f0     insertShapeUtilsCore.obj
 0002:00003878       ??_7?$DrawCircleAnySize@GGHHMMEEE@@6B@ 0000000180067878     insertShapeUtilsCore.obj
 0002:00003900       ??_7?$DrawCommon@FFHHMMEH@@6B@ 0000000180067900     insertShapeUtilsCore.obj
 0002:00003988       ??_7?$DrawFilledRectangle@FFHHMME@@6B@ 0000000180067988     insertShapeUtilsCore.obj
 0002:00003a10       ??_7?$DrawFilledRectangleAnySize@FFHHMME@@6B@ 0000000180067a10     insertShapeUtilsCore.obj
 0002:00003a98       ??_7?$DrawCommon@FFHHMMEE@@6B@ 0000000180067a98     insertShapeUtilsCore.obj
 0002:00003b20       ??_7?$DrawLine@FFHHMMEE@@6B@ 0000000180067b20     insertShapeUtilsCore.obj
 0002:00003ba8       ??_7?$DrawMarkerLine@FFHHMMEE@@6B@ 0000000180067ba8     insertShapeUtilsCore.obj
 0002:00003c30       ??_7?$DrawRectangleAnySize@FFHHMME@@6B@ 0000000180067c30     insertShapeUtilsCore.obj
 0002:00003cb8       ??_7?$DrawFilledPolygon@FFHHMMEH@@6B@ 0000000180067cb8     insertShapeUtilsCore.obj
 0002:00003d40       ??_7?$DrawFilledPolygon@FFHHMMEE@@6B@ 0000000180067d40     insertShapeUtilsCore.obj
 0002:00003dc8       ??_7?$DrawLine@FFHHMMEH@@6B@ 0000000180067dc8     insertShapeUtilsCore.obj
 0002:00003e50       ??_7?$DrawPolygon@FFHHMMEH@@6B@ 0000000180067e50     insertShapeUtilsCore.obj
 0002:00003ed8       ??_7?$DrawPolygon@FFHHMMEE@@6B@ 0000000180067ed8     insertShapeUtilsCore.obj
 0002:00003f60       ??_7?$DrawAnyLine@FFHHMMEH@@6B@ 0000000180067f60     insertShapeUtilsCore.obj
 0002:00003fe8       ??_7?$DrawAnyLine@FFHHMMEE@@6B@ 0000000180067fe8     insertShapeUtilsCore.obj
 0002:00004070       ??_7?$DrawCircle@FFHHMMEHH@@6B@ 0000000180068070     insertShapeUtilsCore.obj
 0002:000040f8       ??_7?$DrawCircleAnySize@FFHHMMEHH@@6B@ 00000001800680f8     insertShapeUtilsCore.obj
 0002:00004180       ??_7?$DrawCircle@FFHHMMEEH@@6B@ 0000000180068180     insertShapeUtilsCore.obj
 0002:00004208       ??_7?$DrawCircleAnySize@FFHHMMEEH@@6B@ 0000000180068208     insertShapeUtilsCore.obj
 0002:00004290       ??_7?$DrawCircle@FFHHMMEHE@@6B@ 0000000180068290     insertShapeUtilsCore.obj
 0002:00004318       ??_7?$DrawCircleAnySize@FFHHMMEHE@@6B@ 0000000180068318     insertShapeUtilsCore.obj
 0002:000043a0       ??_7?$DrawCircle@FFHHMMEEE@@6B@ 00000001800683a0     insertShapeUtilsCore.obj
 0002:00004428       ??_7?$DrawCircleAnySize@FFHHMMEEE@@6B@ 0000000180068428     insertShapeUtilsCore.obj
 0002:000044a8       __real@3f800000            00000001800684a8     insertShapeUtilsCore.obj
 0002:000044b0       __real@3fe0000000000000    00000001800684b0     insertShapeUtilsCore.obj
 0002:000044b8       __real@4050000000000000    00000001800684b8     insertShapeUtilsCore.obj
 0002:000044c0       __real@42800000            00000001800684c0     insertShapeUtilsCore.obj
 0002:000044c8       __real@bfe0000000000000    00000001800684c8     insertShapeUtilsCore.obj
 0002:000044e8       ??_7type_info@@6B@         00000001800684e8     MSVCRT:std_type_info_static.obj
 0002:000044f0       _pRawDllMain               00000001800684f0     MSVCRT:dll_dllmain.obj
 0002:000044f0       _pDefaultRawDllMain        00000001800684f0     MSVCRT:dll_dllmain.obj
 0002:00004500       ??_7exception@std@@6B@     0000000180068500     MSVCRT:throw_bad_alloc.obj
 0002:00004510       ??_C@_0BC@EOODALEL@Unknown?5exception?$AA@ 0000000180068510     MSVCRT:throw_bad_alloc.obj
 0002:00004530       ??_7bad_alloc@std@@6B@     0000000180068530     MSVCRT:throw_bad_alloc.obj
 0002:00004540       ??_C@_0P@GHFPNOJB@bad?5allocation?$AA@ 0000000180068540     MSVCRT:throw_bad_alloc.obj
 0002:00004558       ??_7bad_array_new_length@std@@6B@ 0000000180068558     MSVCRT:throw_bad_alloc.obj
 0002:00004568       ??_C@_0BF@KINCDENJ@bad?5array?5new?5length?$AA@ 0000000180068568     MSVCRT:throw_bad_alloc.obj
 0002:000045a0       _load_config_used          00000001800685a0     MSVCRT:loadcfg.obj
 0002:00004638       ??_R4DrawBase@@6B@         0000000180068638     insertShapeUtilsCore.obj
 0002:00004660       ??_R3DrawBase@@8           0000000180068660     insertShapeUtilsCore.obj
 0002:00004678       ??_R2DrawBase@@8           0000000180068678     insertShapeUtilsCore.obj
 0002:00004688       ??_R1A@?0A@EA@DrawBase@@8  0000000180068688     insertShapeUtilsCore.obj
 0002:000046b0       ??_R4?$DrawFilledRectangleAnySize@MMHHMME@@6B@ 00000001800686b0     insertShapeUtilsCore.obj
 0002:000046d8       ??_R3?$DrawFilledRectangleAnySize@MMHHMME@@8 00000001800686d8     insertShapeUtilsCore.obj
 0002:000046f0       ??_R2?$DrawFilledRectangleAnySize@MMHHMME@@8 00000001800686f0     insertShapeUtilsCore.obj
 0002:00004718       ??_R1A@?0A@EA@?$DrawFilledRectangleAnySize@MMHHMME@@8 0000000180068718     insertShapeUtilsCore.obj
 0002:00004740       ??_R1A@?0A@EA@?$DrawFilledRectangle@MMHHMME@@8 0000000180068740     insertShapeUtilsCore.obj
 0002:00004768       ??_R3?$DrawFilledRectangle@MMHHMME@@8 0000000180068768     insertShapeUtilsCore.obj
 0002:00004780       ??_R2?$DrawFilledRectangle@MMHHMME@@8 0000000180068780     insertShapeUtilsCore.obj
 0002:000047a0       ??_R1A@?0A@EA@?$DrawCommon@MMHHMMEH@@8 00000001800687a0     insertShapeUtilsCore.obj
 0002:000047c8       ??_R3?$DrawCommon@MMHHMMEH@@8 00000001800687c8     insertShapeUtilsCore.obj
 0002:000047e0       ??_R2?$DrawCommon@MMHHMMEH@@8 00000001800687e0     insertShapeUtilsCore.obj
 0002:000047f8       ??_R4?$DrawFilledRectangle@MMHHMME@@6B@ 00000001800687f8     insertShapeUtilsCore.obj
 0002:00004820       ??_R4?$DrawCommon@MMHHMMEH@@6B@ 0000000180068820     insertShapeUtilsCore.obj
 0002:00004848       ??_R4?$DrawRectangleAnySize@MMHHMME@@6B@ 0000000180068848     insertShapeUtilsCore.obj
 0002:00004870       ??_R3?$DrawRectangleAnySize@MMHHMME@@8 0000000180068870     insertShapeUtilsCore.obj
 0002:00004888       ??_R2?$DrawRectangleAnySize@MMHHMME@@8 0000000180068888     insertShapeUtilsCore.obj
 0002:000048b8       ??_R1A@?0A@EA@?$DrawRectangleAnySize@MMHHMME@@8 00000001800688b8     insertShapeUtilsCore.obj
 0002:000048e0       ??_R1A@?0A@EA@?$DrawMarkerLine@MMHHMMEE@@8 00000001800688e0     insertShapeUtilsCore.obj
 0002:00004908       ??_R3?$DrawMarkerLine@MMHHMMEE@@8 0000000180068908     insertShapeUtilsCore.obj
 0002:00004920       ??_R2?$DrawMarkerLine@MMHHMMEE@@8 0000000180068920     insertShapeUtilsCore.obj
 0002:00004948       ??_R1A@?0A@EA@?$DrawLine@MMHHMMEE@@8 0000000180068948     insertShapeUtilsCore.obj
 0002:00004970       ??_R3?$DrawLine@MMHHMMEE@@8 0000000180068970     insertShapeUtilsCore.obj
 0002:00004988       ??_R2?$DrawLine@MMHHMMEE@@8 0000000180068988     insertShapeUtilsCore.obj
 0002:000049a8       ??_R1A@?0A@EA@?$DrawCommon@MMHHMMEE@@8 00000001800689a8     insertShapeUtilsCore.obj
 0002:000049d0       ??_R3?$DrawCommon@MMHHMMEE@@8 00000001800689d0     insertShapeUtilsCore.obj
 0002:000049e8       ??_R2?$DrawCommon@MMHHMMEE@@8 00000001800689e8     insertShapeUtilsCore.obj
 0002:00004a00       ??_R4?$DrawMarkerLine@MMHHMMEE@@6B@ 0000000180068a00     insertShapeUtilsCore.obj
 0002:00004a28       ??_R4?$DrawLine@MMHHMMEE@@6B@ 0000000180068a28     insertShapeUtilsCore.obj
 0002:00004a50       ??_R4?$DrawCommon@MMHHMMEE@@6B@ 0000000180068a50     insertShapeUtilsCore.obj
 0002:00004a78       ??_R4?$ScanLineBase@HHH@@6B@ 0000000180068a78     insertShapeUtilsCore.obj
 0002:00004aa0       ??_R3?$ScanLineBase@HHH@@8 0000000180068aa0     insertShapeUtilsCore.obj
 0002:00004ab8       ??_R2?$ScanLineBase@HHH@@8 0000000180068ab8     insertShapeUtilsCore.obj
 0002:00004ac8       ??_R1A@?0A@EA@?$ScanLineBase@HHH@@8 0000000180068ac8     insertShapeUtilsCore.obj
 0002:00004af0       ??_R4?$ScanLine@HHH@@6B@   0000000180068af0     insertShapeUtilsCore.obj
 0002:00004b18       ??_R3?$ScanLine@HHH@@8     0000000180068b18     insertShapeUtilsCore.obj
 0002:00004b30       ??_R2?$ScanLine@HHH@@8     0000000180068b30     insertShapeUtilsCore.obj
 0002:00004b48       ??_R1A@?0A@EA@?$ScanLine@HHH@@8 0000000180068b48     insertShapeUtilsCore.obj
 0002:00004b70       ??_R1A@?0A@EN@?$ScanLineBase@HHH@@8 0000000180068b70     insertShapeUtilsCore.obj
 0002:00004b98       ??_R4?$DrawFilledPolygon@MMHHMMEH@@6B@ 0000000180068b98     insertShapeUtilsCore.obj
 0002:00004bc0       ??_R3?$DrawFilledPolygon@MMHHMMEH@@8 0000000180068bc0     insertShapeUtilsCore.obj
 0002:00004bd8       ??_R2?$DrawFilledPolygon@MMHHMMEH@@8 0000000180068bd8     insertShapeUtilsCore.obj
 0002:00004bf8       ??_R1A@?0A@EA@?$DrawFilledPolygon@MMHHMMEH@@8 0000000180068bf8     insertShapeUtilsCore.obj
 0002:00004c20       ??_R4?$ScanLineBase@HHE@@6B@ 0000000180068c20     insertShapeUtilsCore.obj
 0002:00004c48       ??_R3?$ScanLineBase@HHE@@8 0000000180068c48     insertShapeUtilsCore.obj
 0002:00004c60       ??_R2?$ScanLineBase@HHE@@8 0000000180068c60     insertShapeUtilsCore.obj
 0002:00004c70       ??_R1A@?0A@EA@?$ScanLineBase@HHE@@8 0000000180068c70     insertShapeUtilsCore.obj
 0002:00004c98       ??_R4?$ScanLine@HHE@@6B@   0000000180068c98     insertShapeUtilsCore.obj
 0002:00004cc0       ??_R3?$ScanLine@HHE@@8     0000000180068cc0     insertShapeUtilsCore.obj
 0002:00004cd8       ??_R2?$ScanLine@HHE@@8     0000000180068cd8     insertShapeUtilsCore.obj
 0002:00004cf0       ??_R1A@?0A@EA@?$ScanLine@HHE@@8 0000000180068cf0     insertShapeUtilsCore.obj
 0002:00004d18       ??_R1A@?0A@EN@?$ScanLineBase@HHE@@8 0000000180068d18     insertShapeUtilsCore.obj
 0002:00004d40       ??_R4?$DrawFilledPolygon@MMHHMMEE@@6B@ 0000000180068d40     insertShapeUtilsCore.obj
 0002:00004d68       ??_R3?$DrawFilledPolygon@MMHHMMEE@@8 0000000180068d68     insertShapeUtilsCore.obj
 0002:00004d80       ??_R2?$DrawFilledPolygon@MMHHMMEE@@8 0000000180068d80     insertShapeUtilsCore.obj
 0002:00004da0       ??_R1A@?0A@EA@?$DrawFilledPolygon@MMHHMMEE@@8 0000000180068da0     insertShapeUtilsCore.obj
 0002:00004dc8       ??_R4?$DrawPolygon@MMHHMMEH@@6B@ 0000000180068dc8     insertShapeUtilsCore.obj
 0002:00004df0       ??_R3?$DrawPolygon@MMHHMMEH@@8 0000000180068df0     insertShapeUtilsCore.obj
 0002:00004e08       ??_R2?$DrawPolygon@MMHHMMEH@@8 0000000180068e08     insertShapeUtilsCore.obj
 0002:00004e30       ??_R1A@?0A@EA@?$DrawPolygon@MMHHMMEH@@8 0000000180068e30     insertShapeUtilsCore.obj
 0002:00004e58       ??_R1A@?0A@EA@?$DrawLine@MMHHMMEH@@8 0000000180068e58     insertShapeUtilsCore.obj
 0002:00004e80       ??_R3?$DrawLine@MMHHMMEH@@8 0000000180068e80     insertShapeUtilsCore.obj
 0002:00004e98       ??_R2?$DrawLine@MMHHMMEH@@8 0000000180068e98     insertShapeUtilsCore.obj
 0002:00004eb8       ??_R4?$DrawLine@MMHHMMEH@@6B@ 0000000180068eb8     insertShapeUtilsCore.obj
 0002:00004ee0       ??_R4?$DrawPolygon@MMHHMMEE@@6B@ 0000000180068ee0     insertShapeUtilsCore.obj
 0002:00004f08       ??_R3?$DrawPolygon@MMHHMMEE@@8 0000000180068f08     insertShapeUtilsCore.obj
 0002:00004f20       ??_R2?$DrawPolygon@MMHHMMEE@@8 0000000180068f20     insertShapeUtilsCore.obj
 0002:00004f48       ??_R1A@?0A@EA@?$DrawPolygon@MMHHMMEE@@8 0000000180068f48     insertShapeUtilsCore.obj
 0002:00004f70       ??_R4?$DrawAnyLine@MMHHMMEH@@6B@ 0000000180068f70     insertShapeUtilsCore.obj
 0002:00004f98       ??_R3?$DrawAnyLine@MMHHMMEH@@8 0000000180068f98     insertShapeUtilsCore.obj
 0002:00004fb0       ??_R2?$DrawAnyLine@MMHHMMEH@@8 0000000180068fb0     insertShapeUtilsCore.obj
 0002:00004fd8       ??_R1A@?0A@EA@?$DrawAnyLine@MMHHMMEH@@8 0000000180068fd8     insertShapeUtilsCore.obj
 0002:00005000       ??_R4?$DrawAnyLine@MMHHMMEE@@6B@ 0000000180069000     insertShapeUtilsCore.obj
 0002:00005028       ??_R3?$DrawAnyLine@MMHHMMEE@@8 0000000180069028     insertShapeUtilsCore.obj
 0002:00005040       ??_R2?$DrawAnyLine@MMHHMMEE@@8 0000000180069040     insertShapeUtilsCore.obj
 0002:00005068       ??_R1A@?0A@EA@?$DrawAnyLine@MMHHMMEE@@8 0000000180069068     insertShapeUtilsCore.obj
 0002:00005090       ??_R4?$DrawCircleAnySize@MMHHMMEHH@@6B@ 0000000180069090     insertShapeUtilsCore.obj
 0002:000050b8       ??_R3?$DrawCircleAnySize@MMHHMMEHH@@8 00000001800690b8     insertShapeUtilsCore.obj
 0002:000050d0       ??_R2?$DrawCircleAnySize@MMHHMMEHH@@8 00000001800690d0     insertShapeUtilsCore.obj
 0002:000050f8       ??_R1A@?0A@EA@?$DrawCircleAnySize@MMHHMMEHH@@8 00000001800690f8     insertShapeUtilsCore.obj
 0002:00005120       ??_R1A@?0A@EA@?$DrawCircle@MMHHMMEHH@@8 0000000180069120     insertShapeUtilsCore.obj
 0002:00005148       ??_R3?$DrawCircle@MMHHMMEHH@@8 0000000180069148     insertShapeUtilsCore.obj
 0002:00005160       ??_R2?$DrawCircle@MMHHMMEHH@@8 0000000180069160     insertShapeUtilsCore.obj
 0002:00005180       ??_R4?$DrawCircle@MMHHMMEHH@@6B@ 0000000180069180     insertShapeUtilsCore.obj
 0002:000051a8       ??_R4?$DrawCircleAnySize@MMHHMMEEH@@6B@ 00000001800691a8     insertShapeUtilsCore.obj
 0002:000051d0       ??_R3?$DrawCircleAnySize@MMHHMMEEH@@8 00000001800691d0     insertShapeUtilsCore.obj
 0002:000051e8       ??_R2?$DrawCircleAnySize@MMHHMMEEH@@8 00000001800691e8     insertShapeUtilsCore.obj
 0002:00005210       ??_R1A@?0A@EA@?$DrawCircleAnySize@MMHHMMEEH@@8 0000000180069210     insertShapeUtilsCore.obj
 0002:00005238       ??_R1A@?0A@EA@?$DrawCircle@MMHHMMEEH@@8 0000000180069238     insertShapeUtilsCore.obj
 0002:00005260       ??_R3?$DrawCircle@MMHHMMEEH@@8 0000000180069260     insertShapeUtilsCore.obj
 0002:00005278       ??_R2?$DrawCircle@MMHHMMEEH@@8 0000000180069278     insertShapeUtilsCore.obj
 0002:00005298       ??_R4?$DrawCircle@MMHHMMEEH@@6B@ 0000000180069298     insertShapeUtilsCore.obj
 0002:000052c0       ??_R4?$DrawCircleAnySize@MMHHMMEHE@@6B@ 00000001800692c0     insertShapeUtilsCore.obj
 0002:000052e8       ??_R3?$DrawCircleAnySize@MMHHMMEHE@@8 00000001800692e8     insertShapeUtilsCore.obj
 0002:00005300       ??_R2?$DrawCircleAnySize@MMHHMMEHE@@8 0000000180069300     insertShapeUtilsCore.obj
 0002:00005328       ??_R1A@?0A@EA@?$DrawCircleAnySize@MMHHMMEHE@@8 0000000180069328     insertShapeUtilsCore.obj
 0002:00005350       ??_R1A@?0A@EA@?$DrawCircle@MMHHMMEHE@@8 0000000180069350     insertShapeUtilsCore.obj
 0002:00005378       ??_R3?$DrawCircle@MMHHMMEHE@@8 0000000180069378     insertShapeUtilsCore.obj
 0002:00005390       ??_R2?$DrawCircle@MMHHMMEHE@@8 0000000180069390     insertShapeUtilsCore.obj
 0002:000053b0       ??_R4?$DrawCircle@MMHHMMEHE@@6B@ 00000001800693b0     insertShapeUtilsCore.obj
 0002:000053d8       ??_R4?$DrawCircleAnySize@MMHHMMEEE@@6B@ 00000001800693d8     insertShapeUtilsCore.obj
 0002:00005400       ??_R3?$DrawCircleAnySize@MMHHMMEEE@@8 0000000180069400     insertShapeUtilsCore.obj
 0002:00005418       ??_R2?$DrawCircleAnySize@MMHHMMEEE@@8 0000000180069418     insertShapeUtilsCore.obj
 0002:00005440       ??_R1A@?0A@EA@?$DrawCircleAnySize@MMHHMMEEE@@8 0000000180069440     insertShapeUtilsCore.obj
 0002:00005468       ??_R1A@?0A@EA@?$DrawCircle@MMHHMMEEE@@8 0000000180069468     insertShapeUtilsCore.obj
 0002:00005490       ??_R3?$DrawCircle@MMHHMMEEE@@8 0000000180069490     insertShapeUtilsCore.obj
 0002:000054a8       ??_R2?$DrawCircle@MMHHMMEEE@@8 00000001800694a8     insertShapeUtilsCore.obj
 0002:000054c8       ??_R4?$DrawCircle@MMHHMMEEE@@6B@ 00000001800694c8     insertShapeUtilsCore.obj
 0002:000054f0       ??_R4?$DrawFilledRectangleAnySize@NNHHNNE@@6B@ 00000001800694f0     insertShapeUtilsCore.obj
 0002:00005518       ??_R3?$DrawFilledRectangleAnySize@NNHHNNE@@8 0000000180069518     insertShapeUtilsCore.obj
 0002:00005530       ??_R2?$DrawFilledRectangleAnySize@NNHHNNE@@8 0000000180069530     insertShapeUtilsCore.obj
 0002:00005558       ??_R1A@?0A@EA@?$DrawFilledRectangleAnySize@NNHHNNE@@8 0000000180069558     insertShapeUtilsCore.obj
 0002:00005580       ??_R1A@?0A@EA@?$DrawFilledRectangle@NNHHNNE@@8 0000000180069580     insertShapeUtilsCore.obj
 0002:000055a8       ??_R3?$DrawFilledRectangle@NNHHNNE@@8 00000001800695a8     insertShapeUtilsCore.obj
 0002:000055c0       ??_R2?$DrawFilledRectangle@NNHHNNE@@8 00000001800695c0     insertShapeUtilsCore.obj
 0002:000055e0       ??_R1A@?0A@EA@?$DrawCommon@NNHHNNEH@@8 00000001800695e0     insertShapeUtilsCore.obj
 0002:00005608       ??_R3?$DrawCommon@NNHHNNEH@@8 0000000180069608     insertShapeUtilsCore.obj
 0002:00005620       ??_R2?$DrawCommon@NNHHNNEH@@8 0000000180069620     insertShapeUtilsCore.obj
 0002:00005638       ??_R4?$DrawFilledRectangle@NNHHNNE@@6B@ 0000000180069638     insertShapeUtilsCore.obj
 0002:00005660       ??_R4?$DrawCommon@NNHHNNEH@@6B@ 0000000180069660     insertShapeUtilsCore.obj
 0002:00005688       ??_R4?$DrawRectangleAnySize@NNHHNNE@@6B@ 0000000180069688     insertShapeUtilsCore.obj
 0002:000056b0       ??_R3?$DrawRectangleAnySize@NNHHNNE@@8 00000001800696b0     insertShapeUtilsCore.obj
 0002:000056c8       ??_R2?$DrawRectangleAnySize@NNHHNNE@@8 00000001800696c8     insertShapeUtilsCore.obj
 0002:000056f8       ??_R1A@?0A@EA@?$DrawRectangleAnySize@NNHHNNE@@8 00000001800696f8     insertShapeUtilsCore.obj
 0002:00005720       ??_R1A@?0A@EA@?$DrawMarkerLine@NNHHNNEE@@8 0000000180069720     insertShapeUtilsCore.obj
 0002:00005748       ??_R3?$DrawMarkerLine@NNHHNNEE@@8 0000000180069748     insertShapeUtilsCore.obj
 0002:00005760       ??_R2?$DrawMarkerLine@NNHHNNEE@@8 0000000180069760     insertShapeUtilsCore.obj
 0002:00005788       ??_R1A@?0A@EA@?$DrawLine@NNHHNNEE@@8 0000000180069788     insertShapeUtilsCore.obj
 0002:000057b0       ??_R3?$DrawLine@NNHHNNEE@@8 00000001800697b0     insertShapeUtilsCore.obj
 0002:000057c8       ??_R2?$DrawLine@NNHHNNEE@@8 00000001800697c8     insertShapeUtilsCore.obj
 0002:000057e8       ??_R1A@?0A@EA@?$DrawCommon@NNHHNNEE@@8 00000001800697e8     insertShapeUtilsCore.obj
 0002:00005810       ??_R3?$DrawCommon@NNHHNNEE@@8 0000000180069810     insertShapeUtilsCore.obj
 0002:00005828       ??_R2?$DrawCommon@NNHHNNEE@@8 0000000180069828     insertShapeUtilsCore.obj
 0002:00005840       ??_R4?$DrawMarkerLine@NNHHNNEE@@6B@ 0000000180069840     insertShapeUtilsCore.obj
 0002:00005868       ??_R4?$DrawLine@NNHHNNEE@@6B@ 0000000180069868     insertShapeUtilsCore.obj
 0002:00005890       ??_R4?$DrawCommon@NNHHNNEE@@6B@ 0000000180069890     insertShapeUtilsCore.obj
 0002:000058b8       ??_R4?$DrawFilledPolygon@NNHHNNEH@@6B@ 00000001800698b8     insertShapeUtilsCore.obj
 0002:000058e0       ??_R3?$DrawFilledPolygon@NNHHNNEH@@8 00000001800698e0     insertShapeUtilsCore.obj
 0002:000058f8       ??_R2?$DrawFilledPolygon@NNHHNNEH@@8 00000001800698f8     insertShapeUtilsCore.obj
 0002:00005918       ??_R1A@?0A@EA@?$DrawFilledPolygon@NNHHNNEH@@8 0000000180069918     insertShapeUtilsCore.obj
 0002:00005940       ??_R4?$DrawFilledPolygon@NNHHNNEE@@6B@ 0000000180069940     insertShapeUtilsCore.obj
 0002:00005968       ??_R3?$DrawFilledPolygon@NNHHNNEE@@8 0000000180069968     insertShapeUtilsCore.obj
 0002:00005980       ??_R2?$DrawFilledPolygon@NNHHNNEE@@8 0000000180069980     insertShapeUtilsCore.obj
 0002:000059a0       ??_R1A@?0A@EA@?$DrawFilledPolygon@NNHHNNEE@@8 00000001800699a0     insertShapeUtilsCore.obj
 0002:000059c8       ??_R4?$DrawPolygon@NNHHNNEH@@6B@ 00000001800699c8     insertShapeUtilsCore.obj
 0002:000059f0       ??_R3?$DrawPolygon@NNHHNNEH@@8 00000001800699f0     insertShapeUtilsCore.obj
 0002:00005a08       ??_R2?$DrawPolygon@NNHHNNEH@@8 0000000180069a08     insertShapeUtilsCore.obj
 0002:00005a30       ??_R1A@?0A@EA@?$DrawPolygon@NNHHNNEH@@8 0000000180069a30     insertShapeUtilsCore.obj
 0002:00005a58       ??_R1A@?0A@EA@?$DrawLine@NNHHNNEH@@8 0000000180069a58     insertShapeUtilsCore.obj
 0002:00005a80       ??_R3?$DrawLine@NNHHNNEH@@8 0000000180069a80     insertShapeUtilsCore.obj
 0002:00005a98       ??_R2?$DrawLine@NNHHNNEH@@8 0000000180069a98     insertShapeUtilsCore.obj
 0002:00005ab8       ??_R4?$DrawLine@NNHHNNEH@@6B@ 0000000180069ab8     insertShapeUtilsCore.obj
 0002:00005ae0       ??_R4?$DrawPolygon@NNHHNNEE@@6B@ 0000000180069ae0     insertShapeUtilsCore.obj
 0002:00005b08       ??_R3?$DrawPolygon@NNHHNNEE@@8 0000000180069b08     insertShapeUtilsCore.obj
 0002:00005b20       ??_R2?$DrawPolygon@NNHHNNEE@@8 0000000180069b20     insertShapeUtilsCore.obj
 0002:00005b48       ??_R1A@?0A@EA@?$DrawPolygon@NNHHNNEE@@8 0000000180069b48     insertShapeUtilsCore.obj
 0002:00005b70       ??_R4?$DrawAnyLine@NNHHNNEH@@6B@ 0000000180069b70     insertShapeUtilsCore.obj
 0002:00005b98       ??_R3?$DrawAnyLine@NNHHNNEH@@8 0000000180069b98     insertShapeUtilsCore.obj
 0002:00005bb0       ??_R2?$DrawAnyLine@NNHHNNEH@@8 0000000180069bb0     insertShapeUtilsCore.obj
 0002:00005bd8       ??_R1A@?0A@EA@?$DrawAnyLine@NNHHNNEH@@8 0000000180069bd8     insertShapeUtilsCore.obj
 0002:00005c00       ??_R4?$DrawAnyLine@NNHHNNEE@@6B@ 0000000180069c00     insertShapeUtilsCore.obj
 0002:00005c28       ??_R3?$DrawAnyLine@NNHHNNEE@@8 0000000180069c28     insertShapeUtilsCore.obj
 0002:00005c40       ??_R2?$DrawAnyLine@NNHHNNEE@@8 0000000180069c40     insertShapeUtilsCore.obj
 0002:00005c68       ??_R1A@?0A@EA@?$DrawAnyLine@NNHHNNEE@@8 0000000180069c68     insertShapeUtilsCore.obj
 0002:00005c90       ??_R4?$DrawCircleAnySize@NNHHNNEHH@@6B@ 0000000180069c90     insertShapeUtilsCore.obj
 0002:00005cb8       ??_R3?$DrawCircleAnySize@NNHHNNEHH@@8 0000000180069cb8     insertShapeUtilsCore.obj
 0002:00005cd0       ??_R2?$DrawCircleAnySize@NNHHNNEHH@@8 0000000180069cd0     insertShapeUtilsCore.obj
 0002:00005cf8       ??_R1A@?0A@EA@?$DrawCircleAnySize@NNHHNNEHH@@8 0000000180069cf8     insertShapeUtilsCore.obj
 0002:00005d20       ??_R1A@?0A@EA@?$DrawCircle@NNHHNNEHH@@8 0000000180069d20     insertShapeUtilsCore.obj
 0002:00005d48       ??_R3?$DrawCircle@NNHHNNEHH@@8 0000000180069d48     insertShapeUtilsCore.obj
 0002:00005d60       ??_R2?$DrawCircle@NNHHNNEHH@@8 0000000180069d60     insertShapeUtilsCore.obj
 0002:00005d80       ??_R4?$DrawCircle@NNHHNNEHH@@6B@ 0000000180069d80     insertShapeUtilsCore.obj
 0002:00005da8       ??_R4?$DrawCircleAnySize@NNHHNNEEH@@6B@ 0000000180069da8     insertShapeUtilsCore.obj
 0002:00005dd0       ??_R3?$DrawCircleAnySize@NNHHNNEEH@@8 0000000180069dd0     insertShapeUtilsCore.obj
 0002:00005de8       ??_R2?$DrawCircleAnySize@NNHHNNEEH@@8 0000000180069de8     insertShapeUtilsCore.obj
 0002:00005e10       ??_R1A@?0A@EA@?$DrawCircleAnySize@NNHHNNEEH@@8 0000000180069e10     insertShapeUtilsCore.obj
 0002:00005e38       ??_R1A@?0A@EA@?$DrawCircle@NNHHNNEEH@@8 0000000180069e38     insertShapeUtilsCore.obj
 0002:00005e60       ??_R3?$DrawCircle@NNHHNNEEH@@8 0000000180069e60     insertShapeUtilsCore.obj
 0002:00005e78       ??_R2?$DrawCircle@NNHHNNEEH@@8 0000000180069e78     insertShapeUtilsCore.obj
 0002:00005e98       ??_R4?$DrawCircle@NNHHNNEEH@@6B@ 0000000180069e98     insertShapeUtilsCore.obj
 0002:00005ec0       ??_R4?$DrawCircleAnySize@NNHHNNEHE@@6B@ 0000000180069ec0     insertShapeUtilsCore.obj
 0002:00005ee8       ??_R3?$DrawCircleAnySize@NNHHNNEHE@@8 0000000180069ee8     insertShapeUtilsCore.obj
 0002:00005f00       ??_R2?$DrawCircleAnySize@NNHHNNEHE@@8 0000000180069f00     insertShapeUtilsCore.obj
 0002:00005f28       ??_R1A@?0A@EA@?$DrawCircleAnySize@NNHHNNEHE@@8 0000000180069f28     insertShapeUtilsCore.obj
 0002:00005f50       ??_R1A@?0A@EA@?$DrawCircle@NNHHNNEHE@@8 0000000180069f50     insertShapeUtilsCore.obj
 0002:00005f78       ??_R3?$DrawCircle@NNHHNNEHE@@8 0000000180069f78     insertShapeUtilsCore.obj
 0002:00005f90       ??_R2?$DrawCircle@NNHHNNEHE@@8 0000000180069f90     insertShapeUtilsCore.obj
 0002:00005fb0       ??_R4?$DrawCircle@NNHHNNEHE@@6B@ 0000000180069fb0     insertShapeUtilsCore.obj
 0002:00005fd8       ??_R4?$DrawCircleAnySize@NNHHNNEEE@@6B@ 0000000180069fd8     insertShapeUtilsCore.obj
 0002:00006000       ??_R3?$DrawCircleAnySize@NNHHNNEEE@@8 000000018006a000     insertShapeUtilsCore.obj
 0002:00006018       ??_R2?$DrawCircleAnySize@NNHHNNEEE@@8 000000018006a018     insertShapeUtilsCore.obj
 0002:00006040       ??_R1A@?0A@EA@?$DrawCircleAnySize@NNHHNNEEE@@8 000000018006a040     insertShapeUtilsCore.obj
 0002:00006068       ??_R1A@?0A@EA@?$DrawCircle@NNHHNNEEE@@8 000000018006a068     insertShapeUtilsCore.obj
 0002:00006090       ??_R3?$DrawCircle@NNHHNNEEE@@8 000000018006a090     insertShapeUtilsCore.obj
 0002:000060a8       ??_R2?$DrawCircle@NNHHNNEEE@@8 000000018006a0a8     insertShapeUtilsCore.obj
 0002:000060c8       ??_R4?$DrawCircle@NNHHNNEEE@@6B@ 000000018006a0c8     insertShapeUtilsCore.obj
 0002:000060f0       ??_R4?$DrawFilledRectangleAnySize@EEHHMME@@6B@ 000000018006a0f0     insertShapeUtilsCore.obj
 0002:00006118       ??_R3?$DrawFilledRectangleAnySize@EEHHMME@@8 000000018006a118     insertShapeUtilsCore.obj
 0002:00006130       ??_R2?$DrawFilledRectangleAnySize@EEHHMME@@8 000000018006a130     insertShapeUtilsCore.obj
 0002:00006158       ??_R1A@?0A@EA@?$DrawFilledRectangleAnySize@EEHHMME@@8 000000018006a158     insertShapeUtilsCore.obj
 0002:00006180       ??_R1A@?0A@EA@?$DrawFilledRectangle@EEHHMME@@8 000000018006a180     insertShapeUtilsCore.obj
 0002:000061a8       ??_R3?$DrawFilledRectangle@EEHHMME@@8 000000018006a1a8     insertShapeUtilsCore.obj
 0002:000061c0       ??_R2?$DrawFilledRectangle@EEHHMME@@8 000000018006a1c0     insertShapeUtilsCore.obj
 0002:000061e0       ??_R1A@?0A@EA@?$DrawCommon@EEHHMMEH@@8 000000018006a1e0     insertShapeUtilsCore.obj
 0002:00006208       ??_R3?$DrawCommon@EEHHMMEH@@8 000000018006a208     insertShapeUtilsCore.obj
 0002:00006220       ??_R2?$DrawCommon@EEHHMMEH@@8 000000018006a220     insertShapeUtilsCore.obj
 0002:00006238       ??_R4?$DrawFilledRectangle@EEHHMME@@6B@ 000000018006a238     insertShapeUtilsCore.obj
 0002:00006260       ??_R4?$DrawCommon@EEHHMMEH@@6B@ 000000018006a260     insertShapeUtilsCore.obj
 0002:00006288       ??_R4?$DrawRectangleAnySize@EEHHMME@@6B@ 000000018006a288     insertShapeUtilsCore.obj
 0002:000062b0       ??_R3?$DrawRectangleAnySize@EEHHMME@@8 000000018006a2b0     insertShapeUtilsCore.obj
 0002:000062c8       ??_R2?$DrawRectangleAnySize@EEHHMME@@8 000000018006a2c8     insertShapeUtilsCore.obj
 0002:000062f8       ??_R1A@?0A@EA@?$DrawRectangleAnySize@EEHHMME@@8 000000018006a2f8     insertShapeUtilsCore.obj
 0002:00006320       ??_R1A@?0A@EA@?$DrawMarkerLine@EEHHMMEE@@8 000000018006a320     insertShapeUtilsCore.obj
 0002:00006348       ??_R3?$DrawMarkerLine@EEHHMMEE@@8 000000018006a348     insertShapeUtilsCore.obj
 0002:00006360       ??_R2?$DrawMarkerLine@EEHHMMEE@@8 000000018006a360     insertShapeUtilsCore.obj
 0002:00006388       ??_R1A@?0A@EA@?$DrawLine@EEHHMMEE@@8 000000018006a388     insertShapeUtilsCore.obj
 0002:000063b0       ??_R3?$DrawLine@EEHHMMEE@@8 000000018006a3b0     insertShapeUtilsCore.obj
 0002:000063c8       ??_R2?$DrawLine@EEHHMMEE@@8 000000018006a3c8     insertShapeUtilsCore.obj
 0002:000063e8       ??_R1A@?0A@EA@?$DrawCommon@EEHHMMEE@@8 000000018006a3e8     insertShapeUtilsCore.obj
 0002:00006410       ??_R3?$DrawCommon@EEHHMMEE@@8 000000018006a410     insertShapeUtilsCore.obj
 0002:00006428       ??_R2?$DrawCommon@EEHHMMEE@@8 000000018006a428     insertShapeUtilsCore.obj
 0002:00006440       ??_R4?$DrawMarkerLine@EEHHMMEE@@6B@ 000000018006a440     insertShapeUtilsCore.obj
 0002:00006468       ??_R4?$DrawLine@EEHHMMEE@@6B@ 000000018006a468     insertShapeUtilsCore.obj
 0002:00006490       ??_R4?$DrawCommon@EEHHMMEE@@6B@ 000000018006a490     insertShapeUtilsCore.obj
 0002:000064b8       ??_R4?$DrawFilledPolygon@EEHHMMEH@@6B@ 000000018006a4b8     insertShapeUtilsCore.obj
 0002:000064e0       ??_R3?$DrawFilledPolygon@EEHHMMEH@@8 000000018006a4e0     insertShapeUtilsCore.obj
 0002:000064f8       ??_R2?$DrawFilledPolygon@EEHHMMEH@@8 000000018006a4f8     insertShapeUtilsCore.obj
 0002:00006518       ??_R1A@?0A@EA@?$DrawFilledPolygon@EEHHMMEH@@8 000000018006a518     insertShapeUtilsCore.obj
 0002:00006540       ??_R4?$DrawFilledPolygon@EEHHMMEE@@6B@ 000000018006a540     insertShapeUtilsCore.obj
 0002:00006568       ??_R3?$DrawFilledPolygon@EEHHMMEE@@8 000000018006a568     insertShapeUtilsCore.obj
 0002:00006580       ??_R2?$DrawFilledPolygon@EEHHMMEE@@8 000000018006a580     insertShapeUtilsCore.obj
 0002:000065a0       ??_R1A@?0A@EA@?$DrawFilledPolygon@EEHHMMEE@@8 000000018006a5a0     insertShapeUtilsCore.obj
 0002:000065c8       ??_R4?$DrawPolygon@EEHHMMEH@@6B@ 000000018006a5c8     insertShapeUtilsCore.obj
 0002:000065f0       ??_R3?$DrawPolygon@EEHHMMEH@@8 000000018006a5f0     insertShapeUtilsCore.obj
 0002:00006608       ??_R2?$DrawPolygon@EEHHMMEH@@8 000000018006a608     insertShapeUtilsCore.obj
 0002:00006630       ??_R1A@?0A@EA@?$DrawPolygon@EEHHMMEH@@8 000000018006a630     insertShapeUtilsCore.obj
 0002:00006658       ??_R1A@?0A@EA@?$DrawLine@EEHHMMEH@@8 000000018006a658     insertShapeUtilsCore.obj
 0002:00006680       ??_R3?$DrawLine@EEHHMMEH@@8 000000018006a680     insertShapeUtilsCore.obj
 0002:00006698       ??_R2?$DrawLine@EEHHMMEH@@8 000000018006a698     insertShapeUtilsCore.obj
 0002:000066b8       ??_R4?$DrawLine@EEHHMMEH@@6B@ 000000018006a6b8     insertShapeUtilsCore.obj
 0002:000066e0       ??_R4?$DrawPolygon@EEHHMMEE@@6B@ 000000018006a6e0     insertShapeUtilsCore.obj
 0002:00006708       ??_R3?$DrawPolygon@EEHHMMEE@@8 000000018006a708     insertShapeUtilsCore.obj
 0002:00006720       ??_R2?$DrawPolygon@EEHHMMEE@@8 000000018006a720     insertShapeUtilsCore.obj
 0002:00006748       ??_R1A@?0A@EA@?$DrawPolygon@EEHHMMEE@@8 000000018006a748     insertShapeUtilsCore.obj
 0002:00006770       ??_R4?$DrawAnyLine@EEHHMMEH@@6B@ 000000018006a770     insertShapeUtilsCore.obj
 0002:00006798       ??_R3?$DrawAnyLine@EEHHMMEH@@8 000000018006a798     insertShapeUtilsCore.obj
 0002:000067b0       ??_R2?$DrawAnyLine@EEHHMMEH@@8 000000018006a7b0     insertShapeUtilsCore.obj
 0002:000067d8       ??_R1A@?0A@EA@?$DrawAnyLine@EEHHMMEH@@8 000000018006a7d8     insertShapeUtilsCore.obj
 0002:00006800       ??_R4?$DrawAnyLine@EEHHMMEE@@6B@ 000000018006a800     insertShapeUtilsCore.obj
 0002:00006828       ??_R3?$DrawAnyLine@EEHHMMEE@@8 000000018006a828     insertShapeUtilsCore.obj
 0002:00006840       ??_R2?$DrawAnyLine@EEHHMMEE@@8 000000018006a840     insertShapeUtilsCore.obj
 0002:00006868       ??_R1A@?0A@EA@?$DrawAnyLine@EEHHMMEE@@8 000000018006a868     insertShapeUtilsCore.obj
 0002:00006890       ??_R4?$DrawCircleAnySize@EEHHMMEHH@@6B@ 000000018006a890     insertShapeUtilsCore.obj
 0002:000068b8       ??_R3?$DrawCircleAnySize@EEHHMMEHH@@8 000000018006a8b8     insertShapeUtilsCore.obj
 0002:000068d0       ??_R2?$DrawCircleAnySize@EEHHMMEHH@@8 000000018006a8d0     insertShapeUtilsCore.obj
 0002:000068f8       ??_R1A@?0A@EA@?$DrawCircleAnySize@EEHHMMEHH@@8 000000018006a8f8     insertShapeUtilsCore.obj
 0002:00006920       ??_R1A@?0A@EA@?$DrawCircle@EEHHMMEHH@@8 000000018006a920     insertShapeUtilsCore.obj
 0002:00006948       ??_R3?$DrawCircle@EEHHMMEHH@@8 000000018006a948     insertShapeUtilsCore.obj
 0002:00006960       ??_R2?$DrawCircle@EEHHMMEHH@@8 000000018006a960     insertShapeUtilsCore.obj
 0002:00006980       ??_R4?$DrawCircle@EEHHMMEHH@@6B@ 000000018006a980     insertShapeUtilsCore.obj
 0002:000069a8       ??_R4?$DrawCircleAnySize@EEHHMMEEH@@6B@ 000000018006a9a8     insertShapeUtilsCore.obj
 0002:000069d0       ??_R3?$DrawCircleAnySize@EEHHMMEEH@@8 000000018006a9d0     insertShapeUtilsCore.obj
 0002:000069e8       ??_R2?$DrawCircleAnySize@EEHHMMEEH@@8 000000018006a9e8     insertShapeUtilsCore.obj
 0002:00006a10       ??_R1A@?0A@EA@?$DrawCircleAnySize@EEHHMMEEH@@8 000000018006aa10     insertShapeUtilsCore.obj
 0002:00006a38       ??_R1A@?0A@EA@?$DrawCircle@EEHHMMEEH@@8 000000018006aa38     insertShapeUtilsCore.obj
 0002:00006a60       ??_R3?$DrawCircle@EEHHMMEEH@@8 000000018006aa60     insertShapeUtilsCore.obj
 0002:00006a78       ??_R2?$DrawCircle@EEHHMMEEH@@8 000000018006aa78     insertShapeUtilsCore.obj
 0002:00006a98       ??_R4?$DrawCircle@EEHHMMEEH@@6B@ 000000018006aa98     insertShapeUtilsCore.obj
 0002:00006ac0       ??_R4?$DrawCircleAnySize@EEHHMMEHE@@6B@ 000000018006aac0     insertShapeUtilsCore.obj
 0002:00006ae8       ??_R3?$DrawCircleAnySize@EEHHMMEHE@@8 000000018006aae8     insertShapeUtilsCore.obj
 0002:00006b00       ??_R2?$DrawCircleAnySize@EEHHMMEHE@@8 000000018006ab00     insertShapeUtilsCore.obj
 0002:00006b28       ??_R1A@?0A@EA@?$DrawCircleAnySize@EEHHMMEHE@@8 000000018006ab28     insertShapeUtilsCore.obj
 0002:00006b50       ??_R1A@?0A@EA@?$DrawCircle@EEHHMMEHE@@8 000000018006ab50     insertShapeUtilsCore.obj
 0002:00006b78       ??_R3?$DrawCircle@EEHHMMEHE@@8 000000018006ab78     insertShapeUtilsCore.obj
 0002:00006b90       ??_R2?$DrawCircle@EEHHMMEHE@@8 000000018006ab90     insertShapeUtilsCore.obj
 0002:00006bb0       ??_R4?$DrawCircle@EEHHMMEHE@@6B@ 000000018006abb0     insertShapeUtilsCore.obj
 0002:00006bd8       ??_R4?$DrawCircleAnySize@EEHHMMEEE@@6B@ 000000018006abd8     insertShapeUtilsCore.obj
 0002:00006c00       ??_R3?$DrawCircleAnySize@EEHHMMEEE@@8 000000018006ac00     insertShapeUtilsCore.obj
 0002:00006c18       ??_R2?$DrawCircleAnySize@EEHHMMEEE@@8 000000018006ac18     insertShapeUtilsCore.obj
 0002:00006c40       ??_R1A@?0A@EA@?$DrawCircleAnySize@EEHHMMEEE@@8 000000018006ac40     insertShapeUtilsCore.obj
 0002:00006c68       ??_R1A@?0A@EA@?$DrawCircle@EEHHMMEEE@@8 000000018006ac68     insertShapeUtilsCore.obj
 0002:00006c90       ??_R3?$DrawCircle@EEHHMMEEE@@8 000000018006ac90     insertShapeUtilsCore.obj
 0002:00006ca8       ??_R2?$DrawCircle@EEHHMMEEE@@8 000000018006aca8     insertShapeUtilsCore.obj
 0002:00006cc8       ??_R4?$DrawCircle@EEHHMMEEE@@6B@ 000000018006acc8     insertShapeUtilsCore.obj
 0002:00006cf0       ??_R4?$DrawFilledRectangleAnySize@GGHHMME@@6B@ 000000018006acf0     insertShapeUtilsCore.obj
 0002:00006d18       ??_R3?$DrawFilledRectangleAnySize@GGHHMME@@8 000000018006ad18     insertShapeUtilsCore.obj
 0002:00006d30       ??_R2?$DrawFilledRectangleAnySize@GGHHMME@@8 000000018006ad30     insertShapeUtilsCore.obj
 0002:00006d58       ??_R1A@?0A@EA@?$DrawFilledRectangleAnySize@GGHHMME@@8 000000018006ad58     insertShapeUtilsCore.obj
 0002:00006d80       ??_R1A@?0A@EA@?$DrawFilledRectangle@GGHHMME@@8 000000018006ad80     insertShapeUtilsCore.obj
 0002:00006da8       ??_R3?$DrawFilledRectangle@GGHHMME@@8 000000018006ada8     insertShapeUtilsCore.obj
 0002:00006dc0       ??_R2?$DrawFilledRectangle@GGHHMME@@8 000000018006adc0     insertShapeUtilsCore.obj
 0002:00006de0       ??_R1A@?0A@EA@?$DrawCommon@GGHHMMEH@@8 000000018006ade0     insertShapeUtilsCore.obj
 0002:00006e08       ??_R3?$DrawCommon@GGHHMMEH@@8 000000018006ae08     insertShapeUtilsCore.obj
 0002:00006e20       ??_R2?$DrawCommon@GGHHMMEH@@8 000000018006ae20     insertShapeUtilsCore.obj
 0002:00006e38       ??_R4?$DrawFilledRectangle@GGHHMME@@6B@ 000000018006ae38     insertShapeUtilsCore.obj
 0002:00006e60       ??_R4?$DrawCommon@GGHHMMEH@@6B@ 000000018006ae60     insertShapeUtilsCore.obj
 0002:00006e88       ??_R4?$DrawRectangleAnySize@GGHHMME@@6B@ 000000018006ae88     insertShapeUtilsCore.obj
 0002:00006eb0       ??_R3?$DrawRectangleAnySize@GGHHMME@@8 000000018006aeb0     insertShapeUtilsCore.obj
 0002:00006ec8       ??_R2?$DrawRectangleAnySize@GGHHMME@@8 000000018006aec8     insertShapeUtilsCore.obj
 0002:00006ef8       ??_R1A@?0A@EA@?$DrawRectangleAnySize@GGHHMME@@8 000000018006aef8     insertShapeUtilsCore.obj
 0002:00006f20       ??_R1A@?0A@EA@?$DrawMarkerLine@GGHHMMEE@@8 000000018006af20     insertShapeUtilsCore.obj
 0002:00006f48       ??_R3?$DrawMarkerLine@GGHHMMEE@@8 000000018006af48     insertShapeUtilsCore.obj
 0002:00006f60       ??_R2?$DrawMarkerLine@GGHHMMEE@@8 000000018006af60     insertShapeUtilsCore.obj
 0002:00006f88       ??_R1A@?0A@EA@?$DrawLine@GGHHMMEE@@8 000000018006af88     insertShapeUtilsCore.obj
 0002:00006fb0       ??_R3?$DrawLine@GGHHMMEE@@8 000000018006afb0     insertShapeUtilsCore.obj
 0002:00006fc8       ??_R2?$DrawLine@GGHHMMEE@@8 000000018006afc8     insertShapeUtilsCore.obj
 0002:00006fe8       ??_R1A@?0A@EA@?$DrawCommon@GGHHMMEE@@8 000000018006afe8     insertShapeUtilsCore.obj
 0002:00007010       ??_R3?$DrawCommon@GGHHMMEE@@8 000000018006b010     insertShapeUtilsCore.obj
 0002:00007028       ??_R2?$DrawCommon@GGHHMMEE@@8 000000018006b028     insertShapeUtilsCore.obj
 0002:00007040       ??_R4?$DrawMarkerLine@GGHHMMEE@@6B@ 000000018006b040     insertShapeUtilsCore.obj
 0002:00007068       ??_R4?$DrawLine@GGHHMMEE@@6B@ 000000018006b068     insertShapeUtilsCore.obj
 0002:00007090       ??_R4?$DrawCommon@GGHHMMEE@@6B@ 000000018006b090     insertShapeUtilsCore.obj
 0002:000070b8       ??_R4?$DrawFilledPolygon@GGHHMMEH@@6B@ 000000018006b0b8     insertShapeUtilsCore.obj
 0002:000070e0       ??_R3?$DrawFilledPolygon@GGHHMMEH@@8 000000018006b0e0     insertShapeUtilsCore.obj
 0002:000070f8       ??_R2?$DrawFilledPolygon@GGHHMMEH@@8 000000018006b0f8     insertShapeUtilsCore.obj
 0002:00007118       ??_R1A@?0A@EA@?$DrawFilledPolygon@GGHHMMEH@@8 000000018006b118     insertShapeUtilsCore.obj
 0002:00007140       ??_R4?$DrawFilledPolygon@GGHHMMEE@@6B@ 000000018006b140     insertShapeUtilsCore.obj
 0002:00007168       ??_R3?$DrawFilledPolygon@GGHHMMEE@@8 000000018006b168     insertShapeUtilsCore.obj
 0002:00007180       ??_R2?$DrawFilledPolygon@GGHHMMEE@@8 000000018006b180     insertShapeUtilsCore.obj
 0002:000071a0       ??_R1A@?0A@EA@?$DrawFilledPolygon@GGHHMMEE@@8 000000018006b1a0     insertShapeUtilsCore.obj
 0002:000071c8       ??_R4?$DrawPolygon@GGHHMMEH@@6B@ 000000018006b1c8     insertShapeUtilsCore.obj
 0002:000071f0       ??_R3?$DrawPolygon@GGHHMMEH@@8 000000018006b1f0     insertShapeUtilsCore.obj
 0002:00007208       ??_R2?$DrawPolygon@GGHHMMEH@@8 000000018006b208     insertShapeUtilsCore.obj
 0002:00007230       ??_R1A@?0A@EA@?$DrawPolygon@GGHHMMEH@@8 000000018006b230     insertShapeUtilsCore.obj
 0002:00007258       ??_R1A@?0A@EA@?$DrawLine@GGHHMMEH@@8 000000018006b258     insertShapeUtilsCore.obj
 0002:00007280       ??_R3?$DrawLine@GGHHMMEH@@8 000000018006b280     insertShapeUtilsCore.obj
 0002:00007298       ??_R2?$DrawLine@GGHHMMEH@@8 000000018006b298     insertShapeUtilsCore.obj
 0002:000072b8       ??_R4?$DrawLine@GGHHMMEH@@6B@ 000000018006b2b8     insertShapeUtilsCore.obj
 0002:000072e0       ??_R4?$DrawPolygon@GGHHMMEE@@6B@ 000000018006b2e0     insertShapeUtilsCore.obj
 0002:00007308       ??_R3?$DrawPolygon@GGHHMMEE@@8 000000018006b308     insertShapeUtilsCore.obj
 0002:00007320       ??_R2?$DrawPolygon@GGHHMMEE@@8 000000018006b320     insertShapeUtilsCore.obj
 0002:00007348       ??_R1A@?0A@EA@?$DrawPolygon@GGHHMMEE@@8 000000018006b348     insertShapeUtilsCore.obj
 0002:00007370       ??_R4?$DrawAnyLine@GGHHMMEH@@6B@ 000000018006b370     insertShapeUtilsCore.obj
 0002:00007398       ??_R3?$DrawAnyLine@GGHHMMEH@@8 000000018006b398     insertShapeUtilsCore.obj
 0002:000073b0       ??_R2?$DrawAnyLine@GGHHMMEH@@8 000000018006b3b0     insertShapeUtilsCore.obj
 0002:000073d8       ??_R1A@?0A@EA@?$DrawAnyLine@GGHHMMEH@@8 000000018006b3d8     insertShapeUtilsCore.obj
 0002:00007400       ??_R4?$DrawAnyLine@GGHHMMEE@@6B@ 000000018006b400     insertShapeUtilsCore.obj
 0002:00007428       ??_R3?$DrawAnyLine@GGHHMMEE@@8 000000018006b428     insertShapeUtilsCore.obj
 0002:00007440       ??_R2?$DrawAnyLine@GGHHMMEE@@8 000000018006b440     insertShapeUtilsCore.obj
 0002:00007468       ??_R1A@?0A@EA@?$DrawAnyLine@GGHHMMEE@@8 000000018006b468     insertShapeUtilsCore.obj
 0002:00007490       ??_R4?$DrawCircleAnySize@GGHHMMEHH@@6B@ 000000018006b490     insertShapeUtilsCore.obj
 0002:000074b8       ??_R3?$DrawCircleAnySize@GGHHMMEHH@@8 000000018006b4b8     insertShapeUtilsCore.obj
 0002:000074d0       ??_R2?$DrawCircleAnySize@GGHHMMEHH@@8 000000018006b4d0     insertShapeUtilsCore.obj
 0002:000074f8       ??_R1A@?0A@EA@?$DrawCircleAnySize@GGHHMMEHH@@8 000000018006b4f8     insertShapeUtilsCore.obj
 0002:00007520       ??_R1A@?0A@EA@?$DrawCircle@GGHHMMEHH@@8 000000018006b520     insertShapeUtilsCore.obj
 0002:00007548       ??_R3?$DrawCircle@GGHHMMEHH@@8 000000018006b548     insertShapeUtilsCore.obj
 0002:00007560       ??_R2?$DrawCircle@GGHHMMEHH@@8 000000018006b560     insertShapeUtilsCore.obj
 0002:00007580       ??_R4?$DrawCircle@GGHHMMEHH@@6B@ 000000018006b580     insertShapeUtilsCore.obj
 0002:000075a8       ??_R4?$DrawCircleAnySize@GGHHMMEEH@@6B@ 000000018006b5a8     insertShapeUtilsCore.obj
 0002:000075d0       ??_R3?$DrawCircleAnySize@GGHHMMEEH@@8 000000018006b5d0     insertShapeUtilsCore.obj
 0002:000075e8       ??_R2?$DrawCircleAnySize@GGHHMMEEH@@8 000000018006b5e8     insertShapeUtilsCore.obj
 0002:00007610       ??_R1A@?0A@EA@?$DrawCircleAnySize@GGHHMMEEH@@8 000000018006b610     insertShapeUtilsCore.obj
 0002:00007638       ??_R1A@?0A@EA@?$DrawCircle@GGHHMMEEH@@8 000000018006b638     insertShapeUtilsCore.obj
 0002:00007660       ??_R3?$DrawCircle@GGHHMMEEH@@8 000000018006b660     insertShapeUtilsCore.obj
 0002:00007678       ??_R2?$DrawCircle@GGHHMMEEH@@8 000000018006b678     insertShapeUtilsCore.obj
 0002:00007698       ??_R4?$DrawCircle@GGHHMMEEH@@6B@ 000000018006b698     insertShapeUtilsCore.obj
 0002:000076c0       ??_R4?$DrawCircleAnySize@GGHHMMEHE@@6B@ 000000018006b6c0     insertShapeUtilsCore.obj
 0002:000076e8       ??_R3?$DrawCircleAnySize@GGHHMMEHE@@8 000000018006b6e8     insertShapeUtilsCore.obj
 0002:00007700       ??_R2?$DrawCircleAnySize@GGHHMMEHE@@8 000000018006b700     insertShapeUtilsCore.obj
 0002:00007728       ??_R1A@?0A@EA@?$DrawCircleAnySize@GGHHMMEHE@@8 000000018006b728     insertShapeUtilsCore.obj
 0002:00007750       ??_R1A@?0A@EA@?$DrawCircle@GGHHMMEHE@@8 000000018006b750     insertShapeUtilsCore.obj
 0002:00007778       ??_R3?$DrawCircle@GGHHMMEHE@@8 000000018006b778     insertShapeUtilsCore.obj
 0002:00007790       ??_R2?$DrawCircle@GGHHMMEHE@@8 000000018006b790     insertShapeUtilsCore.obj
 0002:000077b0       ??_R4?$DrawCircle@GGHHMMEHE@@6B@ 000000018006b7b0     insertShapeUtilsCore.obj
 0002:000077d8       ??_R4?$DrawCircleAnySize@GGHHMMEEE@@6B@ 000000018006b7d8     insertShapeUtilsCore.obj
 0002:00007800       ??_R3?$DrawCircleAnySize@GGHHMMEEE@@8 000000018006b800     insertShapeUtilsCore.obj
 0002:00007818       ??_R2?$DrawCircleAnySize@GGHHMMEEE@@8 000000018006b818     insertShapeUtilsCore.obj
 0002:00007840       ??_R1A@?0A@EA@?$DrawCircleAnySize@GGHHMMEEE@@8 000000018006b840     insertShapeUtilsCore.obj
 0002:00007868       ??_R1A@?0A@EA@?$DrawCircle@GGHHMMEEE@@8 000000018006b868     insertShapeUtilsCore.obj
 0002:00007890       ??_R3?$DrawCircle@GGHHMMEEE@@8 000000018006b890     insertShapeUtilsCore.obj
 0002:000078a8       ??_R2?$DrawCircle@GGHHMMEEE@@8 000000018006b8a8     insertShapeUtilsCore.obj
 0002:000078c8       ??_R4?$DrawCircle@GGHHMMEEE@@6B@ 000000018006b8c8     insertShapeUtilsCore.obj
 0002:000078f0       ??_R4?$DrawFilledRectangleAnySize@FFHHMME@@6B@ 000000018006b8f0     insertShapeUtilsCore.obj
 0002:00007918       ??_R3?$DrawFilledRectangleAnySize@FFHHMME@@8 000000018006b918     insertShapeUtilsCore.obj
 0002:00007930       ??_R2?$DrawFilledRectangleAnySize@FFHHMME@@8 000000018006b930     insertShapeUtilsCore.obj
 0002:00007958       ??_R1A@?0A@EA@?$DrawFilledRectangleAnySize@FFHHMME@@8 000000018006b958     insertShapeUtilsCore.obj
 0002:00007980       ??_R1A@?0A@EA@?$DrawFilledRectangle@FFHHMME@@8 000000018006b980     insertShapeUtilsCore.obj
 0002:000079a8       ??_R3?$DrawFilledRectangle@FFHHMME@@8 000000018006b9a8     insertShapeUtilsCore.obj
 0002:000079c0       ??_R2?$DrawFilledRectangle@FFHHMME@@8 000000018006b9c0     insertShapeUtilsCore.obj
 0002:000079e0       ??_R1A@?0A@EA@?$DrawCommon@FFHHMMEH@@8 000000018006b9e0     insertShapeUtilsCore.obj
 0002:00007a08       ??_R3?$DrawCommon@FFHHMMEH@@8 000000018006ba08     insertShapeUtilsCore.obj
 0002:00007a20       ??_R2?$DrawCommon@FFHHMMEH@@8 000000018006ba20     insertShapeUtilsCore.obj
 0002:00007a38       ??_R4?$DrawFilledRectangle@FFHHMME@@6B@ 000000018006ba38     insertShapeUtilsCore.obj
 0002:00007a60       ??_R4?$DrawCommon@FFHHMMEH@@6B@ 000000018006ba60     insertShapeUtilsCore.obj
 0002:00007a88       ??_R4?$DrawRectangleAnySize@FFHHMME@@6B@ 000000018006ba88     insertShapeUtilsCore.obj
 0002:00007ab0       ??_R3?$DrawRectangleAnySize@FFHHMME@@8 000000018006bab0     insertShapeUtilsCore.obj
 0002:00007ac8       ??_R2?$DrawRectangleAnySize@FFHHMME@@8 000000018006bac8     insertShapeUtilsCore.obj
 0002:00007af8       ??_R1A@?0A@EA@?$DrawRectangleAnySize@FFHHMME@@8 000000018006baf8     insertShapeUtilsCore.obj
 0002:00007b20       ??_R1A@?0A@EA@?$DrawMarkerLine@FFHHMMEE@@8 000000018006bb20     insertShapeUtilsCore.obj
 0002:00007b48       ??_R3?$DrawMarkerLine@FFHHMMEE@@8 000000018006bb48     insertShapeUtilsCore.obj
 0002:00007b60       ??_R2?$DrawMarkerLine@FFHHMMEE@@8 000000018006bb60     insertShapeUtilsCore.obj
 0002:00007b88       ??_R1A@?0A@EA@?$DrawLine@FFHHMMEE@@8 000000018006bb88     insertShapeUtilsCore.obj
 0002:00007bb0       ??_R3?$DrawLine@FFHHMMEE@@8 000000018006bbb0     insertShapeUtilsCore.obj
 0002:00007bc8       ??_R2?$DrawLine@FFHHMMEE@@8 000000018006bbc8     insertShapeUtilsCore.obj
 0002:00007be8       ??_R1A@?0A@EA@?$DrawCommon@FFHHMMEE@@8 000000018006bbe8     insertShapeUtilsCore.obj
 0002:00007c10       ??_R3?$DrawCommon@FFHHMMEE@@8 000000018006bc10     insertShapeUtilsCore.obj
 0002:00007c28       ??_R2?$DrawCommon@FFHHMMEE@@8 000000018006bc28     insertShapeUtilsCore.obj
 0002:00007c40       ??_R4?$DrawMarkerLine@FFHHMMEE@@6B@ 000000018006bc40     insertShapeUtilsCore.obj
 0002:00007c68       ??_R4?$DrawLine@FFHHMMEE@@6B@ 000000018006bc68     insertShapeUtilsCore.obj
 0002:00007c90       ??_R4?$DrawCommon@FFHHMMEE@@6B@ 000000018006bc90     insertShapeUtilsCore.obj
 0002:00007cb8       ??_R4?$DrawFilledPolygon@FFHHMMEH@@6B@ 000000018006bcb8     insertShapeUtilsCore.obj
 0002:00007ce0       ??_R3?$DrawFilledPolygon@FFHHMMEH@@8 000000018006bce0     insertShapeUtilsCore.obj
 0002:00007cf8       ??_R2?$DrawFilledPolygon@FFHHMMEH@@8 000000018006bcf8     insertShapeUtilsCore.obj
 0002:00007d18       ??_R1A@?0A@EA@?$DrawFilledPolygon@FFHHMMEH@@8 000000018006bd18     insertShapeUtilsCore.obj
 0002:00007d40       ??_R4?$DrawFilledPolygon@FFHHMMEE@@6B@ 000000018006bd40     insertShapeUtilsCore.obj
 0002:00007d68       ??_R3?$DrawFilledPolygon@FFHHMMEE@@8 000000018006bd68     insertShapeUtilsCore.obj
 0002:00007d80       ??_R2?$DrawFilledPolygon@FFHHMMEE@@8 000000018006bd80     insertShapeUtilsCore.obj
 0002:00007da0       ??_R1A@?0A@EA@?$DrawFilledPolygon@FFHHMMEE@@8 000000018006bda0     insertShapeUtilsCore.obj
 0002:00007dc8       ??_R4?$DrawPolygon@FFHHMMEH@@6B@ 000000018006bdc8     insertShapeUtilsCore.obj
 0002:00007df0       ??_R3?$DrawPolygon@FFHHMMEH@@8 000000018006bdf0     insertShapeUtilsCore.obj
 0002:00007e08       ??_R2?$DrawPolygon@FFHHMMEH@@8 000000018006be08     insertShapeUtilsCore.obj
 0002:00007e30       ??_R1A@?0A@EA@?$DrawPolygon@FFHHMMEH@@8 000000018006be30     insertShapeUtilsCore.obj
 0002:00007e58       ??_R1A@?0A@EA@?$DrawLine@FFHHMMEH@@8 000000018006be58     insertShapeUtilsCore.obj
 0002:00007e80       ??_R3?$DrawLine@FFHHMMEH@@8 000000018006be80     insertShapeUtilsCore.obj
 0002:00007e98       ??_R2?$DrawLine@FFHHMMEH@@8 000000018006be98     insertShapeUtilsCore.obj
 0002:00007eb8       ??_R4?$DrawLine@FFHHMMEH@@6B@ 000000018006beb8     insertShapeUtilsCore.obj
 0002:00007ee0       ??_R4?$DrawPolygon@FFHHMMEE@@6B@ 000000018006bee0     insertShapeUtilsCore.obj
 0002:00007f08       ??_R3?$DrawPolygon@FFHHMMEE@@8 000000018006bf08     insertShapeUtilsCore.obj
 0002:00007f20       ??_R2?$DrawPolygon@FFHHMMEE@@8 000000018006bf20     insertShapeUtilsCore.obj
 0002:00007f48       ??_R1A@?0A@EA@?$DrawPolygon@FFHHMMEE@@8 000000018006bf48     insertShapeUtilsCore.obj
 0002:00007f70       ??_R4?$DrawAnyLine@FFHHMMEH@@6B@ 000000018006bf70     insertShapeUtilsCore.obj
 0002:00007f98       ??_R3?$DrawAnyLine@FFHHMMEH@@8 000000018006bf98     insertShapeUtilsCore.obj
 0002:00007fb0       ??_R2?$DrawAnyLine@FFHHMMEH@@8 000000018006bfb0     insertShapeUtilsCore.obj
 0002:00007fd8       ??_R1A@?0A@EA@?$DrawAnyLine@FFHHMMEH@@8 000000018006bfd8     insertShapeUtilsCore.obj
 0002:00008000       ??_R4?$DrawAnyLine@FFHHMMEE@@6B@ 000000018006c000     insertShapeUtilsCore.obj
 0002:00008028       ??_R3?$DrawAnyLine@FFHHMMEE@@8 000000018006c028     insertShapeUtilsCore.obj
 0002:00008040       ??_R2?$DrawAnyLine@FFHHMMEE@@8 000000018006c040     insertShapeUtilsCore.obj
 0002:00008068       ??_R1A@?0A@EA@?$DrawAnyLine@FFHHMMEE@@8 000000018006c068     insertShapeUtilsCore.obj
 0002:00008090       ??_R4?$DrawCircleAnySize@FFHHMMEHH@@6B@ 000000018006c090     insertShapeUtilsCore.obj
 0002:000080b8       ??_R3?$DrawCircleAnySize@FFHHMMEHH@@8 000000018006c0b8     insertShapeUtilsCore.obj
 0002:000080d0       ??_R2?$DrawCircleAnySize@FFHHMMEHH@@8 000000018006c0d0     insertShapeUtilsCore.obj
 0002:000080f8       ??_R1A@?0A@EA@?$DrawCircleAnySize@FFHHMMEHH@@8 000000018006c0f8     insertShapeUtilsCore.obj
 0002:00008120       ??_R1A@?0A@EA@?$DrawCircle@FFHHMMEHH@@8 000000018006c120     insertShapeUtilsCore.obj
 0002:00008148       ??_R3?$DrawCircle@FFHHMMEHH@@8 000000018006c148     insertShapeUtilsCore.obj
 0002:00008160       ??_R2?$DrawCircle@FFHHMMEHH@@8 000000018006c160     insertShapeUtilsCore.obj
 0002:00008180       ??_R4?$DrawCircle@FFHHMMEHH@@6B@ 000000018006c180     insertShapeUtilsCore.obj
 0002:000081a8       ??_R4?$DrawCircleAnySize@FFHHMMEEH@@6B@ 000000018006c1a8     insertShapeUtilsCore.obj
 0002:000081d0       ??_R3?$DrawCircleAnySize@FFHHMMEEH@@8 000000018006c1d0     insertShapeUtilsCore.obj
 0002:000081e8       ??_R2?$DrawCircleAnySize@FFHHMMEEH@@8 000000018006c1e8     insertShapeUtilsCore.obj
 0002:00008210       ??_R1A@?0A@EA@?$DrawCircleAnySize@FFHHMMEEH@@8 000000018006c210     insertShapeUtilsCore.obj
 0002:00008238       ??_R1A@?0A@EA@?$DrawCircle@FFHHMMEEH@@8 000000018006c238     insertShapeUtilsCore.obj
 0002:00008260       ??_R3?$DrawCircle@FFHHMMEEH@@8 000000018006c260     insertShapeUtilsCore.obj
 0002:00008278       ??_R2?$DrawCircle@FFHHMMEEH@@8 000000018006c278     insertShapeUtilsCore.obj
 0002:00008298       ??_R4?$DrawCircle@FFHHMMEEH@@6B@ 000000018006c298     insertShapeUtilsCore.obj
 0002:000082c0       ??_R4?$DrawCircleAnySize@FFHHMMEHE@@6B@ 000000018006c2c0     insertShapeUtilsCore.obj
 0002:000082e8       ??_R3?$DrawCircleAnySize@FFHHMMEHE@@8 000000018006c2e8     insertShapeUtilsCore.obj
 0002:00008300       ??_R2?$DrawCircleAnySize@FFHHMMEHE@@8 000000018006c300     insertShapeUtilsCore.obj
 0002:00008328       ??_R1A@?0A@EA@?$DrawCircleAnySize@FFHHMMEHE@@8 000000018006c328     insertShapeUtilsCore.obj
 0002:00008350       ??_R1A@?0A@EA@?$DrawCircle@FFHHMMEHE@@8 000000018006c350     insertShapeUtilsCore.obj
 0002:00008378       ??_R3?$DrawCircle@FFHHMMEHE@@8 000000018006c378     insertShapeUtilsCore.obj
 0002:00008390       ??_R2?$DrawCircle@FFHHMMEHE@@8 000000018006c390     insertShapeUtilsCore.obj
 0002:000083b0       ??_R4?$DrawCircle@FFHHMMEHE@@6B@ 000000018006c3b0     insertShapeUtilsCore.obj
 0002:000083d8       ??_R4?$DrawCircleAnySize@FFHHMMEEE@@6B@ 000000018006c3d8     insertShapeUtilsCore.obj
 0002:00008400       ??_R3?$DrawCircleAnySize@FFHHMMEEE@@8 000000018006c400     insertShapeUtilsCore.obj
 0002:00008418       ??_R2?$DrawCircleAnySize@FFHHMMEEE@@8 000000018006c418     insertShapeUtilsCore.obj
 0002:00008440       ??_R1A@?0A@EA@?$DrawCircleAnySize@FFHHMMEEE@@8 000000018006c440     insertShapeUtilsCore.obj
 0002:00008468       ??_R1A@?0A@EA@?$DrawCircle@FFHHMMEEE@@8 000000018006c468     insertShapeUtilsCore.obj
 0002:00008490       ??_R3?$DrawCircle@FFHHMMEEE@@8 000000018006c490     insertShapeUtilsCore.obj
 0002:000084a8       ??_R2?$DrawCircle@FFHHMMEEE@@8 000000018006c4a8     insertShapeUtilsCore.obj
 0002:000084c8       ??_R4?$DrawCircle@FFHHMMEEE@@6B@ 000000018006c4c8     insertShapeUtilsCore.obj
 0002:000084f0       ??_R4type_info@@6B@        000000018006c4f0     MSVCRT:std_type_info_static.obj
 0002:00008518       ??_R3type_info@@8          000000018006c518     MSVCRT:std_type_info_static.obj
 0002:00008530       ??_R2type_info@@8          000000018006c530     MSVCRT:std_type_info_static.obj
 0002:00008540       ??_R1A@?0A@EA@type_info@@8 000000018006c540     MSVCRT:std_type_info_static.obj
 0002:00008568       ??_R4exception@std@@6B@    000000018006c568     MSVCRT:throw_bad_alloc.obj
 0002:00008590       ??_R3exception@std@@8      000000018006c590     MSVCRT:throw_bad_alloc.obj
 0002:000085a8       ??_R2exception@std@@8      000000018006c5a8     MSVCRT:throw_bad_alloc.obj
 0002:000085b8       ??_R1A@?0A@EA@exception@std@@8 000000018006c5b8     MSVCRT:throw_bad_alloc.obj
 0002:000085e0       ??_R4bad_alloc@std@@6B@    000000018006c5e0     MSVCRT:throw_bad_alloc.obj
 0002:00008608       ??_R3bad_alloc@std@@8      000000018006c608     MSVCRT:throw_bad_alloc.obj
 0002:00008620       ??_R2bad_alloc@std@@8      000000018006c620     MSVCRT:throw_bad_alloc.obj
 0002:00008638       ??_R1A@?0A@EA@bad_alloc@std@@8 000000018006c638     MSVCRT:throw_bad_alloc.obj
 0002:00008660       ??_R4bad_array_new_length@std@@6B@ 000000018006c660     MSVCRT:throw_bad_alloc.obj
 0002:00008688       ??_R3bad_array_new_length@std@@8 000000018006c688     MSVCRT:throw_bad_alloc.obj
 0002:000086a0       ??_R2bad_array_new_length@std@@8 000000018006c6a0     MSVCRT:throw_bad_alloc.obj
 0002:000086c0       ??_R1A@?0A@EA@bad_array_new_length@std@@8 000000018006c6c0     MSVCRT:throw_bad_alloc.obj
 0002:00008948       __rtc_iaa                  000000018006c948     MSVCRT:_initsect_.obj
 0002:00008950       __rtc_izz                  000000018006c950     MSVCRT:_initsect_.obj
 0002:00008958       __rtc_taa                  000000018006c958     MSVCRT:_initsect_.obj
 0002:00008960       __rtc_tzz                  000000018006c960     MSVCRT:_initsect_.obj
 0002:0000bc78       _TI2?AVbad_alloc@std@@     000000018006fc78     MSVCRT:throw_bad_alloc.obj
 0002:0000bc98       _CTA2?AVbad_alloc@std@@    000000018006fc98     MSVCRT:throw_bad_alloc.obj
 0002:0000bcb0       _CT??_R0?AVbad_alloc@std@@@8??0bad_alloc@std@@QEAA@AEBV01@@Z24 000000018006fcb0     MSVCRT:throw_bad_alloc.obj
 0002:0000bcd8       _CT??_R0?AVexception@std@@@8??0exception@std@@QEAA@AEBV01@@Z24 000000018006fcd8     MSVCRT:throw_bad_alloc.obj
 0002:0000bd00       _TI3?AVbad_array_new_length@std@@ 000000018006fd00     MSVCRT:throw_bad_alloc.obj
 0002:0000bd20       _CTA3?AVbad_array_new_length@std@@ 000000018006fd20     MSVCRT:throw_bad_alloc.obj
 0002:0000bd40       _CT??_R0?AVbad_array_new_length@std@@@8??0bad_array_new_length@std@@QEAA@AEBV01@@Z24 000000018006fd40     MSVCRT:throw_bad_alloc.obj
 0002:0000bf88       __IMPORT_DESCRIPTOR_libmwrgb2hsv_tbb 000000018006ff88     libmwrgb2hsv_tbb:libmwrgb2hsv_tbb.dll
 0002:0000bf9c       __IMPORT_DESCRIPTOR_sf_runtime 000000018006ff9c     sf_runtime:sf_runtime.dll
 0002:0000bfb0       __IMPORT_DESCRIPTOR_libmx  000000018006ffb0     libmx:libmx.dll
 0002:0000bfc4       __IMPORT_DESCRIPTOR_libmex 000000018006ffc4     libmex:libmex.dll
 0002:0000bfd8       __IMPORT_DESCRIPTOR_libut  000000018006ffd8     libut:libut.dll
 0002:0000bfec       __IMPORT_DESCRIPTOR_libmwmathutil 000000018006ffec     libmwmathutil:libmwmathutil.dll
 0002:0000c000       __IMPORT_DESCRIPTOR_libemlrt 0000000180070000     libemlrt:libemlrt.dll
 0002:0000c014       __IMPORT_DESCRIPTOR_libcovrt 0000000180070014     libcovrt:libcovrt.dll
 0002:0000c028       __IMPORT_DESCRIPTOR_KERNEL32 0000000180070028     kernel32:KERNEL32.dll
 0002:0000c03c       __IMPORT_DESCRIPTOR_VCRUNTIME140 000000018007003c     vcruntime:VCRUNTIME140.dll
 0002:0000c050       __IMPORT_DESCRIPTOR_api-ms-win-crt-string-l1-1-0 0000000180070050     ucrt:api-ms-win-crt-string-l1-1-0.dll
 0002:0000c064       __IMPORT_DESCRIPTOR_api-ms-win-crt-stdio-l1-1-0 0000000180070064     ucrt:api-ms-win-crt-stdio-l1-1-0.dll
 0002:0000c078       __IMPORT_DESCRIPTOR_api-ms-win-crt-heap-l1-1-0 0000000180070078     ucrt:api-ms-win-crt-heap-l1-1-0.dll
 0002:0000c08c       __IMPORT_DESCRIPTOR_api-ms-win-crt-math-l1-1-0 000000018007008c     ucrt:api-ms-win-crt-math-l1-1-0.dll
 0002:0000c0a0       __IMPORT_DESCRIPTOR_api-ms-win-crt-runtime-l1-1-0 00000001800700a0     ucrt:api-ms-win-crt-runtime-l1-1-0.dll
 0002:0000c0b4       __NULL_IMPORT_DESCRIPTOR   00000001800700b4     libmwrgb2hsv_tbb:libmwrgb2hsv_tbb.dll
 0003:000021e8       DYNAMIC_DIMENSION          00000001800741e8     flightControlSystem_sfun_registry.obj
 0003:000046f0       __security_cookie          00000001800766f0     MSVCRT:gs_cookie.obj
 0003:000046f8       __security_cookie_complement 00000001800766f8     MSVCRT:gs_cookie.obj
 0003:00004700       _fltused                   0000000180076700     MSVCRT:dllsupp.obj
 0003:00004710       __scrt_native_dllmain_reason 0000000180076710     MSVCRT:utility.obj
 0003:00004718       __isa_available            0000000180076718     MSVCRT:_cpu_disp_.obj
 0003:0000471c       __isa_enabled              000000018007671c     MSVCRT:_cpu_disp_.obj
 0003:00004720       __memcpy_nt_iters          0000000180076720     MSVCRT:_cpu_disp_.obj
 0003:00004730       __scrt_ucrt_dll_is_in_use  0000000180076730     MSVCRT:ucrt_stubs.obj
 0003:00004738       ??_R0?AVDrawBase@@@8       0000000180076738     insertShapeUtilsCore.obj
 0003:00004758       ??_R0?AV?$DrawFilledRectangleAnySize@MMHHMME@@@8 0000000180076758     insertShapeUtilsCore.obj
 0003:00004798       ??_R0?AV?$DrawFilledRectangle@MMHHMME@@@8 0000000180076798     insertShapeUtilsCore.obj
 0003:000047d0       ??_R0?AV?$DrawCommon@MMHHMMEH@@@8 00000001800767d0     insertShapeUtilsCore.obj
 0003:00004800       ??_R0?AV?$DrawRectangleAnySize@MMHHMME@@@8 0000000180076800     insertShapeUtilsCore.obj
 0003:00004838       ??_R0?AV?$DrawMarkerLine@MMHHMMEE@@@8 0000000180076838     insertShapeUtilsCore.obj
 0003:00004868       ??_R0?AV?$DrawLine@MMHHMMEE@@@8 0000000180076868     insertShapeUtilsCore.obj
 0003:00004898       ??_R0?AV?$DrawCommon@MMHHMMEE@@@8 0000000180076898     insertShapeUtilsCore.obj
 0003:000048c8       ??_R0?AV?$ScanLineBase@HHH@@@8 00000001800768c8     insertShapeUtilsCore.obj
 0003:000048f8       ??_R0?AV?$ScanLine@HHH@@@8 00000001800768f8     insertShapeUtilsCore.obj
 0003:00004920       ??_R0?AV?$DrawFilledPolygon@MMHHMMEH@@@8 0000000180076920     insertShapeUtilsCore.obj
 0003:00004958       ??_R0?AV?$ScanLineBase@HHE@@@8 0000000180076958     insertShapeUtilsCore.obj
 0003:00004988       ??_R0?AV?$ScanLine@HHE@@@8 0000000180076988     insertShapeUtilsCore.obj
 0003:000049b0       ??_R0?AV?$DrawFilledPolygon@MMHHMMEE@@@8 00000001800769b0     insertShapeUtilsCore.obj
 0003:000049e8       ??_R0?AV?$DrawPolygon@MMHHMMEH@@@8 00000001800769e8     insertShapeUtilsCore.obj
 0003:00004a18       ??_R0?AV?$DrawLine@MMHHMMEH@@@8 0000000180076a18     insertShapeUtilsCore.obj
 0003:00004a48       ??_R0?AV?$DrawPolygon@MMHHMMEE@@@8 0000000180076a48     insertShapeUtilsCore.obj
 0003:00004a78       ??_R0?AV?$DrawAnyLine@MMHHMMEH@@@8 0000000180076a78     insertShapeUtilsCore.obj
 0003:00004aa8       ??_R0?AV?$DrawAnyLine@MMHHMMEE@@@8 0000000180076aa8     insertShapeUtilsCore.obj
 0003:00004ad8       ??_R0?AV?$DrawCircleAnySize@MMHHMMEHH@@@8 0000000180076ad8     insertShapeUtilsCore.obj
 0003:00004b10       ??_R0?AV?$DrawCircle@MMHHMMEHH@@@8 0000000180076b10     insertShapeUtilsCore.obj
 0003:00004b40       ??_R0?AV?$DrawCircleAnySize@MMHHMMEEH@@@8 0000000180076b40     insertShapeUtilsCore.obj
 0003:00004b78       ??_R0?AV?$DrawCircle@MMHHMMEEH@@@8 0000000180076b78     insertShapeUtilsCore.obj
 0003:00004ba8       ??_R0?AV?$DrawCircleAnySize@MMHHMMEHE@@@8 0000000180076ba8     insertShapeUtilsCore.obj
 0003:00004be0       ??_R0?AV?$DrawCircle@MMHHMMEHE@@@8 0000000180076be0     insertShapeUtilsCore.obj
 0003:00004c10       ??_R0?AV?$DrawCircleAnySize@MMHHMMEEE@@@8 0000000180076c10     insertShapeUtilsCore.obj
 0003:00004c48       ??_R0?AV?$DrawCircle@MMHHMMEEE@@@8 0000000180076c48     insertShapeUtilsCore.obj
 0003:00004c78       ??_R0?AV?$DrawFilledRectangleAnySize@NNHHNNE@@@8 0000000180076c78     insertShapeUtilsCore.obj
 0003:00004cb8       ??_R0?AV?$DrawFilledRectangle@NNHHNNE@@@8 0000000180076cb8     insertShapeUtilsCore.obj
 0003:00004cf0       ??_R0?AV?$DrawCommon@NNHHNNEH@@@8 0000000180076cf0     insertShapeUtilsCore.obj
 0003:00004d20       ??_R0?AV?$DrawRectangleAnySize@NNHHNNE@@@8 0000000180076d20     insertShapeUtilsCore.obj
 0003:00004d58       ??_R0?AV?$DrawMarkerLine@NNHHNNEE@@@8 0000000180076d58     insertShapeUtilsCore.obj
 0003:00004d88       ??_R0?AV?$DrawLine@NNHHNNEE@@@8 0000000180076d88     insertShapeUtilsCore.obj
 0003:00004db8       ??_R0?AV?$DrawCommon@NNHHNNEE@@@8 0000000180076db8     insertShapeUtilsCore.obj
 0003:00004de8       ??_R0?AV?$DrawFilledPolygon@NNHHNNEH@@@8 0000000180076de8     insertShapeUtilsCore.obj
 0003:00004e20       ??_R0?AV?$DrawFilledPolygon@NNHHNNEE@@@8 0000000180076e20     insertShapeUtilsCore.obj
 0003:00004e58       ??_R0?AV?$DrawPolygon@NNHHNNEH@@@8 0000000180076e58     insertShapeUtilsCore.obj
 0003:00004e88       ??_R0?AV?$DrawLine@NNHHNNEH@@@8 0000000180076e88     insertShapeUtilsCore.obj
 0003:00004eb8       ??_R0?AV?$DrawPolygon@NNHHNNEE@@@8 0000000180076eb8     insertShapeUtilsCore.obj
 0003:00004ee8       ??_R0?AV?$DrawAnyLine@NNHHNNEH@@@8 0000000180076ee8     insertShapeUtilsCore.obj
 0003:00004f18       ??_R0?AV?$DrawAnyLine@NNHHNNEE@@@8 0000000180076f18     insertShapeUtilsCore.obj
 0003:00004f48       ??_R0?AV?$DrawCircleAnySize@NNHHNNEHH@@@8 0000000180076f48     insertShapeUtilsCore.obj
 0003:00004f80       ??_R0?AV?$DrawCircle@NNHHNNEHH@@@8 0000000180076f80     insertShapeUtilsCore.obj
 0003:00004fb0       ??_R0?AV?$DrawCircleAnySize@NNHHNNEEH@@@8 0000000180076fb0     insertShapeUtilsCore.obj
 0003:00004fe8       ??_R0?AV?$DrawCircle@NNHHNNEEH@@@8 0000000180076fe8     insertShapeUtilsCore.obj
 0003:00005018       ??_R0?AV?$DrawCircleAnySize@NNHHNNEHE@@@8 0000000180077018     insertShapeUtilsCore.obj
 0003:00005050       ??_R0?AV?$DrawCircle@NNHHNNEHE@@@8 0000000180077050     insertShapeUtilsCore.obj
 0003:00005080       ??_R0?AV?$DrawCircleAnySize@NNHHNNEEE@@@8 0000000180077080     insertShapeUtilsCore.obj
 0003:000050b8       ??_R0?AV?$DrawCircle@NNHHNNEEE@@@8 00000001800770b8     insertShapeUtilsCore.obj
 0003:000050e8       ??_R0?AV?$DrawFilledRectangleAnySize@EEHHMME@@@8 00000001800770e8     insertShapeUtilsCore.obj
 0003:00005128       ??_R0?AV?$DrawFilledRectangle@EEHHMME@@@8 0000000180077128     insertShapeUtilsCore.obj
 0003:00005160       ??_R0?AV?$DrawCommon@EEHHMMEH@@@8 0000000180077160     insertShapeUtilsCore.obj
 0003:00005190       ??_R0?AV?$DrawRectangleAnySize@EEHHMME@@@8 0000000180077190     insertShapeUtilsCore.obj
 0003:000051c8       ??_R0?AV?$DrawMarkerLine@EEHHMMEE@@@8 00000001800771c8     insertShapeUtilsCore.obj
 0003:000051f8       ??_R0?AV?$DrawLine@EEHHMMEE@@@8 00000001800771f8     insertShapeUtilsCore.obj
 0003:00005228       ??_R0?AV?$DrawCommon@EEHHMMEE@@@8 0000000180077228     insertShapeUtilsCore.obj
 0003:00005258       ??_R0?AV?$DrawFilledPolygon@EEHHMMEH@@@8 0000000180077258     insertShapeUtilsCore.obj
 0003:00005290       ??_R0?AV?$DrawFilledPolygon@EEHHMMEE@@@8 0000000180077290     insertShapeUtilsCore.obj
 0003:000052c8       ??_R0?AV?$DrawPolygon@EEHHMMEH@@@8 00000001800772c8     insertShapeUtilsCore.obj
 0003:000052f8       ??_R0?AV?$DrawLine@EEHHMMEH@@@8 00000001800772f8     insertShapeUtilsCore.obj
 0003:00005328       ??_R0?AV?$DrawPolygon@EEHHMMEE@@@8 0000000180077328     insertShapeUtilsCore.obj
 0003:00005358       ??_R0?AV?$DrawAnyLine@EEHHMMEH@@@8 0000000180077358     insertShapeUtilsCore.obj
 0003:00005388       ??_R0?AV?$DrawAnyLine@EEHHMMEE@@@8 0000000180077388     insertShapeUtilsCore.obj
 0003:000053b8       ??_R0?AV?$DrawCircleAnySize@EEHHMMEHH@@@8 00000001800773b8     insertShapeUtilsCore.obj
 0003:000053f0       ??_R0?AV?$DrawCircle@EEHHMMEHH@@@8 00000001800773f0     insertShapeUtilsCore.obj
 0003:00005420       ??_R0?AV?$DrawCircleAnySize@EEHHMMEEH@@@8 0000000180077420     insertShapeUtilsCore.obj
 0003:00005458       ??_R0?AV?$DrawCircle@EEHHMMEEH@@@8 0000000180077458     insertShapeUtilsCore.obj
 0003:00005488       ??_R0?AV?$DrawCircleAnySize@EEHHMMEHE@@@8 0000000180077488     insertShapeUtilsCore.obj
 0003:000054c0       ??_R0?AV?$DrawCircle@EEHHMMEHE@@@8 00000001800774c0     insertShapeUtilsCore.obj
 0003:000054f0       ??_R0?AV?$DrawCircleAnySize@EEHHMMEEE@@@8 00000001800774f0     insertShapeUtilsCore.obj
 0003:00005528       ??_R0?AV?$DrawCircle@EEHHMMEEE@@@8 0000000180077528     insertShapeUtilsCore.obj
 0003:00005558       ??_R0?AV?$DrawFilledRectangleAnySize@GGHHMME@@@8 0000000180077558     insertShapeUtilsCore.obj
 0003:00005598       ??_R0?AV?$DrawFilledRectangle@GGHHMME@@@8 0000000180077598     insertShapeUtilsCore.obj
 0003:000055d0       ??_R0?AV?$DrawCommon@GGHHMMEH@@@8 00000001800775d0     insertShapeUtilsCore.obj
 0003:00005600       ??_R0?AV?$DrawRectangleAnySize@GGHHMME@@@8 0000000180077600     insertShapeUtilsCore.obj
 0003:00005638       ??_R0?AV?$DrawMarkerLine@GGHHMMEE@@@8 0000000180077638     insertShapeUtilsCore.obj
 0003:00005668       ??_R0?AV?$DrawLine@GGHHMMEE@@@8 0000000180077668     insertShapeUtilsCore.obj
 0003:00005698       ??_R0?AV?$DrawCommon@GGHHMMEE@@@8 0000000180077698     insertShapeUtilsCore.obj
 0003:000056c8       ??_R0?AV?$DrawFilledPolygon@GGHHMMEH@@@8 00000001800776c8     insertShapeUtilsCore.obj
 0003:00005700       ??_R0?AV?$DrawFilledPolygon@GGHHMMEE@@@8 0000000180077700     insertShapeUtilsCore.obj
 0003:00005738       ??_R0?AV?$DrawPolygon@GGHHMMEH@@@8 0000000180077738     insertShapeUtilsCore.obj
 0003:00005768       ??_R0?AV?$DrawLine@GGHHMMEH@@@8 0000000180077768     insertShapeUtilsCore.obj
 0003:00005798       ??_R0?AV?$DrawPolygon@GGHHMMEE@@@8 0000000180077798     insertShapeUtilsCore.obj
 0003:000057c8       ??_R0?AV?$DrawAnyLine@GGHHMMEH@@@8 00000001800777c8     insertShapeUtilsCore.obj
 0003:000057f8       ??_R0?AV?$DrawAnyLine@GGHHMMEE@@@8 00000001800777f8     insertShapeUtilsCore.obj
 0003:00005828       ??_R0?AV?$DrawCircleAnySize@GGHHMMEHH@@@8 0000000180077828     insertShapeUtilsCore.obj
 0003:00005860       ??_R0?AV?$DrawCircle@GGHHMMEHH@@@8 0000000180077860     insertShapeUtilsCore.obj
 0003:00005890       ??_R0?AV?$DrawCircleAnySize@GGHHMMEEH@@@8 0000000180077890     insertShapeUtilsCore.obj
 0003:000058c8       ??_R0?AV?$DrawCircle@GGHHMMEEH@@@8 00000001800778c8     insertShapeUtilsCore.obj
 0003:000058f8       ??_R0?AV?$DrawCircleAnySize@GGHHMMEHE@@@8 00000001800778f8     insertShapeUtilsCore.obj
 0003:00005930       ??_R0?AV?$DrawCircle@GGHHMMEHE@@@8 0000000180077930     insertShapeUtilsCore.obj
 0003:00005960       ??_R0?AV?$DrawCircleAnySize@GGHHMMEEE@@@8 0000000180077960     insertShapeUtilsCore.obj
 0003:00005998       ??_R0?AV?$DrawCircle@GGHHMMEEE@@@8 0000000180077998     insertShapeUtilsCore.obj
 0003:000059c8       ??_R0?AV?$DrawFilledRectangleAnySize@FFHHMME@@@8 00000001800779c8     insertShapeUtilsCore.obj
 0003:00005a08       ??_R0?AV?$DrawFilledRectangle@FFHHMME@@@8 0000000180077a08     insertShapeUtilsCore.obj
 0003:00005a40       ??_R0?AV?$DrawCommon@FFHHMMEH@@@8 0000000180077a40     insertShapeUtilsCore.obj
 0003:00005a70       ??_R0?AV?$DrawRectangleAnySize@FFHHMME@@@8 0000000180077a70     insertShapeUtilsCore.obj
 0003:00005aa8       ??_R0?AV?$DrawMarkerLine@FFHHMMEE@@@8 0000000180077aa8     insertShapeUtilsCore.obj
 0003:00005ad8       ??_R0?AV?$DrawLine@FFHHMMEE@@@8 0000000180077ad8     insertShapeUtilsCore.obj
 0003:00005b08       ??_R0?AV?$DrawCommon@FFHHMMEE@@@8 0000000180077b08     insertShapeUtilsCore.obj
 0003:00005b38       ??_R0?AV?$DrawFilledPolygon@FFHHMMEH@@@8 0000000180077b38     insertShapeUtilsCore.obj
 0003:00005b70       ??_R0?AV?$DrawFilledPolygon@FFHHMMEE@@@8 0000000180077b70     insertShapeUtilsCore.obj
 0003:00005ba8       ??_R0?AV?$DrawPolygon@FFHHMMEH@@@8 0000000180077ba8     insertShapeUtilsCore.obj
 0003:00005bd8       ??_R0?AV?$DrawLine@FFHHMMEH@@@8 0000000180077bd8     insertShapeUtilsCore.obj
 0003:00005c08       ??_R0?AV?$DrawPolygon@FFHHMMEE@@@8 0000000180077c08     insertShapeUtilsCore.obj
 0003:00005c38       ??_R0?AV?$DrawAnyLine@FFHHMMEH@@@8 0000000180077c38     insertShapeUtilsCore.obj
 0003:00005c68       ??_R0?AV?$DrawAnyLine@FFHHMMEE@@@8 0000000180077c68     insertShapeUtilsCore.obj
 0003:00005c98       ??_R0?AV?$DrawCircleAnySize@FFHHMMEHH@@@8 0000000180077c98     insertShapeUtilsCore.obj
 0003:00005cd0       ??_R0?AV?$DrawCircle@FFHHMMEHH@@@8 0000000180077cd0     insertShapeUtilsCore.obj
 0003:00005d00       ??_R0?AV?$DrawCircleAnySize@FFHHMMEEH@@@8 0000000180077d00     insertShapeUtilsCore.obj
 0003:00005d38       ??_R0?AV?$DrawCircle@FFHHMMEEH@@@8 0000000180077d38     insertShapeUtilsCore.obj
 0003:00005d68       ??_R0?AV?$DrawCircleAnySize@FFHHMMEHE@@@8 0000000180077d68     insertShapeUtilsCore.obj
 0003:00005da0       ??_R0?AV?$DrawCircle@FFHHMMEHE@@@8 0000000180077da0     insertShapeUtilsCore.obj
 0003:00005dd0       ??_R0?AV?$DrawCircleAnySize@FFHHMMEEE@@@8 0000000180077dd0     insertShapeUtilsCore.obj
 0003:00005e08       ??_R0?AV?$DrawCircle@FFHHMMEEE@@@8 0000000180077e08     insertShapeUtilsCore.obj
 0003:00005e38       ??_R0?AVtype_info@@@8      0000000180077e38     MSVCRT:std_type_info_static.obj
 0003:00005e58       ??_R0?AVbad_alloc@std@@@8  0000000180077e58     MSVCRT:throw_bad_alloc.obj
 0003:00005e80       ??_R0?AVexception@std@@@8  0000000180077e80     MSVCRT:throw_bad_alloc.obj
 0003:00005ea8       ??_R0?AVbad_array_new_length@std@@@8 0000000180077ea8     MSVCRT:throw_bad_alloc.obj
 0003:00006958       __scrt_current_native_startup_state 0000000180078958     MSVCRT:utility.obj
 0003:00006960       __scrt_native_startup_lock 0000000180078960     MSVCRT:utility.obj
 0003:000069a0       ?__type_info_root_node@@3U__type_info_node@@A 00000001800789a0     MSVCRT:tncleanup.obj
 0003:000069b0       ?_OptionsStorage@?1??__local_stdio_printf_options@@9@4_KA 00000001800789b0     MSVCRT:default_local_stdio_options.obj
 0003:000069b8       ?_OptionsStorage@?1??__local_stdio_scanf_options@@9@4_KA 00000001800789b8     MSVCRT:default_local_stdio_options.obj
 0003:000069c0       __scrt_debugger_hook_flag  00000001800789c0     MSVCRT:utility_desktop.obj
 0003:000069c4       __favor                    00000001800789c4     MSVCRT:_cpu_disp_.obj
 0003:000069c8       ?_OptionsStorage@?1??__local_stdio_printf_options@@9@9 00000001800789c8     <common>
 0003:000069d0       __dyn_tls_init_callback    00000001800789d0     <common>

 entry point at        0001:00061214

 Static symbols

 0000:00000000       .debug$S                   0000000180000000     libmex:libmex.dll
 0000:00000000       .debug$S                   0000000180000000     flightControlSystem_sfun.exp
 0000:00000000       .debug$S                   0000000180000000     libmx:libmx.dll
 0000:00000000       .debug$S                   0000000180000000     libmx:libmx.dll
 0000:00000000       .debug$S                   0000000180000000     libmx:libmx.dll
 0000:00000000       .debug$S                   0000000180000000     libmx:libmx.dll
 0000:00000000       .debug$S                   0000000180000000     libmx:libmx.dll
 0000:00000000       .debug$S                   0000000180000000     libmx:libmx.dll
 0000:00000000       .debug$S                   0000000180000000     sf_runtime:sf_runtime.dll
 0000:00000000       .debug$S                   0000000180000000     libmx:libmx.dll
 0000:00000000       .debug$S                   0000000180000000     sf_runtime:sf_runtime.dll
 0000:00000000       .debug$S                   0000000180000000     libmx:libmx.dll
 0000:00000000       .debug$S                   0000000180000000     sf_runtime:sf_runtime.dll
 0000:00000000       .debug$S                   0000000180000000     libmx:libmx.dll
 0000:00000000       .debug$S                   0000000180000000     sf_runtime:sf_runtime.dll
 0000:00000000       .debug$S                   0000000180000000     libmx:libmx.dll
 0000:00000000       .debug$S                   0000000180000000     sf_runtime:sf_runtime.dll
 0000:00000000       .debug$S                   0000000180000000     libmx:libmx.dll
 0000:00000000       .debug$S                   0000000180000000     sf_runtime:sf_runtime.dll
 0000:00000000       .debug$S                   0000000180000000     libmx:libmx.dll
 0000:00000000       .debug$S                   0000000180000000     ucrt:api-ms-win-crt-heap-l1-1-0.dll
 0000:00000000       .debug$S                   0000000180000000     sf_runtime:sf_runtime.dll
 0000:00000000       .debug$S                   0000000180000000     ucrt:api-ms-win-crt-heap-l1-1-0.dll
 0000:00000000       .debug$S                   0000000180000000     libmx:libmx.dll
 0000:00000000       .debug$S                   0000000180000000     ucrt:api-ms-win-crt-heap-l1-1-0.dll
 0000:00000000       .debug$S                   0000000180000000     sf_runtime:sf_runtime.dll
 0000:00000000       .debug$S                   0000000180000000     ucrt:api-ms-win-crt-math-l1-1-0.dll
 0000:00000000       .debug$S                   0000000180000000     libmx:libmx.dll
 0000:00000000       .debug$S                   0000000180000000     ucrt:api-ms-win-crt-math-l1-1-0.dll
 0000:00000000       .debug$S                   0000000180000000     sf_runtime:sf_runtime.dll
 0000:00000000       .debug$S                   0000000180000000     ucrt:api-ms-win-crt-math-l1-1-0.dll
 0000:00000000       .debug$S                   0000000180000000     libmx:libmx.dll
 0000:00000000       .debug$S                   0000000180000000     ucrt:api-ms-win-crt-math-l1-1-0.dll
 0000:00000000       .debug$S                   0000000180000000     sf_runtime:sf_runtime.dll
 0000:00000000       .debug$S                   0000000180000000     ucrt:api-ms-win-crt-runtime-l1-1-0.dll
 0000:00000000       .debug$S                   0000000180000000     libmx:libmx.dll
 0000:00000000       .debug$S                   0000000180000000     sf_runtime:sf_runtime.dll
 0000:00000000       .debug$S                   0000000180000000     libmx:libmx.dll
 0000:00000000       .debug$S                   0000000180000000     sf_runtime:sf_runtime.dll
 0000:00000000       .debug$S                   0000000180000000     libmx:libmx.dll
 0000:00000000       .debug$S                   0000000180000000     sf_runtime:sf_runtime.dll
 0000:00000000       .debug$S                   0000000180000000     sf_runtime:sf_runtime.dll
 0000:00000000       .debug$S                   0000000180000000     libmex:libmex.dll
 0000:00000000       .debug$S                   0000000180000000     sf_runtime:sf_runtime.dll
 0000:00000000       .debug$S                   0000000180000000     libmex:libmex.dll
 0000:00000000       .debug$S                   0000000180000000     sf_runtime:sf_runtime.dll
 0000:00000000       .debug$S                   0000000180000000     libmex:libmex.dll
 0000:00000000       .debug$S                   0000000180000000     sf_runtime:sf_runtime.dll
 0000:00000000       .debug$S                   0000000180000000     sf_runtime:sf_runtime.dll
 0000:00000000       .debug$S                   0000000180000000     libmex:libmex.dll
 0000:00000000       .debug$S                   0000000180000000     sf_runtime:sf_runtime.dll
 0000:00000000       .debug$S                   0000000180000000     libmex:libmex.dll
 0000:00000000       .debug$S                   0000000180000000     sf_runtime:sf_runtime.dll
 0000:00000000       .debug$S                   0000000180000000     libmex:libmex.dll
 0000:00000000       .debug$S                   0000000180000000     sf_runtime:sf_runtime.dll
 0000:00000000       .debug$S                   0000000180000000     sf_runtime:sf_runtime.dll
 0000:00000000       .debug$S                   0000000180000000     libut:libut.dll
 0000:00000000       .debug$S                   0000000180000000     sf_runtime:sf_runtime.dll
 0000:00000000       .debug$S                   0000000180000000     libut:libut.dll
 0000:00000000       .debug$S                   0000000180000000     sf_runtime:sf_runtime.dll
 0000:00000000       .debug$S                   0000000180000000     sf_runtime:sf_runtime.dll
 0000:00000000       .debug$S                   0000000180000000     libmwmathutil:libmwmathutil.dll
 0000:00000000       .debug$S                   0000000180000000     sf_runtime:sf_runtime.dll
 0000:00000000       .debug$S                   0000000180000000     sf_runtime:sf_runtime.dll
 0000:00000000       .debug$S                   0000000180000000     libemlrt:libemlrt.dll
 0000:00000000       .debug$S                   0000000180000000     sf_runtime:sf_runtime.dll
 0000:00000000       .debug$S                   0000000180000000     libemlrt:libemlrt.dll
 0000:00000000       .debug$S                   0000000180000000     sf_runtime:sf_runtime.dll
 0000:00000000       .debug$S                   0000000180000000     libemlrt:libemlrt.dll
 0000:00000000       .debug$S                   0000000180000000     sf_runtime:sf_runtime.dll
 0000:00000000       .debug$S                   0000000180000000     libemlrt:libemlrt.dll
 0000:00000000       .debug$S                   0000000180000000     sf_runtime:sf_runtime.dll
 0000:00000000       .debug$S                   0000000180000000     sf_runtime:sf_runtime.dll
 0000:00000000       .debug$S                   0000000180000000     libcovrt:libcovrt.dll
 0000:00000000       .debug$S                   0000000180000000     sf_runtime:sf_runtime.dll
 0000:00000000       .debug$S                   0000000180000000     sf_runtime:sf_runtime.dll
 0000:00000000       .debug$S                   0000000180000000     sf_runtime:sf_runtime.dll
 0000:00000000       .debug$S                   0000000180000000     libcovrt:libcovrt.dll
 0000:00000000       .debug$S                   0000000180000000     sf_runtime:sf_runtime.dll
 0000:00000000       .debug$S                   0000000180000000     libcovrt:libcovrt.dll
 0000:00000000       .debug$S                   0000000180000000     sf_runtime:sf_runtime.dll
 0000:00000000       .debug$S                   0000000180000000     libcovrt:libcovrt.dll
 0000:00000000       .debug$S                   0000000180000000     sf_runtime:sf_runtime.dll
 0000:00000000       .debug$S                   0000000180000000     libcovrt:libcovrt.dll
 0000:00000000       .debug$S                   0000000180000000     sf_runtime:sf_runtime.dll
 0000:00000000       .debug$S                   0000000180000000     libcovrt:libcovrt.dll
 0000:00000000       .debug$S                   0000000180000000     sf_runtime:sf_runtime.dll
 0000:00000000       .debug$S                   0000000180000000     libcovrt:libcovrt.dll
 0000:00000000       .debug$S                   0000000180000000     sf_runtime:sf_runtime.dll
 0000:00000000       .debug$S                   0000000180000000     libcovrt:libcovrt.dll
 0000:00000000       .debug$S                   0000000180000000     libcovrt:libcovrt.dll
 0000:00000000       .debug$S                   0000000180000000     libmwrgb2hsv_tbb:libmwrgb2hsv_tbb.dll
 0000:00000000       .debug$S                   0000000180000000     libmx:libmx.dll
 0000:00000000       .debug$S                   0000000180000000     kernel32:KERNEL32.dll
 0000:00000000       .debug$S                   0000000180000000     kernel32:KERNEL32.dll
 0000:00000000       .debug$S                   0000000180000000     kernel32:KERNEL32.dll
 0000:00000000       .debug$S                   0000000180000000     kernel32:KERNEL32.dll
 0000:00000000       .debug$S                   0000000180000000     kernel32:KERNEL32.dll
 0000:00000000       .debug$S                   0000000180000000     kernel32:KERNEL32.dll
 0000:00000000       .debug$S                   0000000180000000     kernel32:KERNEL32.dll
 0000:00000000       .debug$S                   0000000180000000     kernel32:KERNEL32.dll
 0000:00000000       .debug$S                   0000000180000000     kernel32:KERNEL32.dll
 0000:00000000       .debug$S                   0000000180000000     kernel32:KERNEL32.dll
 0000:00000000       .debug$S                   0000000180000000     kernel32:KERNEL32.dll
 0000:00000000       .debug$S                   0000000180000000     kernel32:KERNEL32.dll
 0000:00000000       .debug$S                   0000000180000000     kernel32:KERNEL32.dll
 0000:00000000       .debug$S                   0000000180000000     kernel32:KERNEL32.dll
 0000:00000000       .debug$S                   0000000180000000     kernel32:KERNEL32.dll
 0000:00000000       .debug$S                   0000000180000000     kernel32:KERNEL32.dll
 0000:00000000       .debug$S                   0000000180000000     kernel32:KERNEL32.dll
 0000:00000000       .debug$S                   0000000180000000     vcruntime:VCRUNTIME140.dll
 0000:00000000       .debug$S                   0000000180000000     vcruntime:VCRUNTIME140.dll
 0000:00000000       .debug$S                   0000000180000000     vcruntime:VCRUNTIME140.dll
 0000:00000000       .debug$S                   0000000180000000     vcruntime:VCRUNTIME140.dll
 0000:00000000       .debug$S                   0000000180000000     vcruntime:VCRUNTIME140.dll
 0000:00000000       .debug$S                   0000000180000000     vcruntime:VCRUNTIME140.dll
 0000:00000000       .debug$S                   0000000180000000     vcruntime:VCRUNTIME140.dll
 0000:00000000       .debug$S                   0000000180000000     vcruntime:VCRUNTIME140.dll
 0000:00000000       .debug$S                   0000000180000000     vcruntime:VCRUNTIME140.dll
 0000:00000000       .debug$S                   0000000180000000     ucrt:api-ms-win-crt-string-l1-1-0.dll
 0000:00000000       .debug$S                   0000000180000000     ucrt:api-ms-win-crt-string-l1-1-0.dll
 0000:00000000       .debug$S                   0000000180000000     ucrt:api-ms-win-crt-string-l1-1-0.dll
 0000:00000000       .debug$S                   0000000180000000     ucrt:api-ms-win-crt-stdio-l1-1-0.dll
 0000:00000000       .debug$S                   0000000180000000     ucrt:api-ms-win-crt-runtime-l1-1-0.dll
 0000:00000000       .debug$S                   0000000180000000     ucrt:api-ms-win-crt-runtime-l1-1-0.dll
 0000:00000000       .debug$S                   0000000180000000     ucrt:api-ms-win-crt-runtime-l1-1-0.dll
 0000:00000000       .debug$S                   0000000180000000     ucrt:api-ms-win-crt-runtime-l1-1-0.dll
 0000:00000000       .debug$S                   0000000180000000     ucrt:api-ms-win-crt-runtime-l1-1-0.dll
 0000:00000000       .debug$S                   0000000180000000     ucrt:api-ms-win-crt-runtime-l1-1-0.dll
 0000:00000000       .debug$S                   0000000180000000     ucrt:api-ms-win-crt-runtime-l1-1-0.dll
 0000:00000000       .debug$S                   0000000180000000     ucrt:api-ms-win-crt-runtime-l1-1-0.dll
 0000:00000000       .debug$S                   0000000180000000     ucrt:api-ms-win-crt-runtime-l1-1-0.dll
 0000:00000000       .debug$S                   0000000180000000     ucrt:api-ms-win-crt-runtime-l1-1-0.dll
 0000:00000000       .debug$S                   0000000180000000     ucrt:api-ms-win-crt-runtime-l1-1-0.dll
 0001:00001150       initialize_c1_flightControlSystem 0000000180002150 f   c1_flightControlSystem.obj
 0001:000011f0       initialize_params_c1_flightControlSystem 00000001800021f0 f   c1_flightControlSystem.obj
 0001:00001200       enable_c1_flightControlSystem 0000000180002200 f   c1_flightControlSystem.obj
 0001:00001230       disable_c1_flightControlSystem 0000000180002230 f   c1_flightControlSystem.obj
 0001:00001260       c1_do_animation_call_c1_flightControlSystem 0000000180002260 f   c1_flightControlSystem.obj
 0001:000012a0       get_sim_state_c1_flightControlSystem 00000001800022a0 f   c1_flightControlSystem.obj
 0001:00001490       set_sim_state_c1_flightControlSystem 0000000180002490 f   c1_flightControlSystem.obj
 0001:00001600       sf_gateway_c1_flightControlSystem 0000000180002600 f   c1_flightControlSystem.obj
 0001:00001740       mdl_start_c1_flightControlSystem 0000000180002740 f   c1_flightControlSystem.obj
 0001:00001750       mdl_terminate_c1_flightControlSystem 0000000180002750 f   c1_flightControlSystem.obj
 0001:00001760       mdl_setup_runtime_resources_c1_flightControlSystem 0000000180002760 f   c1_flightControlSystem.obj
 0001:000019b0       mdl_cleanup_runtime_resources_c1_flightControlSystem 00000001800029b0 f   c1_flightControlSystem.obj
 0001:000019f0       c1_chartstep_c1_flightControlSystem 00000001800029f0 f   c1_flightControlSystem.obj
 0001:00002480       initSimStructsc1_flightControlSystem 0000000180003480 f   c1_flightControlSystem.obj
 0001:00002490       c1_matlabCodegenHandle_matlabCodegenDestructor 0000000180003490 f   c1_flightControlSystem.obj
 0001:000024f0       c1_rgb2hsv                 00000001800034f0 f   c1_flightControlSystem.obj
 0001:00002530       c1_BlobAnalysis_BlobAnalysis 0000000180003530 f   c1_flightControlSystem.obj
 0001:00002820       c1_SystemCore_step         0000000180003820 f   c1_flightControlSystem.obj
 0001:00002eb0       c1_BlobAnalysis_outputImpl 0000000180003eb0 f   c1_flightControlSystem.obj
 0001:00003b70       c1_insertShape             0000000180004b70 f   c1_flightControlSystem.obj
 0001:000043d0       c1_validateAndParseInputs  00000001800053d0 f   c1_flightControlSystem.obj
 0001:00005060       c1_emlrt_marshallIn        0000000180006060 f   c1_flightControlSystem.obj
 0001:000050d0       c1_b_emlrt_marshallIn      00000001800060d0 f   c1_flightControlSystem.obj
 0001:000051e0       c1_c_emlrt_marshallIn      00000001800061e0 f   c1_flightControlSystem.obj
 0001:00005250       c1_d_emlrt_marshallIn      0000000180006250 f   c1_flightControlSystem.obj
 0001:000052e0       c1_e_emlrt_marshallIn      00000001800062e0 f   c1_flightControlSystem.obj
 0001:00005350       c1_f_emlrt_marshallIn      0000000180006350 f   c1_flightControlSystem.obj
 0001:000053e0       c1_chart_data_browse_helper 00000001800063e0 f   c1_flightControlSystem.obj
 0001:000054f0       init_dsm_address_info      00000001800064f0 f   c1_flightControlSystem.obj
 0001:00005500       init_simulink_io_address   0000000180006500 f   c1_flightControlSystem.obj
 0001:000057b0       sf_get_sim_state_info_c1_flightControlSystem 00000001800067b0 f   c1_flightControlSystem.obj
 0001:00005870       sf_opaque_initialize_c1_flightControlSystem 0000000180006870 f   c1_flightControlSystem.obj
 0001:000058a0       sf_opaque_enable_c1_flightControlSystem 00000001800068a0 f   c1_flightControlSystem.obj
 0001:000058c0       sf_opaque_disable_c1_flightControlSystem 00000001800068c0 f   c1_flightControlSystem.obj
 0001:000058e0       sf_opaque_gateway_c1_flightControlSystem 00000001800068e0 f   c1_flightControlSystem.obj
 0001:00005900       sf_opaque_get_sim_state_c1_flightControlSystem 0000000180006900 f   c1_flightControlSystem.obj
 0001:00005930       sf_opaque_set_sim_state_c1_flightControlSystem 0000000180006930 f   c1_flightControlSystem.obj
 0001:00005960       sf_opaque_cleanup_runtime_resources_c1_flightControlSystem 0000000180006960 f   c1_flightControlSystem.obj
 0001:00005a00       sf_opaque_mdl_start_c1_flightControlSystem 0000000180006a00 f   c1_flightControlSystem.obj
 0001:00005a20       sf_opaque_mdl_terminate_c1_flightControlSystem 0000000180006a20 f   c1_flightControlSystem.obj
 0001:00005a40       mdlProcessParameters_c1_flightControlSystem 0000000180006a40 f   c1_flightControlSystem.obj
 0001:00005cc0       mdlSetWorkWidths_c1_flightControlSystem 0000000180006cc0 f   c1_flightControlSystem.obj
 0001:00005d50       mdlRTW_c1_flightControlSystem 0000000180006d50 f   c1_flightControlSystem.obj
 0001:00005d90       mdlSetupRuntimeResources_c1_flightControlSystem 0000000180006d90 f   c1_flightControlSystem.obj
 0001:00008740       $LN190                     0000000180009740     flightControlSystem_sfun_registry.obj
 0001:00009534       $LN17                      000000018000a534     flightControlSystem_sfun_registry.obj
 0001:00009c34       $LN26                      000000018000ac34     flightControlSystem_sfun_registry.obj
 0001:0000a314       $LN23                      000000018000b314     flightControlSystem_sfun_registry.obj
 0001:0000aecc       $LN26                      000000018000becc     flightControlSystem_sfun_registry.obj
 0001:0000d880       ProcessMexSfunctionCmdLineCall 000000018000e880 f   flightControlSystem_sfun_registry.obj
 0001:0000db90       mdlSetWorkWidths           000000018000eb90 f   flightControlSystem_sfun_registry.obj
 0001:0000dbe0       mdlProcessParameters       000000018000ebe0 f   flightControlSystem_sfun_registry.obj
 0001:0000dc10       mdl_setup_runtime_resources_processing 000000018000ec10 f   flightControlSystem_sfun_registry.obj
 0001:0000dc70       mdlSetupRuntimeResources   000000018000ec70 f   flightControlSystem_sfun_registry.obj
 0001:0000dca0       mdl_cleanup_runtime_resources_processing 000000018000eca0 f   flightControlSystem_sfun_registry.obj
 0001:0000dd60       mdlCleanupRuntimeResources 000000018000ed60 f   flightControlSystem_sfun_registry.obj
 0001:0000dd90       mdl_start_processing       000000018000ed90 f   flightControlSystem_sfun_registry.obj
 0001:0000ddd0       mdlStart                   000000018000edd0 f   flightControlSystem_sfun_registry.obj
 0001:0000de00       mdl_terminate_processing   000000018000ee00 f   flightControlSystem_sfun_registry.obj
 0001:0000de40       mdlTerminate               000000018000ee40 f   flightControlSystem_sfun_registry.obj
 0001:0000de70       mdlInitializeSizes         000000018000ee70 f   flightControlSystem_sfun_registry.obj
 0001:0000dea0       mdlInitializeSampleTimes   000000018000eea0 f   flightControlSystem_sfun_registry.obj
 0001:0000ded0       mdl_outputs_continuous_legacy 000000018000eed0 f   flightControlSystem_sfun_registry.obj
 0001:0000dfd0       mdl_outputs_processing     000000018000efd0 f   flightControlSystem_sfun_registry.obj
 0001:0000e0f0       mdl_zeroCrossings_processing 000000018000f0f0 f   flightControlSystem_sfun_registry.obj
 0001:0000e130       mdlZeroCrossings           000000018000f130 f   flightControlSystem_sfun_registry.obj
 0001:0000e160       mdl_derivatives_processing 000000018000f160 f   flightControlSystem_sfun_registry.obj
 0001:0000e1b0       mdlDerivatives             000000018000f1b0 f   flightControlSystem_sfun_registry.obj
 0001:0000e1e0       mdl_initialize_conditions_processing 000000018000f1e0 f   flightControlSystem_sfun_registry.obj
 0001:0000e230       mdlInitializeConditions    000000018000f230 f   flightControlSystem_sfun_registry.obj
 0001:0000e260       mdl_ext_mode_exec_processing 000000018000f260 f   flightControlSystem_sfun_registry.obj
 0001:0000e2a0       mdlExtModeExec             000000018000f2a0 f   flightControlSystem_sfun_registry.obj
 0001:0000e2d0       mdlRTW                     000000018000f2d0 f   flightControlSystem_sfun_registry.obj
 0001:0000e310       mdl_enable_processing      000000018000f310 f   flightControlSystem_sfun_registry.obj
 0001:0000e350       mdlEnable                  000000018000f350 f   flightControlSystem_sfun_registry.obj
 0001:0000e380       mdl_disable_processing     000000018000f380 f   flightControlSystem_sfun_registry.obj
 0001:0000e3c0       mdlDisable                 000000018000f3c0 f   flightControlSystem_sfun_registry.obj
 0001:0000e3f0       mdlOutputs                 000000018000f3f0 f   flightControlSystem_sfun_registry.obj
 0001:0000e420       mdl_update_processing      000000018000f420 f   flightControlSystem_sfun_registry.obj
 0001:0000e470       mdlUpdate                  000000018000f470 f   flightControlSystem_sfun_registry.obj
 0001:0000e660       mdlGetTimeOfNextVarHit     000000018000f660 f   flightControlSystem_sfun_registry.obj
 0001:0000e6b0       _RegNumInputPortsCB        000000018000f6b0 f   flightControlSystem_sfun_registry.obj
 0001:0000e730       _RegNumOutputPortsCB       000000018000f730 f   flightControlSystem_sfun_registry.obj
 0001:0000e7b0       _CreateSimStruct           000000018000f7b0 f   flightControlSystem_sfun_registry.obj
 0001:0000e9d0       _ProcessMexSfunctionCmdLineCall 000000018000f9d0 f   flightControlSystem_sfun_registry.obj
 0001:0000f440       ReportIndexOutOfBoundsError 0000000180010440 f   flightControlSystem_sfun_registry.obj
 0001:00060c2c       capture_current_context    0000000180061c2c f   MSVCRT:gs_report.obj
 0001:00060c9c       capture_previous_context   0000000180061c9c f   MSVCRT:gs_report.obj
 0001:00060d90       $$000000                   0000000180061d90     MSVCRT:_amdsecgs_.obj
 0001:00060dd0       $$000000                   0000000180061dd0     MSVCRT:_chkstk_.obj
 0001:00060ec0       ?dllmain_crt_dispatch@@YAHQEAUHINSTANCE__@@KQEAX@Z 0000000180061ec0 f   MSVCRT:dll_dllmain.obj
 0001:00060f10       ?dllmain_crt_process_attach@@YAHQEAUHINSTANCE__@@QEAX@Z 0000000180061f10 f   MSVCRT:dll_dllmain.obj
 0001:0006103c       ?dllmain_crt_process_detach@@YAH_N@Z 000000018006203c f   MSVCRT:dll_dllmain.obj
 0001:000610c0       ?dllmain_dispatch@@YAHQEAUHINSTANCE__@@KQEAX@Z 00000001800620c0 f   MSVCRT:dll_dllmain.obj
 0001:000611b8       ?dllmain_raw@@YAHQEAUHINSTANCE__@@KQEAX@Z 00000001800621b8 f   MSVCRT:dll_dllmain.obj
 0001:00061538       ?find_pe_section@@YAPEAU_IMAGE_SECTION_HEADER@@QEAE_K@Z 0000000180062538 f   MSVCRT:utility.obj
 0001:00061584       ?is_potentially_valid_image_base@@YA_NQEAX@Z 0000000180062584 f   MSVCRT:utility.obj
 0001:000620f0       $$000000                   00000001800630f0     MSVCRT:_guard_dispatch_.obj
 0001:00062110       ?dtor$0@?0???$InstantiateShape@EEHHMM@@YAPEAVDrawBase@@PEAEPEAH0PEAM1HEHHHH1HEE0@Z@4HA 0000000180063110 f   insertShapeUtilsCore.obj
 0001:00062130       ?dtor$1@?0???$InstantiateShape@EEHHMM@@YAPEAVDrawBase@@PEAEPEAH0PEAM1HEHHHH1HEE0@Z@4HA 0000000180063130 f   insertShapeUtilsCore.obj
 0001:00062150       ?dtor$2@?0???$InstantiateShape@EEHHMM@@YAPEAVDrawBase@@PEAEPEAH0PEAM1HEHHHH1HEE0@Z@4HA 0000000180063150 f   insertShapeUtilsCore.obj
 0001:00062170       ?dtor$3@?0???$InstantiateShape@EEHHMM@@YAPEAVDrawBase@@PEAEPEAH0PEAM1HEHHHH1HEE0@Z@4HA 0000000180063170 f   insertShapeUtilsCore.obj
 0001:00062190       ?dtor$4@?0???$InstantiateShape@EEHHMM@@YAPEAVDrawBase@@PEAEPEAH0PEAM1HEHHHH1HEE0@Z@4HA 0000000180063190 f   insertShapeUtilsCore.obj
 0001:000621b0       ?dtor$5@?0???$InstantiateShape@EEHHMM@@YAPEAVDrawBase@@PEAEPEAH0PEAM1HEHHHH1HEE0@Z@4HA 00000001800631b0 f   insertShapeUtilsCore.obj
 0001:000621d0       ?dtor$6@?0???$InstantiateShape@EEHHMM@@YAPEAVDrawBase@@PEAEPEAH0PEAM1HEHHHH1HEE0@Z@4HA 00000001800631d0 f   insertShapeUtilsCore.obj
 0001:000621f0       ?dtor$7@?0???$InstantiateShape@EEHHMM@@YAPEAVDrawBase@@PEAEPEAH0PEAM1HEHHHH1HEE0@Z@4HA 00000001800631f0 f   insertShapeUtilsCore.obj
 0001:00062210       ?dtor$8@?0???$InstantiateShape@EEHHMM@@YAPEAVDrawBase@@PEAEPEAH0PEAM1HEHHHH1HEE0@Z@4HA 0000000180063210 f   insertShapeUtilsCore.obj
 0001:00062230       ?dtor$9@?0???$InstantiateShape@EEHHMM@@YAPEAVDrawBase@@PEAEPEAH0PEAM1HEHHHH1HEE0@Z@4HA 0000000180063230 f   insertShapeUtilsCore.obj
 0001:00062250       ?dtor$10@?0???$InstantiateShape@EEHHMM@@YAPEAVDrawBase@@PEAEPEAH0PEAM1HEHHHH1HEE0@Z@4HA 0000000180063250 f   insertShapeUtilsCore.obj
 0001:00062270       ?dtor$11@?0???$InstantiateShape@EEHHMM@@YAPEAVDrawBase@@PEAEPEAH0PEAM1HEHHHH1HEE0@Z@4HA 0000000180063270 f   insertShapeUtilsCore.obj
 0001:00062290       ?dtor$12@?0???$InstantiateShape@EEHHMM@@YAPEAVDrawBase@@PEAEPEAH0PEAM1HEHHHH1HEE0@Z@4HA 0000000180063290 f   insertShapeUtilsCore.obj
 0001:000622b0       ?dtor$13@?0???$InstantiateShape@EEHHMM@@YAPEAVDrawBase@@PEAEPEAH0PEAM1HEHHHH1HEE0@Z@4HA 00000001800632b0 f   insertShapeUtilsCore.obj
 0001:000622d0       ?dtor$14@?0???$InstantiateShape@EEHHMM@@YAPEAVDrawBase@@PEAEPEAH0PEAM1HEHHHH1HEE0@Z@4HA 00000001800632d0 f   insertShapeUtilsCore.obj
 0001:000622f0       ?dtor$15@?0???$InstantiateShape@EEHHMM@@YAPEAVDrawBase@@PEAEPEAH0PEAM1HEHHHH1HEE0@Z@4HA 00000001800632f0 f   insertShapeUtilsCore.obj
 0001:00062310       ?dtor$0@?0???$InstantiateShape@FFHHMM@@YAPEAVDrawBase@@PEAFPEAH0PEAM1HEHHHH1HEEPEAE@Z@4HA 0000000180063310 f   insertShapeUtilsCore.obj
 0001:00062330       ?dtor$1@?0???$InstantiateShape@FFHHMM@@YAPEAVDrawBase@@PEAFPEAH0PEAM1HEHHHH1HEEPEAE@Z@4HA 0000000180063330 f   insertShapeUtilsCore.obj
 0001:00062350       ?dtor$2@?0???$InstantiateShape@FFHHMM@@YAPEAVDrawBase@@PEAFPEAH0PEAM1HEHHHH1HEEPEAE@Z@4HA 0000000180063350 f   insertShapeUtilsCore.obj
 0001:00062370       ?dtor$3@?0???$InstantiateShape@FFHHMM@@YAPEAVDrawBase@@PEAFPEAH0PEAM1HEHHHH1HEEPEAE@Z@4HA 0000000180063370 f   insertShapeUtilsCore.obj
 0001:00062390       ?dtor$4@?0???$InstantiateShape@FFHHMM@@YAPEAVDrawBase@@PEAFPEAH0PEAM1HEHHHH1HEEPEAE@Z@4HA 0000000180063390 f   insertShapeUtilsCore.obj
 0001:000623b0       ?dtor$5@?0???$InstantiateShape@FFHHMM@@YAPEAVDrawBase@@PEAFPEAH0PEAM1HEHHHH1HEEPEAE@Z@4HA 00000001800633b0 f   insertShapeUtilsCore.obj
 0001:000623d0       ?dtor$6@?0???$InstantiateShape@FFHHMM@@YAPEAVDrawBase@@PEAFPEAH0PEAM1HEHHHH1HEEPEAE@Z@4HA 00000001800633d0 f   insertShapeUtilsCore.obj
 0001:000623f0       ?dtor$7@?0???$InstantiateShape@FFHHMM@@YAPEAVDrawBase@@PEAFPEAH0PEAM1HEHHHH1HEEPEAE@Z@4HA 00000001800633f0 f   insertShapeUtilsCore.obj
 0001:00062410       ?dtor$8@?0???$InstantiateShape@FFHHMM@@YAPEAVDrawBase@@PEAFPEAH0PEAM1HEHHHH1HEEPEAE@Z@4HA 0000000180063410 f   insertShapeUtilsCore.obj
 0001:00062430       ?dtor$9@?0???$InstantiateShape@FFHHMM@@YAPEAVDrawBase@@PEAFPEAH0PEAM1HEHHHH1HEEPEAE@Z@4HA 0000000180063430 f   insertShapeUtilsCore.obj
 0001:00062450       ?dtor$10@?0???$InstantiateShape@FFHHMM@@YAPEAVDrawBase@@PEAFPEAH0PEAM1HEHHHH1HEEPEAE@Z@4HA 0000000180063450 f   insertShapeUtilsCore.obj
 0001:00062470       ?dtor$11@?0???$InstantiateShape@FFHHMM@@YAPEAVDrawBase@@PEAFPEAH0PEAM1HEHHHH1HEEPEAE@Z@4HA 0000000180063470 f   insertShapeUtilsCore.obj
 0001:00062490       ?dtor$12@?0???$InstantiateShape@FFHHMM@@YAPEAVDrawBase@@PEAFPEAH0PEAM1HEHHHH1HEEPEAE@Z@4HA 0000000180063490 f   insertShapeUtilsCore.obj
 0001:000624b0       ?dtor$13@?0???$InstantiateShape@FFHHMM@@YAPEAVDrawBase@@PEAFPEAH0PEAM1HEHHHH1HEEPEAE@Z@4HA 00000001800634b0 f   insertShapeUtilsCore.obj
 0001:000624d0       ?dtor$14@?0???$InstantiateShape@FFHHMM@@YAPEAVDrawBase@@PEAFPEAH0PEAM1HEHHHH1HEEPEAE@Z@4HA 00000001800634d0 f   insertShapeUtilsCore.obj
 0001:000624f0       ?dtor$15@?0???$InstantiateShape@FFHHMM@@YAPEAVDrawBase@@PEAFPEAH0PEAM1HEHHHH1HEEPEAE@Z@4HA 00000001800634f0 f   insertShapeUtilsCore.obj
 0001:00062510       ?dtor$0@?0???$InstantiateShape@GGHHMM@@YAPEAVDrawBase@@PEAGPEAH0PEAM1HEHHHH1HEEPEAE@Z@4HA 0000000180063510 f   insertShapeUtilsCore.obj
 0001:00062530       ?dtor$1@?0???$InstantiateShape@GGHHMM@@YAPEAVDrawBase@@PEAGPEAH0PEAM1HEHHHH1HEEPEAE@Z@4HA 0000000180063530 f   insertShapeUtilsCore.obj
 0001:00062550       ?dtor$2@?0???$InstantiateShape@GGHHMM@@YAPEAVDrawBase@@PEAGPEAH0PEAM1HEHHHH1HEEPEAE@Z@4HA 0000000180063550 f   insertShapeUtilsCore.obj
 0001:00062570       ?dtor$3@?0???$InstantiateShape@GGHHMM@@YAPEAVDrawBase@@PEAGPEAH0PEAM1HEHHHH1HEEPEAE@Z@4HA 0000000180063570 f   insertShapeUtilsCore.obj
 0001:00062590       ?dtor$4@?0???$InstantiateShape@GGHHMM@@YAPEAVDrawBase@@PEAGPEAH0PEAM1HEHHHH1HEEPEAE@Z@4HA 0000000180063590 f   insertShapeUtilsCore.obj
 0001:000625b0       ?dtor$5@?0???$InstantiateShape@GGHHMM@@YAPEAVDrawBase@@PEAGPEAH0PEAM1HEHHHH1HEEPEAE@Z@4HA 00000001800635b0 f   insertShapeUtilsCore.obj
 0001:000625d0       ?dtor$6@?0???$InstantiateShape@GGHHMM@@YAPEAVDrawBase@@PEAGPEAH0PEAM1HEHHHH1HEEPEAE@Z@4HA 00000001800635d0 f   insertShapeUtilsCore.obj
 0001:000625f0       ?dtor$7@?0???$InstantiateShape@GGHHMM@@YAPEAVDrawBase@@PEAGPEAH0PEAM1HEHHHH1HEEPEAE@Z@4HA 00000001800635f0 f   insertShapeUtilsCore.obj
 0001:00062610       ?dtor$8@?0???$InstantiateShape@GGHHMM@@YAPEAVDrawBase@@PEAGPEAH0PEAM1HEHHHH1HEEPEAE@Z@4HA 0000000180063610 f   insertShapeUtilsCore.obj
 0001:00062630       ?dtor$9@?0???$InstantiateShape@GGHHMM@@YAPEAVDrawBase@@PEAGPEAH0PEAM1HEHHHH1HEEPEAE@Z@4HA 0000000180063630 f   insertShapeUtilsCore.obj
 0001:00062650       ?dtor$10@?0???$InstantiateShape@GGHHMM@@YAPEAVDrawBase@@PEAGPEAH0PEAM1HEHHHH1HEEPEAE@Z@4HA 0000000180063650 f   insertShapeUtilsCore.obj
 0001:00062670       ?dtor$11@?0???$InstantiateShape@GGHHMM@@YAPEAVDrawBase@@PEAGPEAH0PEAM1HEHHHH1HEEPEAE@Z@4HA 0000000180063670 f   insertShapeUtilsCore.obj
 0001:00062690       ?dtor$12@?0???$InstantiateShape@GGHHMM@@YAPEAVDrawBase@@PEAGPEAH0PEAM1HEHHHH1HEEPEAE@Z@4HA 0000000180063690 f   insertShapeUtilsCore.obj
 0001:000626b0       ?dtor$13@?0???$InstantiateShape@GGHHMM@@YAPEAVDrawBase@@PEAGPEAH0PEAM1HEHHHH1HEEPEAE@Z@4HA 00000001800636b0 f   insertShapeUtilsCore.obj
 0001:000626d0       ?dtor$14@?0???$InstantiateShape@GGHHMM@@YAPEAVDrawBase@@PEAGPEAH0PEAM1HEHHHH1HEEPEAE@Z@4HA 00000001800636d0 f   insertShapeUtilsCore.obj
 0001:000626f0       ?dtor$15@?0???$InstantiateShape@GGHHMM@@YAPEAVDrawBase@@PEAGPEAH0PEAM1HEHHHH1HEEPEAE@Z@4HA 00000001800636f0 f   insertShapeUtilsCore.obj
 0001:00062710       ?dtor$0@?0???$InstantiateShape@MMHHMM@@YAPEAVDrawBase@@PEAMPEAH001HEHHHH1HEEPEAE@Z@4HA 0000000180063710 f   insertShapeUtilsCore.obj
 0001:00062730       ?dtor$1@?0???$InstantiateShape@MMHHMM@@YAPEAVDrawBase@@PEAMPEAH001HEHHHH1HEEPEAE@Z@4HA 0000000180063730 f   insertShapeUtilsCore.obj
 0001:00062750       ?dtor$2@?0???$InstantiateShape@MMHHMM@@YAPEAVDrawBase@@PEAMPEAH001HEHHHH1HEEPEAE@Z@4HA 0000000180063750 f   insertShapeUtilsCore.obj
 0001:00062770       ?dtor$3@?0???$InstantiateShape@MMHHMM@@YAPEAVDrawBase@@PEAMPEAH001HEHHHH1HEEPEAE@Z@4HA 0000000180063770 f   insertShapeUtilsCore.obj
 0001:00062790       ?dtor$4@?0???$InstantiateShape@MMHHMM@@YAPEAVDrawBase@@PEAMPEAH001HEHHHH1HEEPEAE@Z@4HA 0000000180063790 f   insertShapeUtilsCore.obj
 0001:000627b0       ?dtor$5@?0???$InstantiateShape@MMHHMM@@YAPEAVDrawBase@@PEAMPEAH001HEHHHH1HEEPEAE@Z@4HA 00000001800637b0 f   insertShapeUtilsCore.obj
 0001:000627d0       ?dtor$6@?0???$InstantiateShape@MMHHMM@@YAPEAVDrawBase@@PEAMPEAH001HEHHHH1HEEPEAE@Z@4HA 00000001800637d0 f   insertShapeUtilsCore.obj
 0001:000627f0       ?dtor$7@?0???$InstantiateShape@MMHHMM@@YAPEAVDrawBase@@PEAMPEAH001HEHHHH1HEEPEAE@Z@4HA 00000001800637f0 f   insertShapeUtilsCore.obj
 0001:00062810       ?dtor$8@?0???$InstantiateShape@MMHHMM@@YAPEAVDrawBase@@PEAMPEAH001HEHHHH1HEEPEAE@Z@4HA 0000000180063810 f   insertShapeUtilsCore.obj
 0001:00062830       ?dtor$9@?0???$InstantiateShape@MMHHMM@@YAPEAVDrawBase@@PEAMPEAH001HEHHHH1HEEPEAE@Z@4HA 0000000180063830 f   insertShapeUtilsCore.obj
 0001:00062850       ?dtor$10@?0???$InstantiateShape@MMHHMM@@YAPEAVDrawBase@@PEAMPEAH001HEHHHH1HEEPEAE@Z@4HA 0000000180063850 f   insertShapeUtilsCore.obj
 0001:00062870       ?dtor$11@?0???$InstantiateShape@MMHHMM@@YAPEAVDrawBase@@PEAMPEAH001HEHHHH1HEEPEAE@Z@4HA 0000000180063870 f   insertShapeUtilsCore.obj
 0001:00062890       ?dtor$12@?0???$InstantiateShape@MMHHMM@@YAPEAVDrawBase@@PEAMPEAH001HEHHHH1HEEPEAE@Z@4HA 0000000180063890 f   insertShapeUtilsCore.obj
 0001:000628b0       ?dtor$13@?0???$InstantiateShape@MMHHMM@@YAPEAVDrawBase@@PEAMPEAH001HEHHHH1HEEPEAE@Z@4HA 00000001800638b0 f   insertShapeUtilsCore.obj
 0001:000628d0       ?dtor$14@?0???$InstantiateShape@MMHHMM@@YAPEAVDrawBase@@PEAMPEAH001HEHHHH1HEEPEAE@Z@4HA 00000001800638d0 f   insertShapeUtilsCore.obj
 0001:000628f0       ?dtor$15@?0???$InstantiateShape@MMHHMM@@YAPEAVDrawBase@@PEAMPEAH001HEHHHH1HEEPEAE@Z@4HA 00000001800638f0 f   insertShapeUtilsCore.obj
 0001:00062910       ?dtor$0@?0???$InstantiateShape@NNHHNN@@YAPEAVDrawBase@@PEANPEAH001HEHHHH1HEEPEAE@Z@4HA 0000000180063910 f   insertShapeUtilsCore.obj
 0001:00062930       ?dtor$1@?0???$InstantiateShape@NNHHNN@@YAPEAVDrawBase@@PEANPEAH001HEHHHH1HEEPEAE@Z@4HA 0000000180063930 f   insertShapeUtilsCore.obj
 0001:00062950       ?dtor$2@?0???$InstantiateShape@NNHHNN@@YAPEAVDrawBase@@PEANPEAH001HEHHHH1HEEPEAE@Z@4HA 0000000180063950 f   insertShapeUtilsCore.obj
 0001:00062970       ?dtor$3@?0???$InstantiateShape@NNHHNN@@YAPEAVDrawBase@@PEANPEAH001HEHHHH1HEEPEAE@Z@4HA 0000000180063970 f   insertShapeUtilsCore.obj
 0001:00062990       ?dtor$4@?0???$InstantiateShape@NNHHNN@@YAPEAVDrawBase@@PEANPEAH001HEHHHH1HEEPEAE@Z@4HA 0000000180063990 f   insertShapeUtilsCore.obj
 0001:000629b0       ?dtor$5@?0???$InstantiateShape@NNHHNN@@YAPEAVDrawBase@@PEANPEAH001HEHHHH1HEEPEAE@Z@4HA 00000001800639b0 f   insertShapeUtilsCore.obj
 0001:000629d0       ?dtor$6@?0???$InstantiateShape@NNHHNN@@YAPEAVDrawBase@@PEANPEAH001HEHHHH1HEEPEAE@Z@4HA 00000001800639d0 f   insertShapeUtilsCore.obj
 0001:000629f0       ?dtor$7@?0???$InstantiateShape@NNHHNN@@YAPEAVDrawBase@@PEANPEAH001HEHHHH1HEEPEAE@Z@4HA 00000001800639f0 f   insertShapeUtilsCore.obj
 0001:00062a10       ?dtor$8@?0???$InstantiateShape@NNHHNN@@YAPEAVDrawBase@@PEANPEAH001HEHHHH1HEEPEAE@Z@4HA 0000000180063a10 f   insertShapeUtilsCore.obj
 0001:00062a30       ?dtor$9@?0???$InstantiateShape@NNHHNN@@YAPEAVDrawBase@@PEANPEAH001HEHHHH1HEEPEAE@Z@4HA 0000000180063a30 f   insertShapeUtilsCore.obj
 0001:00062a50       ?dtor$10@?0???$InstantiateShape@NNHHNN@@YAPEAVDrawBase@@PEANPEAH001HEHHHH1HEEPEAE@Z@4HA 0000000180063a50 f   insertShapeUtilsCore.obj
 0001:00062a70       ?dtor$11@?0???$InstantiateShape@NNHHNN@@YAPEAVDrawBase@@PEANPEAH001HEHHHH1HEEPEAE@Z@4HA 0000000180063a70 f   insertShapeUtilsCore.obj
 0001:00062a90       ?dtor$12@?0???$InstantiateShape@NNHHNN@@YAPEAVDrawBase@@PEANPEAH001HEHHHH1HEEPEAE@Z@4HA 0000000180063a90 f   insertShapeUtilsCore.obj
 0001:00062ab0       ?dtor$13@?0???$InstantiateShape@NNHHNN@@YAPEAVDrawBase@@PEANPEAH001HEHHHH1HEEPEAE@Z@4HA 0000000180063ab0 f   insertShapeUtilsCore.obj
 0001:00062ad0       ?dtor$14@?0???$InstantiateShape@NNHHNN@@YAPEAVDrawBase@@PEANPEAH001HEHHHH1HEEPEAE@Z@4HA 0000000180063ad0 f   insertShapeUtilsCore.obj
 0001:00062af0       ?dtor$15@?0???$InstantiateShape@NNHHNN@@YAPEAVDrawBase@@PEANPEAH001HEHHHH1HEEPEAE@Z@4HA 0000000180063af0 f   insertShapeUtilsCore.obj
 0001:00062b10       ?dtor$0@?0???0?$DrawCommon@EEHHMMEE@@QEAA@PEAE00HHH0HPEAHHH1EEEPEAMH002@Z@4HA 0000000180063b10 f   insertShapeUtilsCore.obj
 0001:00062b30       ?dtor$0@?0???0?$DrawCommon@EEHHMMEH@@QEAA@PEAE00HHH0HPEAHHH1EEEPEAMH002@Z@4HA 0000000180063b30 f   insertShapeUtilsCore.obj
 0001:00062b50       ?dtor$0@?0???0?$DrawCommon@FFHHMMEE@@QEAA@PEAF00HHH0HPEAHHH1EEEPEAMHPEAE02@Z@4HA 0000000180063b50 f   insertShapeUtilsCore.obj
 0001:00062b70       ?dtor$0@?0???0?$DrawCommon@FFHHMMEH@@QEAA@PEAF00HHH0HPEAHHH1EEEPEAMHPEAE02@Z@4HA 0000000180063b70 f   insertShapeUtilsCore.obj
 0001:00062b90       ?dtor$0@?0???0?$DrawCommon@GGHHMMEE@@QEAA@PEAG00HHH0HPEAHHH1EEEPEAMHPEAE02@Z@4HA 0000000180063b90 f   insertShapeUtilsCore.obj
 0001:00062bb0       ?dtor$0@?0???0?$DrawCommon@GGHHMMEH@@QEAA@PEAG00HHH0HPEAHHH1EEEPEAMHPEAE02@Z@4HA 0000000180063bb0 f   insertShapeUtilsCore.obj
 0001:00062bd0       ?dtor$0@?0???0?$DrawCommon@MMHHMMEE@@QEAA@PEAM00HHH0HPEAHHH1EEE0HPEAE00@Z@4HA 0000000180063bd0 f   insertShapeUtilsCore.obj
 0001:00062bf0       ?dtor$0@?0???0?$DrawCommon@MMHHMMEH@@QEAA@PEAM00HHH0HPEAHHH1EEE0HPEAE00@Z@4HA 0000000180063bf0 f   insertShapeUtilsCore.obj
 0001:00062c10       ?dtor$0@?0???0?$DrawCommon@NNHHNNEE@@QEAA@PEAN00HHH0HPEAHHH1EEE0HPEAE00@Z@4HA 0000000180063c10 f   insertShapeUtilsCore.obj
 0001:00062c30       ?dtor$0@?0???0?$DrawCommon@NNHHNNEH@@QEAA@PEAN00HHH0HPEAHHH1EEE0HPEAE00@Z@4HA 0000000180063c30 f   insertShapeUtilsCore.obj
 0001:00062c48       ?fin$0@?0??dllmain_crt_process_attach@@YAHQEAUHINSTANCE__@@QEAX@Z@4HA 0000000180063c48 f   MSVCRT:dll_dllmain.obj
 0001:00062c5f       ?fin$0@?0??dllmain_crt_process_detach@@YAH_N@Z@4HA 0000000180063c5f f   MSVCRT:dll_dllmain.obj
 0001:00062c7b       ?filt$0@?0??dllmain_dispatch@@YAHQEAUHINSTANCE__@@KQEAX@Z@4HA 0000000180063c7b f   MSVCRT:dll_dllmain.obj
 0001:00062cb1       __scrt_is_nonwritable_in_current_image$filt$0 0000000180063cb1 f   MSVCRT:utility.obj
 0002:00000550       ?c1_decisionTxtStartIdx@?1??mdl_setup_runtime_resources_c1_flightControlSystem@@9@9 0000000180064550     c1_flightControlSystem.obj
 0002:00000554       ?c1_decisionTxtEndIdx@?1??mdl_setup_runtime_resources_c1_flightControlSystem@@9@9 0000000180064554     c1_flightControlSystem.obj
 0002:00000608       $cppxdata$?floor@@YAMM@Z   0000000180064608     insertShapeUtilsCore.obj
 0002:00000630       $cppxdata$?sqrt@@YAMM@Z    0000000180064630     insertShapeUtilsCore.obj
 0002:00000658       $cppxdata$??$InstantiateShape@MMHHMM@@YAPEAVDrawBase@@PEAMPEAH001HEHHHH1HEEPEAE@Z 0000000180064658     insertShapeUtilsCore.obj
 0002:00000680       $cppxdata$??$InstantiateShape@NNHHNN@@YAPEAVDrawBase@@PEANPEAH001HEHHHH1HEEPEAE@Z 0000000180064680     insertShapeUtilsCore.obj
 0002:000006a8       $cppxdata$??$InstantiateShape@EEHHMM@@YAPEAVDrawBase@@PEAEPEAH0PEAM1HEHHHH1HEE0@Z 00000001800646a8     insertShapeUtilsCore.obj
 0002:000006d0       $cppxdata$??$InstantiateShape@GGHHMM@@YAPEAVDrawBase@@PEAGPEAH0PEAM1HEHHHH1HEEPEAE@Z 00000001800646d0     insertShapeUtilsCore.obj
 0002:000006f8       $cppxdata$??$InstantiateShape@FFHHMM@@YAPEAVDrawBase@@PEAFPEAH0PEAM1HEHHHH1HEEPEAE@Z 00000001800646f8     insertShapeUtilsCore.obj
 0002:00000720       $cppxdata$??0?$DrawCommon@MMHHMMEH@@QEAA@PEAM00HHH0HPEAHHH1EEE0HPEAE00@Z 0000000180064720     insertShapeUtilsCore.obj
 0002:00000748       $cppxdata$??0?$DrawCommon@MMHHMMEE@@QEAA@PEAM00HHH0HPEAHHH1EEE0HPEAE00@Z 0000000180064748     insertShapeUtilsCore.obj
 0002:00000770       $cppxdata$??0?$DrawCommon@NNHHNNEH@@QEAA@PEAN00HHH0HPEAHHH1EEE0HPEAE00@Z 0000000180064770     insertShapeUtilsCore.obj
 0002:00000798       $cppxdata$??0?$DrawCommon@NNHHNNEE@@QEAA@PEAN00HHH0HPEAHHH1EEE0HPEAE00@Z 0000000180064798     insertShapeUtilsCore.obj
 0002:000007c0       $cppxdata$??0?$DrawCommon@EEHHMMEH@@QEAA@PEAE00HHH0HPEAHHH1EEEPEAMH002@Z 00000001800647c0     insertShapeUtilsCore.obj
 0002:000007e8       $cppxdata$??0?$DrawCommon@EEHHMMEE@@QEAA@PEAE00HHH0HPEAHHH1EEEPEAMH002@Z 00000001800647e8     insertShapeUtilsCore.obj
 0002:00000810       $cppxdata$??0?$DrawCommon@GGHHMMEH@@QEAA@PEAG00HHH0HPEAHHH1EEEPEAMHPEAE02@Z 0000000180064810     insertShapeUtilsCore.obj
 0002:00000838       $cppxdata$??0?$DrawCommon@GGHHMMEE@@QEAA@PEAG00HHH0HPEAHHH1EEEPEAMHPEAE02@Z 0000000180064838     insertShapeUtilsCore.obj
 0002:00000860       $cppxdata$??0?$DrawCommon@FFHHMMEH@@QEAA@PEAF00HHH0HPEAHHH1EEEPEAMHPEAE02@Z 0000000180064860     insertShapeUtilsCore.obj
 0002:00000888       $cppxdata$??0?$DrawCommon@FFHHMMEE@@QEAA@PEAF00HHH0HPEAHHH1EEEPEAMHPEAE02@Z 0000000180064888     insertShapeUtilsCore.obj
 0002:000044d0       GS_ExceptionPointers       00000001800684d0     MSVCRT:gs_report.obj
 0002:00008970       $unwind$load_flightControlSystem_optimization_info 000000018006c970     flightControlSystem_sfun.obj
 0002:00008978       $unwind$unload_flightControlSystem_optimization_info 000000018006c978     flightControlSystem_sfun.obj
 0002:00008980       $unwind$sf_flightControlSystem_method_dispatcher 000000018006c980     flightControlSystem_sfun.obj
 0002:00008988       $unwind$sf_flightControlSystem_process_check_sum_call 000000018006c988     flightControlSystem_sfun.obj
 0002:00008998       $unwind$sf_flightControlSystem_get_eml_resolved_functions_info 000000018006c998     flightControlSystem_sfun.obj
 0002:000089a8       $unwind$sf_flightControlSystem_third_party_uses_info 000000018006c9a8     flightControlSystem_sfun.obj
 0002:000089b8       $unwind$sf_flightControlSystem_jit_fallback_info 000000018006c9b8     flightControlSystem_sfun.obj
 0002:000089c8       $unwind$sf_flightControlSystem_get_post_codegen_info 000000018006c9c8     flightControlSystem_sfun.obj
 0002:000089d8       $unwind$sf_flightControlSystem_updateBuildInfo_args_info 000000018006c9d8     flightControlSystem_sfun.obj
 0002:000089e8       $unwind$sf_c1_flightControlSystem_get_eml_resolved_functions_info 000000018006c9e8     c1_flightControlSystem.obj
 0002:000089f0       $unwind$sf_c1_flightControlSystem_get_check_sum 000000018006c9f0     c1_flightControlSystem.obj
 0002:000089f8       $unwind$c1_flightControlSystem_method_dispatcher 000000018006c9f8     c1_flightControlSystem.obj
 0002:00008a00       $unwind$initialize_c1_flightControlSystem 000000018006ca00     c1_flightControlSystem.obj
 0002:00008a08       $unwind$enable_c1_flightControlSystem 000000018006ca08     c1_flightControlSystem.obj
 0002:00008a10       $unwind$disable_c1_flightControlSystem 000000018006ca10     c1_flightControlSystem.obj
 0002:00008a18       $unwind$c1_do_animation_call_c1_flightControlSystem 000000018006ca18     c1_flightControlSystem.obj
 0002:00008a20       $unwind$get_sim_state_c1_flightControlSystem 000000018006ca20     c1_flightControlSystem.obj
 0002:00008a28       $unwind$set_sim_state_c1_flightControlSystem 000000018006ca28     c1_flightControlSystem.obj
 0002:00008a38       $unwind$sf_gateway_c1_flightControlSystem 000000018006ca38     c1_flightControlSystem.obj
 0002:00008a40       $unwind$mdl_setup_runtime_resources_c1_flightControlSystem 000000018006ca40     c1_flightControlSystem.obj
 0002:00008a48       $unwind$mdl_cleanup_runtime_resources_c1_flightControlSystem 000000018006ca48     c1_flightControlSystem.obj
 0002:00008a50       $unwind$c1_chartstep_c1_flightControlSystem 000000018006ca50     c1_flightControlSystem.obj
 0002:00008a60       $unwind$c1_matlabCodegenHandle_matlabCodegenDestructor 000000018006ca60     c1_flightControlSystem.obj
 0002:00008a68       $unwind$c1_rgb2hsv         000000018006ca68     c1_flightControlSystem.obj
 0002:00008a70       $unwind$c1_BlobAnalysis_BlobAnalysis 000000018006ca70     c1_flightControlSystem.obj
 0002:00008a78       $unwind$c1_SystemCore_step 000000018006ca78     c1_flightControlSystem.obj
 0002:00008a8c       $unwind$c1_BlobAnalysis_outputImpl 000000018006ca8c     c1_flightControlSystem.obj
 0002:00008a9c       $unwind$c1_insertShape     000000018006ca9c     c1_flightControlSystem.obj
 0002:00008aac       $unwind$c1_validateAndParseInputs 000000018006caac     c1_flightControlSystem.obj
 0002:00008ab4       $unwind$c1_emlrt_marshallIn 000000018006cab4     c1_flightControlSystem.obj
 0002:00008abc       $unwind$c1_b_emlrt_marshallIn 000000018006cabc     c1_flightControlSystem.obj
 0002:00008acc       $unwind$c1_c_emlrt_marshallIn 000000018006cacc     c1_flightControlSystem.obj
 0002:00008ad4       $unwind$c1_d_emlrt_marshallIn 000000018006cad4     c1_flightControlSystem.obj
 0002:00008adc       $unwind$c1_e_emlrt_marshallIn 000000018006cadc     c1_flightControlSystem.obj
 0002:00008ae4       $unwind$c1_f_emlrt_marshallIn 000000018006cae4     c1_flightControlSystem.obj
 0002:00008aec       $unwind$c1_chart_data_browse_helper 000000018006caec     c1_flightControlSystem.obj
 0002:00008af4       $unwind$init_simulink_io_address 000000018006caf4     c1_flightControlSystem.obj
 0002:00008afc       $unwind$sf_c1_flightControlSystem_third_party_uses_info 000000018006cafc     c1_flightControlSystem.obj
 0002:00008b04       $unwind$sf_c1_flightControlSystem_jit_fallback_info 000000018006cb04     c1_flightControlSystem.obj
 0002:00008b14       $unwind$sf_c1_flightControlSystem_updateBuildInfo_args_info 000000018006cb14     c1_flightControlSystem.obj
 0002:00008b1c       $unwind$sf_get_sim_state_info_c1_flightControlSystem 000000018006cb1c     c1_flightControlSystem.obj
 0002:00008b24       $unwind$sf_opaque_initialize_c1_flightControlSystem 000000018006cb24     c1_flightControlSystem.obj
 0002:00008b2c       $unwind$sf_opaque_enable_c1_flightControlSystem 000000018006cb2c     c1_flightControlSystem.obj
 0002:00008b34       $unwind$sf_opaque_disable_c1_flightControlSystem 000000018006cb34     c1_flightControlSystem.obj
 0002:00008b3c       $unwind$sf_opaque_gateway_c1_flightControlSystem 000000018006cb3c     c1_flightControlSystem.obj
 0002:00008b44       $unwind$sf_opaque_get_sim_state_c1_flightControlSystem 000000018006cb44     c1_flightControlSystem.obj
 0002:00008b4c       $unwind$sf_opaque_set_sim_state_c1_flightControlSystem 000000018006cb4c     c1_flightControlSystem.obj
 0002:00008b54       $unwind$sf_opaque_cleanup_runtime_resources_c1_flightControlSystem 000000018006cb54     c1_flightControlSystem.obj
 0002:00008b5c       $unwind$sf_opaque_mdl_start_c1_flightControlSystem 000000018006cb5c     c1_flightControlSystem.obj
 0002:00008b64       $unwind$sf_opaque_mdl_terminate_c1_flightControlSystem 000000018006cb64     c1_flightControlSystem.obj
 0002:00008b6c       $unwind$mdlProcessParameters_c1_flightControlSystem 000000018006cb6c     c1_flightControlSystem.obj
 0002:00008b74       $unwind$sf_c1_flightControlSystem_get_post_codegen_info 000000018006cb74     c1_flightControlSystem.obj
 0002:00008b84       $unwind$mdlSetWorkWidths_c1_flightControlSystem 000000018006cb84     c1_flightControlSystem.obj
 0002:00008b8c       $unwind$mdlRTW_c1_flightControlSystem 000000018006cb8c     c1_flightControlSystem.obj
 0002:00008b94       $unwind$mdlSetupRuntimeResources_c1_flightControlSystem 000000018006cb94     c1_flightControlSystem.obj
 0002:00008b9c       $unwind$_vsnprintf_l       000000018006cb9c     flightControlSystem_sfun_registry.obj
 0002:00008ba4       $unwind$_vsprintf_l        000000018006cba4     flightControlSystem_sfun_registry.obj
 0002:00008bac       $unwind$sprintf            000000018006cbac     flightControlSystem_sfun_registry.obj
 0002:00008bb4       $unwind$mexFunction        000000018006cbb4     flightControlSystem_sfun_registry.obj
 0002:00008bc4       $unwind$_ssSetInputPortDirectFeedThroughFcn 000000018006cbc4     flightControlSystem_sfun_registry.obj
 0002:00008bd4       $unwind$_ssSetRWorkValueFcn 000000018006cbd4     flightControlSystem_sfun_registry.obj
 0002:00008bdc       $unwind$_ssGetRWorkValueFcn 000000018006cbdc     flightControlSystem_sfun_registry.obj
 0002:00008be4       $unwind$_ssSetIWorkValueFcn 000000018006cbe4     flightControlSystem_sfun_registry.obj
 0002:00008bec       $unwind$_ssGetIWorkValueFcn 000000018006cbec     flightControlSystem_sfun_registry.obj
 0002:00008bf4       $unwind$_ssSetPWorkValueFcn 000000018006cbf4     flightControlSystem_sfun_registry.obj
 0002:00008bfc       $unwind$_ssGetPWorkValueFcn 000000018006cbfc     flightControlSystem_sfun_registry.obj
 0002:00008c04       $unwind$_ssGetInputPortSignalFcn 000000018006cc04     flightControlSystem_sfun_registry.obj
 0002:00008c14       $unwind$_ssGetInputPortBufferDstPortFcn 000000018006cc14     flightControlSystem_sfun_registry.obj
 0002:00008c1c       $unwind$_ssGetInputPortSignalPtrsFcn 000000018006cc1c     flightControlSystem_sfun_registry.obj
 0002:00008c2c       $unwind$ssGetParameterTuningCompliance 000000018006cc2c     flightControlSystem_sfun_registry.obj
 0002:00008c34       $unwind$ssGetDTypeIdFromMxArray 000000018006cc34     flightControlSystem_sfun_registry.obj
 0002:00008c3c       $unwind$ssWriteRTWMx2dMatParam 000000018006cc3c     flightControlSystem_sfun_registry.obj
 0002:00008c44       $unwind$ssWriteRTWMxVectParam 000000018006cc44     flightControlSystem_sfun_registry.obj
 0002:00008c4c       $unwind$ssWriteRTWParameters 000000018006cc4c     flightControlSystem_sfun_registry.obj
 0002:00008c54       $unwind$ssWriteRTWParamSettings 000000018006cc54     flightControlSystem_sfun_registry.obj
 0002:00008c5c       $unwind$ssWriteRTWStr      000000018006cc5c     flightControlSystem_sfun_registry.obj
 0002:00008c64       $unwind$ssWriteRTWWorkVect 000000018006cc64     flightControlSystem_sfun_registry.obj
 0002:00008c78       $unwind$ssWarning          000000018006cc78     flightControlSystem_sfun_registry.obj
 0002:00008c8c       $unwind$ssWriteRTWNameValuePair 000000018006cc8c     flightControlSystem_sfun_registry.obj
 0002:00008c94       $unwind$_ssSetInputPortMatrixDimensions 000000018006cc94     flightControlSystem_sfun_registry.obj
 0002:00008ca0       $unwind$_ssSetOutputPortMatrixDimensions 000000018006cca0     flightControlSystem_sfun_registry.obj
 0002:00008cac       $unwind$_ssSetInputPortVectorDimension 000000018006ccac     flightControlSystem_sfun_registry.obj
 0002:00008cb8       $unwind$_ssSetOutputPortVectorDimension 000000018006ccb8     flightControlSystem_sfun_registry.obj
 0002:00008cc4       $unwind$ssIsRunTimeParamTunable 000000018006ccc4     flightControlSystem_sfun_registry.obj
 0002:00008ccc       $unwind$ssGetSFuncBlockHandle 000000018006cccc     flightControlSystem_sfun_registry.obj
 0002:00008cd4       $unwind$_ssGetCurrentInputPortWidth 000000018006ccd4     flightControlSystem_sfun_registry.obj
 0002:00008cdc       $unwind$_ssGetCurrentOutputPortWidth 000000018006ccdc     flightControlSystem_sfun_registry.obj
 0002:00008ce4       $unwind$_ssGetCallSystemNumFcnCallDestinations 000000018006cce4     flightControlSystem_sfun_registry.obj
 0002:00008cec       $unwind$ssGetIsZeroCrossControlDisabled 000000018006ccec     flightControlSystem_sfun_registry.obj
 0002:00008cf4       $unwind$ssSetIsInputPortUsedForContZcSignal 000000018006ccf4     flightControlSystem_sfun_registry.obj
 0002:00008cfc       $unwind$ssSetZcSignalIsZcElementDisc 000000018006ccfc     flightControlSystem_sfun_registry.obj
 0002:00008d0c       $unwind$ssSetZcSignalName  000000018006cd0c     flightControlSystem_sfun_registry.obj
 0002:00008d14       $unwind$ssSetZcSignalWidth 000000018006cd14     flightControlSystem_sfun_registry.obj
 0002:00008d1c       $unwind$ssSetZcSignalZcEventType 000000018006cd1c     flightControlSystem_sfun_registry.obj
 0002:00008d24       $unwind$ssSetZcSignalType  000000018006cd24     flightControlSystem_sfun_registry.obj
 0002:00008d2c       $unwind$ssSetZcSignalZcTol 000000018006cd2c     flightControlSystem_sfun_registry.obj
 0002:00008d34       $unwind$ssSetZcSignalNeedsEventNotification 000000018006cd34     flightControlSystem_sfun_registry.obj
 0002:00008d3c       $unwind$ssCreateAndAddZcSignalInfo 000000018006cd3c     flightControlSystem_sfun_registry.obj
 0002:00008d44       $unwind$ssCloneAndAddZcSignalInfo 000000018006cd44     flightControlSystem_sfun_registry.obj
 0002:00008d4c       $unwind$ssGetNumZcSignals  000000018006cd4c     flightControlSystem_sfun_registry.obj
 0002:00008d54       $unwind$ssGetZcSignalVector 000000018006cd54     flightControlSystem_sfun_registry.obj
 0002:00008d5c       $unwind$ssGetZcSignalName  000000018006cd5c     flightControlSystem_sfun_registry.obj
 0002:00008d64       $unwind$ssGetZcSignalWidth 000000018006cd64     flightControlSystem_sfun_registry.obj
 0002:00008d6c       $unwind$ssGetZcSignalZcEventType 000000018006cd6c     flightControlSystem_sfun_registry.obj
 0002:00008d74       $unwind$ssGetZcSignalZcEvents 000000018006cd74     flightControlSystem_sfun_registry.obj
 0002:00008d7c       $unwind$ssGetZcSignalType  000000018006cd7c     flightControlSystem_sfun_registry.obj
 0002:00008d84       $unwind$ssGetZcSignalZcTol 000000018006cd84     flightControlSystem_sfun_registry.obj
 0002:00008d8c       $unwind$ssGetZcSignalNeedsEventNotification 000000018006cd8c     flightControlSystem_sfun_registry.obj
 0002:00008d94       $unwind$ssGetZcSignalIsZcElementDisc 000000018006cd94     flightControlSystem_sfun_registry.obj
 0002:00008da4       $unwind$ssGetIsInputPortElementContinuous 000000018006cda4     flightControlSystem_sfun_registry.obj
 0002:00008db4       $unwind$_ssGetAbsTol       000000018006cdb4     flightControlSystem_sfun_registry.obj
 0002:00008dbc       $unwind$_ssSetInputPortReusableFcn 000000018006cdbc     flightControlSystem_sfun_registry.obj
 0002:00008dc4       $unwind$_ssSetOutputPortReusableFcn 000000018006cdc4     flightControlSystem_sfun_registry.obj
 0002:00008dcc       $unwind$_ssSetSymbolicDimsSupport 000000018006cdcc     flightControlSystem_sfun_registry.obj
 0002:00008dd4       $unwind$_ssRegisterSymbolicDimsExpr 000000018006cdd4     flightControlSystem_sfun_registry.obj
 0002:00008ddc       $unwind$_ssRegisterSymbolicDims 000000018006cddc     flightControlSystem_sfun_registry.obj
 0002:00008de4       $unwind$_ssRegisterSymbolicDimsString 000000018006cde4     flightControlSystem_sfun_registry.obj
 0002:00008dec       $unwind$_ssRegisterSymbolicDimsIntValue 000000018006cdec     flightControlSystem_sfun_registry.obj
 0002:00008df4       $unwind$_ssRegisterSymbolicDimsPlus 000000018006cdf4     flightControlSystem_sfun_registry.obj
 0002:00008dfc       $unwind$_ssRegisterSymbolicDimsMinus 000000018006cdfc     flightControlSystem_sfun_registry.obj
 0002:00008e04       $unwind$_ssRegisterSymbolicDimsMultiply 000000018006ce04     flightControlSystem_sfun_registry.obj
 0002:00008e0c       $unwind$_ssRegisterSymbolicDimsDivide 000000018006ce0c     flightControlSystem_sfun_registry.obj
 0002:00008e14       $unwind$_ssGetNumSymbolicDims 000000018006ce14     flightControlSystem_sfun_registry.obj
 0002:00008e1c       $unwind$_ssGetSymbolicDim  000000018006ce1c     flightControlSystem_sfun_registry.obj
 0002:00008e24       $unwind$_ssSetInputPortSymbolicDimsId 000000018006ce24     flightControlSystem_sfun_registry.obj
 0002:00008e2c       $unwind$_ssGetCompInputPortSymbolicDimsId 000000018006ce2c     flightControlSystem_sfun_registry.obj
 0002:00008e34       $unwind$_ssSetCompInputPortSymbolicDimsId 000000018006ce34     flightControlSystem_sfun_registry.obj
 0002:00008e3c       $unwind$_ssSetOutputPortSymbolicDimsId 000000018006ce3c     flightControlSystem_sfun_registry.obj
 0002:00008e44       $unwind$_ssGetCompOutputPortSymbolicDimsId 000000018006ce44     flightControlSystem_sfun_registry.obj
 0002:00008e4c       $unwind$_ssSetCompOutputPortSymbolicDimsId 000000018006ce4c     flightControlSystem_sfun_registry.obj
 0002:00008e54       $unwind$_ssSetCompDWorkSymbolicDimsId 000000018006ce54     flightControlSystem_sfun_registry.obj
 0002:00008e5c       $unwind$sf_process_check_sum_call 000000018006ce5c     flightControlSystem_sfun_registry.obj
 0002:00008e64       $unwind$sf_process_get_third_party_uses_info_call 000000018006ce64     flightControlSystem_sfun_registry.obj
 0002:00008e74       $unwind$sf_process_get_jit_fallback_info_call 000000018006ce74     flightControlSystem_sfun_registry.obj
 0002:00008e84       $unwind$sf_process_get_post_codegen_info_call 000000018006ce84     flightControlSystem_sfun_registry.obj
 0002:00008e94       $unwind$sf_process_get_updateBuildInfo_args_info_call 000000018006ce94     flightControlSystem_sfun_registry.obj
 0002:00008ea4       $unwind$sf_process_get_eml_resolved_functions_info_call 000000018006cea4     flightControlSystem_sfun_registry.obj
 0002:00008eb4       $unwind$sf_mex_unlock_call 000000018006ceb4     flightControlSystem_sfun_registry.obj
 0002:00008ec4       $unwind$ProcessMexSfunctionCmdLineCall 000000018006cec4     flightControlSystem_sfun_registry.obj
 0002:00008ecc       $unwind$sf_machine_global_initializer_called 000000018006cecc     flightControlSystem_sfun_registry.obj
 0002:00008ed4       $unwind$sf_machine_global_method_dispatcher 000000018006ced4     flightControlSystem_sfun_registry.obj
 0002:00008edc       $unwind$sf_machine_global_terminator 000000018006cedc     flightControlSystem_sfun_registry.obj
 0002:00008ee4       $unwind$sf_register_machine_exported_symbols 000000018006cee4     flightControlSystem_sfun_registry.obj
 0002:00008eec       $unwind$sf_machine_global_initializer 000000018006ceec     flightControlSystem_sfun_registry.obj
 0002:00008ef4       $unwind$mdlGetSimState     000000018006cef4     flightControlSystem_sfun_registry.obj
 0002:00008efc       $unwind$mdlSetSimState     000000018006cefc     flightControlSystem_sfun_registry.obj
 0002:00008f04       $unwind$mdlSetWorkWidths   000000018006cf04     flightControlSystem_sfun_registry.obj
 0002:00008f0c       $unwind$mdlProcessParameters 000000018006cf0c     flightControlSystem_sfun_registry.obj
 0002:00008f14       $unwind$mdl_setup_runtime_resources_processing 000000018006cf14     flightControlSystem_sfun_registry.obj
 0002:00008f1c       $unwind$mdlSetupRuntimeResources 000000018006cf1c     flightControlSystem_sfun_registry.obj
 0002:00008f24       $unwind$mdl_cleanup_runtime_resources_processing 000000018006cf24     flightControlSystem_sfun_registry.obj
 0002:00008f2c       $unwind$mdlCleanupRuntimeResources 000000018006cf2c     flightControlSystem_sfun_registry.obj
 0002:00008f34       $unwind$mdl_start_processing 000000018006cf34     flightControlSystem_sfun_registry.obj
 0002:00008f3c       $unwind$mdlStart           000000018006cf3c     flightControlSystem_sfun_registry.obj
 0002:00008f44       $unwind$mdl_terminate_processing 000000018006cf44     flightControlSystem_sfun_registry.obj
 0002:00008f4c       $unwind$mdlTerminate       000000018006cf4c     flightControlSystem_sfun_registry.obj
 0002:00008f54       $unwind$mdlInitializeSizes 000000018006cf54     flightControlSystem_sfun_registry.obj
 0002:00008f5c       $unwind$mdlInitializeSampleTimes 000000018006cf5c     flightControlSystem_sfun_registry.obj
 0002:00008f64       $unwind$mdl_outputs_continuous_legacy 000000018006cf64     flightControlSystem_sfun_registry.obj
 0002:00008f6c       $unwind$mdl_outputs_processing 000000018006cf6c     flightControlSystem_sfun_registry.obj
 0002:00008f74       $unwind$mdl_zeroCrossings_processing 000000018006cf74     flightControlSystem_sfun_registry.obj
 0002:00008f7c       $unwind$mdlZeroCrossings   000000018006cf7c     flightControlSystem_sfun_registry.obj
 0002:00008f84       $unwind$mdl_derivatives_processing 000000018006cf84     flightControlSystem_sfun_registry.obj
 0002:00008f8c       $unwind$mdlDerivatives     000000018006cf8c     flightControlSystem_sfun_registry.obj
 0002:00008f94       $unwind$mdl_initialize_conditions_processing 000000018006cf94     flightControlSystem_sfun_registry.obj
 0002:00008f9c       $unwind$mdlInitializeConditions 000000018006cf9c     flightControlSystem_sfun_registry.obj
 0002:00008fa4       $unwind$mdl_ext_mode_exec_processing 000000018006cfa4     flightControlSystem_sfun_registry.obj
 0002:00008fac       $unwind$mdlExtModeExec     000000018006cfac     flightControlSystem_sfun_registry.obj
 0002:00008fb4       $unwind$mdlRTW             000000018006cfb4     flightControlSystem_sfun_registry.obj
 0002:00008fbc       $unwind$mdl_enable_processing 000000018006cfbc     flightControlSystem_sfun_registry.obj
 0002:00008fc4       $unwind$mdlEnable          000000018006cfc4     flightControlSystem_sfun_registry.obj
 0002:00008fcc       $unwind$mdl_disable_processing 000000018006cfcc     flightControlSystem_sfun_registry.obj
 0002:00008fd4       $unwind$mdlDisable         000000018006cfd4     flightControlSystem_sfun_registry.obj
 0002:00008fdc       $unwind$mdlOutputs         000000018006cfdc     flightControlSystem_sfun_registry.obj
 0002:00008fe4       $unwind$mdl_update_processing 000000018006cfe4     flightControlSystem_sfun_registry.obj
 0002:00008fec       $unwind$mdlUpdate          000000018006cfec     flightControlSystem_sfun_registry.obj
 0002:00008ff4       $unwind$ProcessMexSfunctionEveryCall 000000018006cff4     flightControlSystem_sfun_registry.obj
 0002:00008ffc       $unwind$_RegNumInputPortsCB 000000018006cffc     flightControlSystem_sfun_registry.obj
 0002:00009004       $unwind$_RegNumOutputPortsCB 000000018006d004     flightControlSystem_sfun_registry.obj
 0002:0000900c       $unwind$_CreateSimStruct   000000018006d00c     flightControlSystem_sfun_registry.obj
 0002:00009014       $unwind$_ProcessMexSfunctionCmdLineCall 000000018006d014     flightControlSystem_sfun_registry.obj
 0002:00009024       $unwind$ReportIndexOutOfBoundsError 000000018006d024     flightControlSystem_sfun_registry.obj
 0002:00009034       $unwind$constructDrawBaseObjectShape 000000018006d034     insertShapeUtilsCore.obj
 0002:0000903c       $unwind$getPositionDataPointer 000000018006d03c     insertShapeUtilsCore.obj
 0002:00009044       $unwind$deletePositionDataPointer 000000018006d044     insertShapeUtilsCore.obj
 0002:0000904c       $unwind$initialiseDrawbaseShape 000000018006d04c     insertShapeUtilsCore.obj
 0002:00009054       $unwind$instantiateDrawBaseShape_single 000000018006d054     insertShapeUtilsCore.obj
 0002:0000905c       $unwind$instantiateDrawBaseShape_double 000000018006d05c     insertShapeUtilsCore.obj
 0002:00009064       $unwind$instantiateDrawBaseShape_uint8 000000018006d064     insertShapeUtilsCore.obj
 0002:0000906c       $unwind$instantiateDrawBaseShape_uint16 000000018006d06c     insertShapeUtilsCore.obj
 0002:00009074       $unwind$instantiateDrawBaseShape_int16 000000018006d074     insertShapeUtilsCore.obj
 0002:0000907c       $unwind$mDrawShapes        000000018006d07c     insertShapeUtilsCore.obj
 0002:00009084       $unwind$deallocateMemoryShape 000000018006d084     insertShapeUtilsCore.obj
 0002:0000908c       $unwind$?floor@@YAMM@Z     000000018006d08c     insertShapeUtilsCore.obj
 0002:000090a0       $ip2state$?floor@@YAMM@Z   000000018006d0a0     insertShapeUtilsCore.obj
 0002:000090a8       $unwind$?sqrt@@YAMM@Z      000000018006d0a8     insertShapeUtilsCore.obj
 0002:000090b8       $ip2state$?sqrt@@YAMM@Z    000000018006d0b8     insertShapeUtilsCore.obj
 0002:000090c0       $unwind$??_GDrawBase@@UEAAPEAXI@Z 000000018006d0c0     insertShapeUtilsCore.obj
 0002:000090c8       $unwind$??$InstantiateShape@MMHHMM@@YAPEAVDrawBase@@PEAMPEAH001HEHHHH1HEEPEAE@Z 000000018006d0c8     insertShapeUtilsCore.obj
 0002:000090d8       $stateUnwindMap$??$InstantiateShape@MMHHMM@@YAPEAVDrawBase@@PEAMPEAH001HEHHHH1HEEPEAE@Z 000000018006d0d8     insertShapeUtilsCore.obj
 0002:00009160       $ip2state$??$InstantiateShape@MMHHMM@@YAPEAVDrawBase@@PEAMPEAH001HEHHHH1HEEPEAE@Z 000000018006d160     insertShapeUtilsCore.obj
 0002:00009268       $unwind$?dtor$0@?0???$InstantiateShape@MMHHMM@@YAPEAVDrawBase@@PEAMPEAH001HEHHHH1HEEPEAE@Z@4HA 000000018006d268     insertShapeUtilsCore.obj
 0002:00009270       $unwind$?dtor$1@?0???$InstantiateShape@MMHHMM@@YAPEAVDrawBase@@PEAMPEAH001HEHHHH1HEEPEAE@Z@4HA 000000018006d270     insertShapeUtilsCore.obj
 0002:00009278       $unwind$?dtor$2@?0???$InstantiateShape@MMHHMM@@YAPEAVDrawBase@@PEAMPEAH001HEHHHH1HEEPEAE@Z@4HA 000000018006d278     insertShapeUtilsCore.obj
 0002:00009280       $unwind$?dtor$3@?0???$InstantiateShape@MMHHMM@@YAPEAVDrawBase@@PEAMPEAH001HEHHHH1HEEPEAE@Z@4HA 000000018006d280     insertShapeUtilsCore.obj
 0002:00009288       $unwind$?dtor$4@?0???$InstantiateShape@MMHHMM@@YAPEAVDrawBase@@PEAMPEAH001HEHHHH1HEEPEAE@Z@4HA 000000018006d288     insertShapeUtilsCore.obj
 0002:00009290       $unwind$?dtor$5@?0???$InstantiateShape@MMHHMM@@YAPEAVDrawBase@@PEAMPEAH001HEHHHH1HEEPEAE@Z@4HA 000000018006d290     insertShapeUtilsCore.obj
 0002:00009298       $unwind$?dtor$6@?0???$InstantiateShape@MMHHMM@@YAPEAVDrawBase@@PEAMPEAH001HEHHHH1HEEPEAE@Z@4HA 000000018006d298     insertShapeUtilsCore.obj
 0002:000092a0       $unwind$?dtor$7@?0???$InstantiateShape@MMHHMM@@YAPEAVDrawBase@@PEAMPEAH001HEHHHH1HEEPEAE@Z@4HA 000000018006d2a0     insertShapeUtilsCore.obj
 0002:000092a8       $unwind$?dtor$8@?0???$InstantiateShape@MMHHMM@@YAPEAVDrawBase@@PEAMPEAH001HEHHHH1HEEPEAE@Z@4HA 000000018006d2a8     insertShapeUtilsCore.obj
 0002:000092b0       $unwind$?dtor$9@?0???$InstantiateShape@MMHHMM@@YAPEAVDrawBase@@PEAMPEAH001HEHHHH1HEEPEAE@Z@4HA 000000018006d2b0     insertShapeUtilsCore.obj
 0002:000092b8       $unwind$?dtor$10@?0???$InstantiateShape@MMHHMM@@YAPEAVDrawBase@@PEAMPEAH001HEHHHH1HEEPEAE@Z@4HA 000000018006d2b8     insertShapeUtilsCore.obj
 0002:000092c0       $unwind$?dtor$11@?0???$InstantiateShape@MMHHMM@@YAPEAVDrawBase@@PEAMPEAH001HEHHHH1HEEPEAE@Z@4HA 000000018006d2c0     insertShapeUtilsCore.obj
 0002:000092c8       $unwind$?dtor$12@?0???$InstantiateShape@MMHHMM@@YAPEAVDrawBase@@PEAMPEAH001HEHHHH1HEEPEAE@Z@4HA 000000018006d2c8     insertShapeUtilsCore.obj
 0002:000092d0       $unwind$?dtor$13@?0???$InstantiateShape@MMHHMM@@YAPEAVDrawBase@@PEAMPEAH001HEHHHH1HEEPEAE@Z@4HA 000000018006d2d0     insertShapeUtilsCore.obj
 0002:000092d8       $unwind$?dtor$14@?0???$InstantiateShape@MMHHMM@@YAPEAVDrawBase@@PEAMPEAH001HEHHHH1HEEPEAE@Z@4HA 000000018006d2d8     insertShapeUtilsCore.obj
 0002:000092e0       $unwind$?dtor$15@?0???$InstantiateShape@MMHHMM@@YAPEAVDrawBase@@PEAMPEAH001HEHHHH1HEEPEAE@Z@4HA 000000018006d2e0     insertShapeUtilsCore.obj
 0002:000092e8       $unwind$??$InstantiateShape@NNHHNN@@YAPEAVDrawBase@@PEANPEAH001HEHHHH1HEEPEAE@Z 000000018006d2e8     insertShapeUtilsCore.obj
 0002:000092f8       $stateUnwindMap$??$InstantiateShape@NNHHNN@@YAPEAVDrawBase@@PEANPEAH001HEHHHH1HEEPEAE@Z 000000018006d2f8     insertShapeUtilsCore.obj
 0002:00009380       $ip2state$??$InstantiateShape@NNHHNN@@YAPEAVDrawBase@@PEANPEAH001HEHHHH1HEEPEAE@Z 000000018006d380     insertShapeUtilsCore.obj
 0002:00009488       $unwind$?dtor$0@?0???$InstantiateShape@NNHHNN@@YAPEAVDrawBase@@PEANPEAH001HEHHHH1HEEPEAE@Z@4HA 000000018006d488     insertShapeUtilsCore.obj
 0002:00009490       $unwind$?dtor$1@?0???$InstantiateShape@NNHHNN@@YAPEAVDrawBase@@PEANPEAH001HEHHHH1HEEPEAE@Z@4HA 000000018006d490     insertShapeUtilsCore.obj
 0002:00009498       $unwind$?dtor$2@?0???$InstantiateShape@NNHHNN@@YAPEAVDrawBase@@PEANPEAH001HEHHHH1HEEPEAE@Z@4HA 000000018006d498     insertShapeUtilsCore.obj
 0002:000094a0       $unwind$?dtor$3@?0???$InstantiateShape@NNHHNN@@YAPEAVDrawBase@@PEANPEAH001HEHHHH1HEEPEAE@Z@4HA 000000018006d4a0     insertShapeUtilsCore.obj
 0002:000094a8       $unwind$?dtor$4@?0???$InstantiateShape@NNHHNN@@YAPEAVDrawBase@@PEANPEAH001HEHHHH1HEEPEAE@Z@4HA 000000018006d4a8     insertShapeUtilsCore.obj
 0002:000094b0       $unwind$?dtor$5@?0???$InstantiateShape@NNHHNN@@YAPEAVDrawBase@@PEANPEAH001HEHHHH1HEEPEAE@Z@4HA 000000018006d4b0     insertShapeUtilsCore.obj
 0002:000094b8       $unwind$?dtor$6@?0???$InstantiateShape@NNHHNN@@YAPEAVDrawBase@@PEANPEAH001HEHHHH1HEEPEAE@Z@4HA 000000018006d4b8     insertShapeUtilsCore.obj
 0002:000094c0       $unwind$?dtor$7@?0???$InstantiateShape@NNHHNN@@YAPEAVDrawBase@@PEANPEAH001HEHHHH1HEEPEAE@Z@4HA 000000018006d4c0     insertShapeUtilsCore.obj
 0002:000094c8       $unwind$?dtor$8@?0???$InstantiateShape@NNHHNN@@YAPEAVDrawBase@@PEANPEAH001HEHHHH1HEEPEAE@Z@4HA 000000018006d4c8     insertShapeUtilsCore.obj
 0002:000094d0       $unwind$?dtor$9@?0???$InstantiateShape@NNHHNN@@YAPEAVDrawBase@@PEANPEAH001HEHHHH1HEEPEAE@Z@4HA 000000018006d4d0     insertShapeUtilsCore.obj
 0002:000094d8       $unwind$?dtor$10@?0???$InstantiateShape@NNHHNN@@YAPEAVDrawBase@@PEANPEAH001HEHHHH1HEEPEAE@Z@4HA 000000018006d4d8     insertShapeUtilsCore.obj
 0002:000094e0       $unwind$?dtor$11@?0???$InstantiateShape@NNHHNN@@YAPEAVDrawBase@@PEANPEAH001HEHHHH1HEEPEAE@Z@4HA 000000018006d4e0     insertShapeUtilsCore.obj
 0002:000094e8       $unwind$?dtor$12@?0???$InstantiateShape@NNHHNN@@YAPEAVDrawBase@@PEANPEAH001HEHHHH1HEEPEAE@Z@4HA 000000018006d4e8     insertShapeUtilsCore.obj
 0002:000094f0       $unwind$?dtor$13@?0???$InstantiateShape@NNHHNN@@YAPEAVDrawBase@@PEANPEAH001HEHHHH1HEEPEAE@Z@4HA 000000018006d4f0     insertShapeUtilsCore.obj
 0002:000094f8       $unwind$?dtor$14@?0???$InstantiateShape@NNHHNN@@YAPEAVDrawBase@@PEANPEAH001HEHHHH1HEEPEAE@Z@4HA 000000018006d4f8     insertShapeUtilsCore.obj
 0002:00009500       $unwind$?dtor$15@?0???$InstantiateShape@NNHHNN@@YAPEAVDrawBase@@PEANPEAH001HEHHHH1HEEPEAE@Z@4HA 000000018006d500     insertShapeUtilsCore.obj
 0002:00009508       $unwind$??$InstantiateShape@EEHHMM@@YAPEAVDrawBase@@PEAEPEAH0PEAM1HEHHHH1HEE0@Z 000000018006d508     insertShapeUtilsCore.obj
 0002:00009518       $stateUnwindMap$??$InstantiateShape@EEHHMM@@YAPEAVDrawBase@@PEAEPEAH0PEAM1HEHHHH1HEE0@Z 000000018006d518     insertShapeUtilsCore.obj
 0002:000095a0       $ip2state$??$InstantiateShape@EEHHMM@@YAPEAVDrawBase@@PEAEPEAH0PEAM1HEHHHH1HEE0@Z 000000018006d5a0     insertShapeUtilsCore.obj
 0002:000096a8       $unwind$?dtor$0@?0???$InstantiateShape@EEHHMM@@YAPEAVDrawBase@@PEAEPEAH0PEAM1HEHHHH1HEE0@Z@4HA 000000018006d6a8     insertShapeUtilsCore.obj
 0002:000096b0       $unwind$?dtor$1@?0???$InstantiateShape@EEHHMM@@YAPEAVDrawBase@@PEAEPEAH0PEAM1HEHHHH1HEE0@Z@4HA 000000018006d6b0     insertShapeUtilsCore.obj
 0002:000096b8       $unwind$?dtor$2@?0???$InstantiateShape@EEHHMM@@YAPEAVDrawBase@@PEAEPEAH0PEAM1HEHHHH1HEE0@Z@4HA 000000018006d6b8     insertShapeUtilsCore.obj
 0002:000096c0       $unwind$?dtor$3@?0???$InstantiateShape@EEHHMM@@YAPEAVDrawBase@@PEAEPEAH0PEAM1HEHHHH1HEE0@Z@4HA 000000018006d6c0     insertShapeUtilsCore.obj
 0002:000096c8       $unwind$?dtor$4@?0???$InstantiateShape@EEHHMM@@YAPEAVDrawBase@@PEAEPEAH0PEAM1HEHHHH1HEE0@Z@4HA 000000018006d6c8     insertShapeUtilsCore.obj
 0002:000096d0       $unwind$?dtor$5@?0???$InstantiateShape@EEHHMM@@YAPEAVDrawBase@@PEAEPEAH0PEAM1HEHHHH1HEE0@Z@4HA 000000018006d6d0     insertShapeUtilsCore.obj
 0002:000096d8       $unwind$?dtor$6@?0???$InstantiateShape@EEHHMM@@YAPEAVDrawBase@@PEAEPEAH0PEAM1HEHHHH1HEE0@Z@4HA 000000018006d6d8     insertShapeUtilsCore.obj
 0002:000096e0       $unwind$?dtor$7@?0???$InstantiateShape@EEHHMM@@YAPEAVDrawBase@@PEAEPEAH0PEAM1HEHHHH1HEE0@Z@4HA 000000018006d6e0     insertShapeUtilsCore.obj
 0002:000096e8       $unwind$?dtor$8@?0???$InstantiateShape@EEHHMM@@YAPEAVDrawBase@@PEAEPEAH0PEAM1HEHHHH1HEE0@Z@4HA 000000018006d6e8     insertShapeUtilsCore.obj
 0002:000096f0       $unwind$?dtor$9@?0???$InstantiateShape@EEHHMM@@YAPEAVDrawBase@@PEAEPEAH0PEAM1HEHHHH1HEE0@Z@4HA 000000018006d6f0     insertShapeUtilsCore.obj
 0002:000096f8       $unwind$?dtor$10@?0???$InstantiateShape@EEHHMM@@YAPEAVDrawBase@@PEAEPEAH0PEAM1HEHHHH1HEE0@Z@4HA 000000018006d6f8     insertShapeUtilsCore.obj
 0002:00009700       $unwind$?dtor$11@?0???$InstantiateShape@EEHHMM@@YAPEAVDrawBase@@PEAEPEAH0PEAM1HEHHHH1HEE0@Z@4HA 000000018006d700     insertShapeUtilsCore.obj
 0002:00009708       $unwind$?dtor$12@?0???$InstantiateShape@EEHHMM@@YAPEAVDrawBase@@PEAEPEAH0PEAM1HEHHHH1HEE0@Z@4HA 000000018006d708     insertShapeUtilsCore.obj
 0002:00009710       $unwind$?dtor$13@?0???$InstantiateShape@EEHHMM@@YAPEAVDrawBase@@PEAEPEAH0PEAM1HEHHHH1HEE0@Z@4HA 000000018006d710     insertShapeUtilsCore.obj
 0002:00009718       $unwind$?dtor$14@?0???$InstantiateShape@EEHHMM@@YAPEAVDrawBase@@PEAEPEAH0PEAM1HEHHHH1HEE0@Z@4HA 000000018006d718     insertShapeUtilsCore.obj
 0002:00009720       $unwind$?dtor$15@?0???$InstantiateShape@EEHHMM@@YAPEAVDrawBase@@PEAEPEAH0PEAM1HEHHHH1HEE0@Z@4HA 000000018006d720     insertShapeUtilsCore.obj
 0002:00009728       $unwind$??$InstantiateShape@GGHHMM@@YAPEAVDrawBase@@PEAGPEAH0PEAM1HEHHHH1HEEPEAE@Z 000000018006d728     insertShapeUtilsCore.obj
 0002:00009738       $stateUnwindMap$??$InstantiateShape@GGHHMM@@YAPEAVDrawBase@@PEAGPEAH0PEAM1HEHHHH1HEEPEAE@Z 000000018006d738     insertShapeUtilsCore.obj
 0002:000097c0       $ip2state$??$InstantiateShape@GGHHMM@@YAPEAVDrawBase@@PEAGPEAH0PEAM1HEHHHH1HEEPEAE@Z 000000018006d7c0     insertShapeUtilsCore.obj
 0002:000098c8       $unwind$?dtor$0@?0???$InstantiateShape@GGHHMM@@YAPEAVDrawBase@@PEAGPEAH0PEAM1HEHHHH1HEEPEAE@Z@4HA 000000018006d8c8     insertShapeUtilsCore.obj
 0002:000098d0       $unwind$?dtor$1@?0???$InstantiateShape@GGHHMM@@YAPEAVDrawBase@@PEAGPEAH0PEAM1HEHHHH1HEEPEAE@Z@4HA 000000018006d8d0     insertShapeUtilsCore.obj
 0002:000098d8       $unwind$?dtor$2@?0???$InstantiateShape@GGHHMM@@YAPEAVDrawBase@@PEAGPEAH0PEAM1HEHHHH1HEEPEAE@Z@4HA 000000018006d8d8     insertShapeUtilsCore.obj
 0002:000098e0       $unwind$?dtor$3@?0???$InstantiateShape@GGHHMM@@YAPEAVDrawBase@@PEAGPEAH0PEAM1HEHHHH1HEEPEAE@Z@4HA 000000018006d8e0     insertShapeUtilsCore.obj
 0002:000098e8       $unwind$?dtor$4@?0???$InstantiateShape@GGHHMM@@YAPEAVDrawBase@@PEAGPEAH0PEAM1HEHHHH1HEEPEAE@Z@4HA 000000018006d8e8     insertShapeUtilsCore.obj
 0002:000098f0       $unwind$?dtor$5@?0???$InstantiateShape@GGHHMM@@YAPEAVDrawBase@@PEAGPEAH0PEAM1HEHHHH1HEEPEAE@Z@4HA 000000018006d8f0     insertShapeUtilsCore.obj
 0002:000098f8       $unwind$?dtor$6@?0???$InstantiateShape@GGHHMM@@YAPEAVDrawBase@@PEAGPEAH0PEAM1HEHHHH1HEEPEAE@Z@4HA 000000018006d8f8     insertShapeUtilsCore.obj
 0002:00009900       $unwind$?dtor$7@?0???$InstantiateShape@GGHHMM@@YAPEAVDrawBase@@PEAGPEAH0PEAM1HEHHHH1HEEPEAE@Z@4HA 000000018006d900     insertShapeUtilsCore.obj
 0002:00009908       $unwind$?dtor$8@?0???$InstantiateShape@GGHHMM@@YAPEAVDrawBase@@PEAGPEAH0PEAM1HEHHHH1HEEPEAE@Z@4HA 000000018006d908     insertShapeUtilsCore.obj
 0002:00009910       $unwind$?dtor$9@?0???$InstantiateShape@GGHHMM@@YAPEAVDrawBase@@PEAGPEAH0PEAM1HEHHHH1HEEPEAE@Z@4HA 000000018006d910     insertShapeUtilsCore.obj
 0002:00009918       $unwind$?dtor$10@?0???$InstantiateShape@GGHHMM@@YAPEAVDrawBase@@PEAGPEAH0PEAM1HEHHHH1HEEPEAE@Z@4HA 000000018006d918     insertShapeUtilsCore.obj
 0002:00009920       $unwind$?dtor$11@?0???$InstantiateShape@GGHHMM@@YAPEAVDrawBase@@PEAGPEAH0PEAM1HEHHHH1HEEPEAE@Z@4HA 000000018006d920     insertShapeUtilsCore.obj
 0002:00009928       $unwind$?dtor$12@?0???$InstantiateShape@GGHHMM@@YAPEAVDrawBase@@PEAGPEAH0PEAM1HEHHHH1HEEPEAE@Z@4HA 000000018006d928     insertShapeUtilsCore.obj
 0002:00009930       $unwind$?dtor$13@?0???$InstantiateShape@GGHHMM@@YAPEAVDrawBase@@PEAGPEAH0PEAM1HEHHHH1HEEPEAE@Z@4HA 000000018006d930     insertShapeUtilsCore.obj
 0002:00009938       $unwind$?dtor$14@?0???$InstantiateShape@GGHHMM@@YAPEAVDrawBase@@PEAGPEAH0PEAM1HEHHHH1HEEPEAE@Z@4HA 000000018006d938     insertShapeUtilsCore.obj
 0002:00009940       $unwind$?dtor$15@?0???$InstantiateShape@GGHHMM@@YAPEAVDrawBase@@PEAGPEAH0PEAM1HEHHHH1HEEPEAE@Z@4HA 000000018006d940     insertShapeUtilsCore.obj
 0002:00009948       $unwind$??$InstantiateShape@FFHHMM@@YAPEAVDrawBase@@PEAFPEAH0PEAM1HEHHHH1HEEPEAE@Z 000000018006d948     insertShapeUtilsCore.obj
 0002:00009958       $stateUnwindMap$??$InstantiateShape@FFHHMM@@YAPEAVDrawBase@@PEAFPEAH0PEAM1HEHHHH1HEEPEAE@Z 000000018006d958     insertShapeUtilsCore.obj
 0002:000099e0       $ip2state$??$InstantiateShape@FFHHMM@@YAPEAVDrawBase@@PEAFPEAH0PEAM1HEHHHH1HEEPEAE@Z 000000018006d9e0     insertShapeUtilsCore.obj
 0002:00009ae8       $unwind$?dtor$0@?0???$InstantiateShape@FFHHMM@@YAPEAVDrawBase@@PEAFPEAH0PEAM1HEHHHH1HEEPEAE@Z@4HA 000000018006dae8     insertShapeUtilsCore.obj
 0002:00009af0       $unwind$?dtor$1@?0???$InstantiateShape@FFHHMM@@YAPEAVDrawBase@@PEAFPEAH0PEAM1HEHHHH1HEEPEAE@Z@4HA 000000018006daf0     insertShapeUtilsCore.obj
 0002:00009af8       $unwind$?dtor$2@?0???$InstantiateShape@FFHHMM@@YAPEAVDrawBase@@PEAFPEAH0PEAM1HEHHHH1HEEPEAE@Z@4HA 000000018006daf8     insertShapeUtilsCore.obj
 0002:00009b00       $unwind$?dtor$3@?0???$InstantiateShape@FFHHMM@@YAPEAVDrawBase@@PEAFPEAH0PEAM1HEHHHH1HEEPEAE@Z@4HA 000000018006db00     insertShapeUtilsCore.obj
 0002:00009b08       $unwind$?dtor$4@?0???$InstantiateShape@FFHHMM@@YAPEAVDrawBase@@PEAFPEAH0PEAM1HEHHHH1HEEPEAE@Z@4HA 000000018006db08     insertShapeUtilsCore.obj
 0002:00009b10       $unwind$?dtor$5@?0???$InstantiateShape@FFHHMM@@YAPEAVDrawBase@@PEAFPEAH0PEAM1HEHHHH1HEEPEAE@Z@4HA 000000018006db10     insertShapeUtilsCore.obj
 0002:00009b18       $unwind$?dtor$6@?0???$InstantiateShape@FFHHMM@@YAPEAVDrawBase@@PEAFPEAH0PEAM1HEHHHH1HEEPEAE@Z@4HA 000000018006db18     insertShapeUtilsCore.obj
 0002:00009b20       $unwind$?dtor$7@?0???$InstantiateShape@FFHHMM@@YAPEAVDrawBase@@PEAFPEAH0PEAM1HEHHHH1HEEPEAE@Z@4HA 000000018006db20     insertShapeUtilsCore.obj
 0002:00009b28       $unwind$?dtor$8@?0???$InstantiateShape@FFHHMM@@YAPEAVDrawBase@@PEAFPEAH0PEAM1HEHHHH1HEEPEAE@Z@4HA 000000018006db28     insertShapeUtilsCore.obj
 0002:00009b30       $unwind$?dtor$9@?0???$InstantiateShape@FFHHMM@@YAPEAVDrawBase@@PEAFPEAH0PEAM1HEHHHH1HEEPEAE@Z@4HA 000000018006db30     insertShapeUtilsCore.obj
 0002:00009b38       $unwind$?dtor$10@?0???$InstantiateShape@FFHHMM@@YAPEAVDrawBase@@PEAFPEAH0PEAM1HEHHHH1HEEPEAE@Z@4HA 000000018006db38     insertShapeUtilsCore.obj
 0002:00009b40       $unwind$?dtor$11@?0???$InstantiateShape@FFHHMM@@YAPEAVDrawBase@@PEAFPEAH0PEAM1HEHHHH1HEEPEAE@Z@4HA 000000018006db40     insertShapeUtilsCore.obj
 0002:00009b48       $unwind$?dtor$12@?0???$InstantiateShape@FFHHMM@@YAPEAVDrawBase@@PEAFPEAH0PEAM1HEHHHH1HEEPEAE@Z@4HA 000000018006db48     insertShapeUtilsCore.obj
 0002:00009b50       $unwind$?dtor$13@?0???$InstantiateShape@FFHHMM@@YAPEAVDrawBase@@PEAFPEAH0PEAM1HEHHHH1HEEPEAE@Z@4HA 000000018006db50     insertShapeUtilsCore.obj
 0002:00009b58       $unwind$?dtor$14@?0???$InstantiateShape@FFHHMM@@YAPEAVDrawBase@@PEAFPEAH0PEAM1HEHHHH1HEEPEAE@Z@4HA 000000018006db58     insertShapeUtilsCore.obj
 0002:00009b60       $unwind$?dtor$15@?0???$InstantiateShape@FFHHMM@@YAPEAVDrawBase@@PEAFPEAH0PEAM1HEHHHH1HEEPEAE@Z@4HA 000000018006db60     insertShapeUtilsCore.obj
 0002:00009b68       $unwind$??$CheckAndGetNumShape@H@@YAEHHPEBHPEAH1@Z 000000018006db68     insertShapeUtilsCore.obj
 0002:00009b70       $unwind$??0?$DrawCommon@MMHHMMEH@@QEAA@PEAM00HHH0HPEAHHH1EEE0HPEAE00@Z 000000018006db70     insertShapeUtilsCore.obj
 0002:00009b80       $stateUnwindMap$??0?$DrawCommon@MMHHMMEH@@QEAA@PEAM00HHH0HPEAHHH1EEE0HPEAE00@Z 000000018006db80     insertShapeUtilsCore.obj
 0002:00009b88       $ip2state$??0?$DrawCommon@MMHHMMEH@@QEAA@PEAM00HHH0HPEAHHH1EEE0HPEAE00@Z 000000018006db88     insertShapeUtilsCore.obj
 0002:00009ba0       $unwind$?dtor$0@?0???0?$DrawCommon@MMHHMMEH@@QEAA@PEAM00HHH0HPEAHHH1EEE0HPEAE00@Z@4HA 000000018006dba0     insertShapeUtilsCore.obj
 0002:00009ba8       $unwind$??1?$DrawCommon@MMHHMMEH@@UEAA@XZ 000000018006dba8     insertShapeUtilsCore.obj
 0002:00009bb0       $unwind$?CleanUp@?$DrawCommon@MMHHMMEH@@UEAAXXZ 000000018006dbb0     insertShapeUtilsCore.obj
 0002:00009bb8       $unwind$?UpdateImageBoundary@?$DrawCommon@MMHHMMEH@@UEAAXHH@Z 000000018006dbb8     insertShapeUtilsCore.obj
 0002:00009bc0       $unwind$?UpdateViewPort@?$DrawCommon@MMHHMMEH@@UEAAXPEAH@Z 000000018006dbc0     insertShapeUtilsCore.obj
 0002:00009bc8       $unwind$?UpdateFillColorOpacity@?$DrawCommon@MMHHMMEH@@UEAAXE@Z 000000018006dbc8     insertShapeUtilsCore.obj
 0002:00009bd0       $unwind$?MoveToNextFillColor@?$DrawCommon@MMHHMMEH@@IEAAXXZ 000000018006dbd0     insertShapeUtilsCore.obj
 0002:00009bd8       $unwind$?MoveToNextOpacity@?$DrawCommon@MMHHMMEH@@IEAAXXZ 000000018006dbd8     insertShapeUtilsCore.obj
 0002:00009be0       $unwind$?PlotSubPixels@?$DrawCommon@MMHHMMEH@@IEAAXHHHHH@Z 000000018006dbe0     insertShapeUtilsCore.obj
 0002:00009be8       $unwind$?PlotVerticalLine@?$DrawCommon@MMHHMMEH@@IEAAXHHHHH@Z 000000018006dbe8     insertShapeUtilsCore.obj
 0002:00009bf0       $unwind$?PlotVerticalLineCheckRange@?$DrawCommon@MMHHMMEH@@IEAAXHHHHH@Z 000000018006dbf0     insertShapeUtilsCore.obj
 0002:00009bf8       $unwind$?CountSubPixel@?$DrawCommon@MMHHMMEH@@IEAAXHHHHAEAH0HH@Z 000000018006dbf8     insertShapeUtilsCore.obj
 0002:00009c00       $unwind$?PlotVerticalLine@?$DrawCommon@MMHHMMEH@@AEAAXHHHHHE@Z 000000018006dc00     insertShapeUtilsCore.obj
 0002:00009c08       $unwind$?PlotVerticalLineOneColor@?$DrawCommon@MMHHMMEH@@AEAAXPEAMHHHHH@Z 000000018006dc08     insertShapeUtilsCore.obj
 0002:00009c10       $unwind$?PlotSubPixels@?$DrawCommon@MMHHMMEH@@AEAAXHHHHHE@Z 000000018006dc10     insertShapeUtilsCore.obj
 0002:00009c18       $unwind$?PlotSubPixelsOneColor@?$DrawCommon@MMHHMMEH@@AEAAXPEAMHHHHH@Z 000000018006dc18     insertShapeUtilsCore.obj
 0002:00009c20       $unwind$?PlotOneSubPixelOneColor@?$DrawCommon@MMHHMMEH@@AEAAXPEAMHEHH@Z 000000018006dc20     insertShapeUtilsCore.obj
 0002:00009c28       $unwind$?IsMoreClr@?$DrawCommon@MMHHMMEH@@AEAAHH@Z 000000018006dc28     insertShapeUtilsCore.obj
 0002:00009c30       $unwind$??_G?$DrawCommon@MMHHMMEH@@UEAAPEAXI@Z 000000018006dc30     insertShapeUtilsCore.obj
 0002:00009c38       $unwind$??0?$DrawFilledRectangle@MMHHMME@@QEAA@PEAM00HHH0HPEAHHH1EEE0HPEAE00@Z 000000018006dc38     insertShapeUtilsCore.obj
 0002:00009c40       $unwind$?ProcessOneShape@?$DrawFilledRectangle@MMHHMME@@QEAAXXZ 000000018006dc40     insertShapeUtilsCore.obj
 0002:00009c50       $unwind$??1?$DrawFilledRectangle@MMHHMME@@UEAA@XZ 000000018006dc50     insertShapeUtilsCore.obj
 0002:00009c58       $unwind$??_G?$DrawFilledRectangle@MMHHMME@@UEAAPEAXI@Z 000000018006dc58     insertShapeUtilsCore.obj
 0002:00009c60       $unwind$??0?$DrawFilledRectangleAnySize@MMHHMME@@QEAA@PEAM00HHH0HPEAHHH1EEE0HPEAE00PEBH@Z 000000018006dc60     insertShapeUtilsCore.obj
 0002:00009c68       $unwind$??1?$DrawFilledRectangleAnySize@MMHHMME@@UEAA@XZ 000000018006dc68     insertShapeUtilsCore.obj
 0002:00009c70       $unwind$?ProcessStep@?$DrawFilledRectangleAnySize@MMHHMME@@UEAAXXZ 000000018006dc70     insertShapeUtilsCore.obj
 0002:00009c78       $unwind$??_G?$DrawFilledRectangleAnySize@MMHHMME@@UEAAPEAXI@Z 000000018006dc78     insertShapeUtilsCore.obj
 0002:00009c80       $unwind$??0?$DrawCommon@MMHHMMEE@@QEAA@PEAM00HHH0HPEAHHH1EEE0HPEAE00@Z 000000018006dc80     insertShapeUtilsCore.obj
 0002:00009c90       $stateUnwindMap$??0?$DrawCommon@MMHHMMEE@@QEAA@PEAM00HHH0HPEAHHH1EEE0HPEAE00@Z 000000018006dc90     insertShapeUtilsCore.obj
 0002:00009c98       $ip2state$??0?$DrawCommon@MMHHMMEE@@QEAA@PEAM00HHH0HPEAHHH1EEE0HPEAE00@Z 000000018006dc98     insertShapeUtilsCore.obj
 0002:00009cb0       $unwind$?dtor$0@?0???0?$DrawCommon@MMHHMMEE@@QEAA@PEAM00HHH0HPEAHHH1EEE0HPEAE00@Z@4HA 000000018006dcb0     insertShapeUtilsCore.obj
 0002:00009cb8       $unwind$??1?$DrawCommon@MMHHMMEE@@UEAA@XZ 000000018006dcb8     insertShapeUtilsCore.obj
 0002:00009cc0       $unwind$?CleanUp@?$DrawCommon@MMHHMMEE@@UEAAXXZ 000000018006dcc0     insertShapeUtilsCore.obj
 0002:00009cc8       $unwind$?UpdateImageBoundary@?$DrawCommon@MMHHMMEE@@UEAAXHH@Z 000000018006dcc8     insertShapeUtilsCore.obj
 0002:00009cd0       $unwind$?UpdateViewPort@?$DrawCommon@MMHHMMEE@@UEAAXPEAH@Z 000000018006dcd0     insertShapeUtilsCore.obj
 0002:00009cd8       $unwind$?UpdateFillColorOpacity@?$DrawCommon@MMHHMMEE@@UEAAXE@Z 000000018006dcd8     insertShapeUtilsCore.obj
 0002:00009ce0       $unwind$?MoveToNextFillColor@?$DrawCommon@MMHHMMEE@@IEAAXXZ 000000018006dce0     insertShapeUtilsCore.obj
 0002:00009ce8       $unwind$?MoveToNextOpacity@?$DrawCommon@MMHHMMEE@@IEAAXXZ 000000018006dce8     insertShapeUtilsCore.obj
 0002:00009cf0       $unwind$?PlotOnePixel@?$DrawCommon@MMHHMMEE@@IEAAXHH@Z 000000018006dcf0     insertShapeUtilsCore.obj
 0002:00009cf8       $unwind$?PlotPixelsCheckRange@?$DrawCommon@MMHHMMEE@@IEAAXHHH@Z 000000018006dcf8     insertShapeUtilsCore.obj
 0002:00009d00       $unwind$?PlotSubPixels@?$DrawCommon@MMHHMMEE@@IEAAXHHHHH@Z 000000018006dd00     insertShapeUtilsCore.obj
 0002:00009d08       $unwind$?PlotSubPixels@?$DrawCommon@MMHHMMEE@@IEAAXHEHH@Z 000000018006dd08     insertShapeUtilsCore.obj
 0002:00009d10       $unwind$?CountSubPixel@?$DrawCommon@MMHHMMEE@@IEAAXHHHHAEAH0HH@Z 000000018006dd10     insertShapeUtilsCore.obj
 0002:00009d18       $unwind$?PlotOnePixel@?$DrawCommon@MMHHMMEE@@AEAAXHHE@Z 000000018006dd18     insertShapeUtilsCore.obj
 0002:00009d20       $unwind$?PlotSubPixels@?$DrawCommon@MMHHMMEE@@AEAAXHHHHHE@Z 000000018006dd20     insertShapeUtilsCore.obj
 0002:00009d28       $unwind$?PlotSubPixelsOneColor@?$DrawCommon@MMHHMMEE@@AEAAXPEAMHHHHH@Z 000000018006dd28     insertShapeUtilsCore.obj
 0002:00009d30       $unwind$?PlotSubPixels@?$DrawCommon@MMHHMMEE@@AEAAXHEHHE@Z 000000018006dd30     insertShapeUtilsCore.obj
 0002:00009d38       $unwind$?PlotOneSubPixelOneColor@?$DrawCommon@MMHHMMEE@@AEAAXPEAMHEHH@Z 000000018006dd38     insertShapeUtilsCore.obj
 0002:00009d40       $unwind$?IsMoreClr@?$DrawCommon@MMHHMMEE@@AEAAHH@Z 000000018006dd40     insertShapeUtilsCore.obj
 0002:00009d48       $unwind$??_G?$DrawCommon@MMHHMMEE@@UEAAPEAXI@Z 000000018006dd48     insertShapeUtilsCore.obj
 0002:00009d50       $unwind$??0?$DrawLine@MMHHMMEE@@QEAA@PEAM00HHH0HPEAHHH1EEE0HPEAE00@Z 000000018006dd50     insertShapeUtilsCore.obj
 0002:00009d58       $unwind$??1?$DrawLine@MMHHMMEE@@UEAA@XZ 000000018006dd58     insertShapeUtilsCore.obj
 0002:00009d60       $unwind$?ProcessOneShape@?$DrawLine@MMHHMMEE@@QEAAXXZ 000000018006dd60     insertShapeUtilsCore.obj
 0002:00009d68       $unwind$?ProcessOneShape@?$DrawLine@MMHHMMEE@@QEAAXE@Z 000000018006dd68     insertShapeUtilsCore.obj
 0002:00009d78       $unwind$?Initialize@?$BresenhamLine@HE@@QEAAXPEAHH@Z 000000018006dd78     insertShapeUtilsCore.obj
 0002:00009d80       $unwind$?IsInRange@?$BresenhamLine@HE@@QEAAEXZ 000000018006dd80     insertShapeUtilsCore.obj
 0002:00009d88       $unwind$?MoveToNextPosition@?$BresenhamLine@HE@@QEAAXXZ 000000018006dd88     insertShapeUtilsCore.obj
 0002:00009d90       $unwind$?AbsoluteValue@?$BresenhamLine@HE@@AEAAHH@Z 000000018006dd90     insertShapeUtilsCore.obj
 0002:00009d98       $unwind$?SwapValues@?$BresenhamLine@HE@@AEAAXAEAH0@Z 000000018006dd98     insertShapeUtilsCore.obj
 0002:00009da0       $unwind$??_G?$DrawLine@MMHHMMEE@@UEAAPEAXI@Z 000000018006dda0     insertShapeUtilsCore.obj
 0002:00009da8       $unwind$??0?$DrawMarkerLine@MMHHMMEE@@QEAA@PEAM00HHH0HPEAHHH1EEE0HPEAE00@Z 000000018006dda8     insertShapeUtilsCore.obj
 0002:00009db0       $unwind$?ProcessOneShape@?$DrawMarkerLine@MMHHMMEE@@QEAAXXZ 000000018006ddb0     insertShapeUtilsCore.obj
 0002:00009db8       $unwind$?ProcessOneShape@?$DrawMarkerLine@MMHHMMEE@@QEAAXE@Z 000000018006ddb8     insertShapeUtilsCore.obj
 0002:00009dc8       $unwind$??1?$DrawMarkerLine@MMHHMMEE@@UEAA@XZ 000000018006ddc8     insertShapeUtilsCore.obj
 0002:00009dd0       $unwind$??_G?$DrawMarkerLine@MMHHMMEE@@UEAAPEAXI@Z 000000018006ddd0     insertShapeUtilsCore.obj
 0002:00009dd8       $unwind$??0?$DrawRectangleAnySize@MMHHMME@@QEAA@PEAM00HHH0HPEAHHH1EEE0HPEAE001@Z 000000018006ddd8     insertShapeUtilsCore.obj
 0002:00009de0       $unwind$??1?$DrawRectangleAnySize@MMHHMME@@UEAA@XZ 000000018006dde0     insertShapeUtilsCore.obj
 0002:00009de8       $unwind$?ProcessStep@?$DrawRectangleAnySize@MMHHMME@@UEAAXXZ 000000018006dde8     insertShapeUtilsCore.obj
 0002:00009df0       $unwind$??_G?$DrawRectangleAnySize@MMHHMME@@UEAAPEAXI@Z 000000018006ddf0     insertShapeUtilsCore.obj
 0002:00009df8       $unwind$?NextColumn@?$Polygon@HHH@@QEAAXXZ 000000018006ddf8     insertShapeUtilsCore.obj
 0002:00009e00       $unwind$?MoveToColumn@?$Polygon@HHH@@QEAAXH@Z 000000018006de00     insertShapeUtilsCore.obj
 0002:00009e08       $unwind$?GetFirstCol@?$Polygon@HHH@@QEAAHXZ 000000018006de08     insertShapeUtilsCore.obj
 0002:00009e10       $unwind$?GetLastCol@?$Polygon@HHH@@QEAAHXZ 000000018006de10     insertShapeUtilsCore.obj
 0002:00009e18       $unwind$?IsMoreSeparator@?$Polygon@HHH@@QEAAEXZ 000000018006de18     insertShapeUtilsCore.obj
 0002:00009e20       $unwind$?GetAndAdvanceSeparator@?$Polygon@HHH@@QEAAHXZ 000000018006de20     insertShapeUtilsCore.obj
 0002:00009e28       $unwind$?GetSeparator@?$Polygon@HHH@@QEAAHXZ 000000018006de28     insertShapeUtilsCore.obj
 0002:00009e30       $unwind$?Reset@?$Polygon@HHH@@QEAAXXZ 000000018006de30     insertShapeUtilsCore.obj
 0002:00009e38       $unwind$?IsMorePolygon@?$Polygon@HHH@@QEAAEXZ 000000018006de38     insertShapeUtilsCore.obj
 0002:00009e40       $unwind$?IniPolygon@?$Polygon@HHH@@QEAAXE@Z 000000018006de40     insertShapeUtilsCore.obj
 0002:00009e48       $unwind$??0?$Polygon@HHH@@QEAA@PEBHPEAH11HHHEE@Z 000000018006de48     insertShapeUtilsCore.obj
 0002:00009e50       $unwind$?ConvertVerticesToEdges@?$Polygon@HHH@@AEAAEXZ 000000018006de50     insertShapeUtilsCore.obj
 0002:00009e58       $unwind$?getCoordinate@?$Polygon@HHH@@AEAAHH@Z 000000018006de58     insertShapeUtilsCore.obj
 0002:00009e60       $unwind$?SortEdges@?$Polygon@HHH@@AEAAXHHH@Z 000000018006de60     insertShapeUtilsCore.obj
 0002:00009e68       $unwind$?CopyEdge@?$Polygon@HHH@@AEAAXPEAH0HH@Z 000000018006de68     insertShapeUtilsCore.obj
 0002:00009e70       $unwind$?BresenhamLineIni@?$Polygon@HHH@@AEAAXHHHHH@Z 000000018006de70     insertShapeUtilsCore.obj
 0002:00009e78       $unwind$?BresenhamLineMerge@?$Polygon@HHH@@AEAAEHH@Z 000000018006de78     insertShapeUtilsCore.obj
 0002:00009e80       $unwind$?IsMoreForeScanLine@?$ScanLineBase@HHH@@QEAAEXZ 000000018006de80     insertShapeUtilsCore.obj
 0002:00009e88       $unwind$?GetScanLine@?$ScanLineBase@HHH@@QEAAXAEAEAEAH11@Z 000000018006de88     insertShapeUtilsCore.obj
 0002:00009e90       $unwind$?IsMoreLayer@?$ScanLineBase@HHH@@QEAAEXZ 000000018006de90     insertShapeUtilsCore.obj
 0002:00009e98       $unwind$?UpdatePolygonNumbers@?$ScanLineBase@HHH@@QEAAXHHH@Z 000000018006de98     insertShapeUtilsCore.obj
 0002:00009ea0       $unwind$??1?$ScanLineBase@HHH@@UEAA@XZ 000000018006dea0     insertShapeUtilsCore.obj
 0002:00009ea8       $unwind$??_G?$ScanLineBase@HHH@@UEAAPEAXI@Z 000000018006dea8     insertShapeUtilsCore.obj
 0002:00009eb0       $unwind$?IniLayer@?$ScanLine@HHH@@UEAAXXZ 000000018006deb0     insertShapeUtilsCore.obj
 0002:00009eb8       $unwind$?NextLayer@?$ScanLine@HHH@@UEAAXXZ 000000018006deb8     insertShapeUtilsCore.obj
 0002:00009ec0       $unwind$?Reset@?$ScanLine@HHH@@UEAAXXZ 000000018006dec0     insertShapeUtilsCore.obj
 0002:00009ec8       $unwind$??0?$ScanLine@HHH@@QEAA@PEAV?$Polygon@HHH@@HHHH@Z 000000018006dec8     insertShapeUtilsCore.obj
 0002:00009ed0       $unwind$?NextColumn@?$ScanLine@HHH@@EEAAXXZ 000000018006ded0     insertShapeUtilsCore.obj
 0002:00009ed8       $unwind$??1?$ScanLine@HHH@@UEAA@XZ 000000018006ded8     insertShapeUtilsCore.obj
 0002:00009ee0       $unwind$??_G?$ScanLine@HHH@@UEAAPEAXI@Z 000000018006dee0     insertShapeUtilsCore.obj
 0002:00009ee8       $unwind$??0?$DrawFilledPolygon@MMHHMMEH@@QEAA@PEAM00HHH0HPEAHHH1EEE0HPEAE00PEAV?$ScanLineBase@HHH@@11@Z 000000018006dee8     insertShapeUtilsCore.obj
 0002:00009ef0       $unwind$??1?$DrawFilledPolygon@MMHHMMEH@@UEAA@XZ 000000018006def0     insertShapeUtilsCore.obj
 0002:00009ef8       $unwind$?ProcessStep@?$DrawFilledPolygon@MMHHMMEH@@UEAAXXZ 000000018006def8     insertShapeUtilsCore.obj
 0002:00009f00       $unwind$?nearest@?$DrawFilledPolygon@MMHHMMEH@@AEAAHM@Z 000000018006df00     insertShapeUtilsCore.obj
 0002:00009f08       $unwind$?lclDSPFixptSqrt@?$DrawFilledPolygon@MMHHMMEH@@AEAAXAEAMM@Z 000000018006df08     insertShapeUtilsCore.obj
 0002:00009f10       $unwind$?getLineParams@?$DrawFilledPolygon@MMHHMMEH@@AEAAXHHHHHHPEAMAEAW4Paral_T@@@Z 000000018006df10     insertShapeUtilsCore.obj
 0002:00009f18       $unwind$?isValidPair@?$DrawFilledPolygon@MMHHMMEH@@AEAAEHHHHHHPEAM0W4Paral_T@@1@Z 000000018006df18     insertShapeUtilsCore.obj
 0002:00009f20       $unwind$?findPointOfIntersectionNormal@?$DrawFilledPolygon@MMHHMMEH@@AEAAXEPEAMAEAH1W4Paral_T@@@Z 000000018006df20     insertShapeUtilsCore.obj
 0002:00009f28       $unwind$?findPointOfIntersection@?$DrawFilledPolygon@MMHHMMEH@@AEAAXEPEAM0AEAH1W4Paral_T@@2HH@Z 000000018006df28     insertShapeUtilsCore.obj
 0002:00009f30       $unwind$?is_RightOfLine_CtrToRef@?$DrawFilledPolygon@MMHHMMEH@@AEAAEUXY_T@@00@Z 000000018006df30     insertShapeUtilsCore.obj
 0002:00009f38       $unwind$?convertLinePts2PolygonPts@?$DrawFilledPolygon@MMHHMMEH@@AEAAXXZ 000000018006df38     insertShapeUtilsCore.obj
 0002:00009f48       $unwind$?converPolygonPts2TwoPolygonPts@?$DrawFilledPolygon@MMHHMMEH@@AEAAXXZ 000000018006df48     insertShapeUtilsCore.obj
 0002:00009f58       $unwind$?ProcessStep@?$DrawFilledPolygon@MMHHMMEH@@AEAAXH@Z 000000018006df58     insertShapeUtilsCore.obj
 0002:00009f60       $unwind$??_G?$DrawFilledPolygon@MMHHMMEH@@UEAAPEAXI@Z 000000018006df60     insertShapeUtilsCore.obj
 0002:00009f68       $unwind$?NextColumn@?$Polygon@HHE@@QEAAXXZ 000000018006df68     insertShapeUtilsCore.obj
 0002:00009f70       $unwind$?MoveToColumn@?$Polygon@HHE@@QEAAXH@Z 000000018006df70     insertShapeUtilsCore.obj
 0002:00009f78       $unwind$?GetFirstCol@?$Polygon@HHE@@QEAAHXZ 000000018006df78     insertShapeUtilsCore.obj
 0002:00009f80       $unwind$?GetLastCol@?$Polygon@HHE@@QEAAHXZ 000000018006df80     insertShapeUtilsCore.obj
 0002:00009f88       $unwind$?IsMoreSeparator@?$Polygon@HHE@@QEAAEXZ 000000018006df88     insertShapeUtilsCore.obj
 0002:00009f90       $unwind$?GetAndAdvanceSeparator@?$Polygon@HHE@@QEAAHXZ 000000018006df90     insertShapeUtilsCore.obj
 0002:00009f98       $unwind$?GetSeparator@?$Polygon@HHE@@QEAAHXZ 000000018006df98     insertShapeUtilsCore.obj
 0002:00009fa0       $unwind$?Reset@?$Polygon@HHE@@QEAAXXZ 000000018006dfa0     insertShapeUtilsCore.obj
 0002:00009fa8       $unwind$?IsMorePolygon@?$Polygon@HHE@@QEAAEXZ 000000018006dfa8     insertShapeUtilsCore.obj
 0002:00009fb0       $unwind$?IniPolygon@?$Polygon@HHE@@QEAAXE@Z 000000018006dfb0     insertShapeUtilsCore.obj
 0002:00009fb8       $unwind$??0?$Polygon@HHE@@QEAA@PEBHPEAH11HHHEE@Z 000000018006dfb8     insertShapeUtilsCore.obj
 0002:00009fc0       $unwind$?ConvertVerticesToEdges@?$Polygon@HHE@@AEAAEXZ 000000018006dfc0     insertShapeUtilsCore.obj
 0002:00009fc8       $unwind$?getCoordinate@?$Polygon@HHE@@AEAAHH@Z 000000018006dfc8     insertShapeUtilsCore.obj
 0002:00009fd0       $unwind$?SortEdges@?$Polygon@HHE@@AEAAXHHH@Z 000000018006dfd0     insertShapeUtilsCore.obj
 0002:00009fd8       $unwind$?CopyEdge@?$Polygon@HHE@@AEAAXPEAH0HH@Z 000000018006dfd8     insertShapeUtilsCore.obj
 0002:00009fe0       $unwind$?BresenhamLineIni@?$Polygon@HHE@@AEAAXHHHHH@Z 000000018006dfe0     insertShapeUtilsCore.obj
 0002:00009fe8       $unwind$?BresenhamLineMerge@?$Polygon@HHE@@AEAAEHH@Z 000000018006dfe8     insertShapeUtilsCore.obj
 0002:00009ff0       $unwind$?IsMoreForeScanLine@?$ScanLineBase@HHE@@QEAAEXZ 000000018006dff0     insertShapeUtilsCore.obj
 0002:00009ff8       $unwind$?GetScanLine@?$ScanLineBase@HHE@@QEAAXAEAEAEAH11@Z 000000018006dff8     insertShapeUtilsCore.obj
 0002:0000a000       $unwind$?IsMoreLayer@?$ScanLineBase@HHE@@QEAAEXZ 000000018006e000     insertShapeUtilsCore.obj
 0002:0000a008       $unwind$?UpdatePolygonNumbers@?$ScanLineBase@HHE@@QEAAXHHH@Z 000000018006e008     insertShapeUtilsCore.obj
 0002:0000a010       $unwind$??1?$ScanLineBase@HHE@@UEAA@XZ 000000018006e010     insertShapeUtilsCore.obj
 0002:0000a018       $unwind$??_G?$ScanLineBase@HHE@@UEAAPEAXI@Z 000000018006e018     insertShapeUtilsCore.obj
 0002:0000a020       $unwind$?IniLayer@?$ScanLine@HHE@@UEAAXXZ 000000018006e020     insertShapeUtilsCore.obj
 0002:0000a028       $unwind$?NextLayer@?$ScanLine@HHE@@UEAAXXZ 000000018006e028     insertShapeUtilsCore.obj
 0002:0000a030       $unwind$?Reset@?$ScanLine@HHE@@UEAAXXZ 000000018006e030     insertShapeUtilsCore.obj
 0002:0000a038       $unwind$??0?$ScanLine@HHE@@QEAA@PEAV?$Polygon@HHE@@HHHH@Z 000000018006e038     insertShapeUtilsCore.obj
 0002:0000a040       $unwind$?NextColumn@?$ScanLine@HHE@@EEAAXXZ 000000018006e040     insertShapeUtilsCore.obj
 0002:0000a048       $unwind$??1?$ScanLine@HHE@@UEAA@XZ 000000018006e048     insertShapeUtilsCore.obj
 0002:0000a050       $unwind$??_G?$ScanLine@HHE@@UEAAPEAXI@Z 000000018006e050     insertShapeUtilsCore.obj
 0002:0000a058       $unwind$??0?$DrawFilledPolygon@MMHHMMEE@@QEAA@PEAM00HHH0HPEAHHH1EEE0HPEAE00PEAV?$ScanLineBase@HHE@@11@Z 000000018006e058     insertShapeUtilsCore.obj
 0002:0000a060       $unwind$??1?$DrawFilledPolygon@MMHHMMEE@@UEAA@XZ 000000018006e060     insertShapeUtilsCore.obj
 0002:0000a068       $unwind$?ProcessStep@?$DrawFilledPolygon@MMHHMMEE@@UEAAXXZ 000000018006e068     insertShapeUtilsCore.obj
 0002:0000a070       $unwind$?nearest@?$DrawFilledPolygon@MMHHMMEE@@AEAAHM@Z 000000018006e070     insertShapeUtilsCore.obj
 0002:0000a078       $unwind$?lclDSPFixptSqrt@?$DrawFilledPolygon@MMHHMMEE@@AEAAXAEAMM@Z 000000018006e078     insertShapeUtilsCore.obj
 0002:0000a080       $unwind$?getLineParams@?$DrawFilledPolygon@MMHHMMEE@@AEAAXHHHHHHPEAMAEAW4Paral_T@@@Z 000000018006e080     insertShapeUtilsCore.obj
 0002:0000a088       $unwind$?isValidPair@?$DrawFilledPolygon@MMHHMMEE@@AEAAEHHHHHHPEAM0W4Paral_T@@1@Z 000000018006e088     insertShapeUtilsCore.obj
 0002:0000a090       $unwind$?findPointOfIntersectionNormal@?$DrawFilledPolygon@MMHHMMEE@@AEAAXEPEAMAEAH1W4Paral_T@@@Z 000000018006e090     insertShapeUtilsCore.obj
 0002:0000a098       $unwind$?findPointOfIntersection@?$DrawFilledPolygon@MMHHMMEE@@AEAAXEPEAM0AEAH1W4Paral_T@@2HH@Z 000000018006e098     insertShapeUtilsCore.obj
 0002:0000a0a0       $unwind$?is_RightOfLine_CtrToRef@?$DrawFilledPolygon@MMHHMMEE@@AEAAEUXY_T@@00@Z 000000018006e0a0     insertShapeUtilsCore.obj
 0002:0000a0a8       $unwind$?convertLinePts2PolygonPts@?$DrawFilledPolygon@MMHHMMEE@@AEAAXXZ 000000018006e0a8     insertShapeUtilsCore.obj
 0002:0000a0b8       $unwind$?converPolygonPts2TwoPolygonPts@?$DrawFilledPolygon@MMHHMMEE@@AEAAXXZ 000000018006e0b8     insertShapeUtilsCore.obj
 0002:0000a0c8       $unwind$?ProcessStep@?$DrawFilledPolygon@MMHHMMEE@@AEAAXE@Z 000000018006e0c8     insertShapeUtilsCore.obj
 0002:0000a0d0       $unwind$??_G?$DrawFilledPolygon@MMHHMMEE@@UEAAPEAXI@Z 000000018006e0d0     insertShapeUtilsCore.obj
 0002:0000a0d8       $unwind$??0?$DrawLine@MMHHMMEH@@QEAA@PEAM00HHH0HPEAHHH1EEE0HPEAE00@Z 000000018006e0d8     insertShapeUtilsCore.obj
 0002:0000a0e0       $unwind$??1?$DrawLine@MMHHMMEH@@UEAA@XZ 000000018006e0e0     insertShapeUtilsCore.obj
 0002:0000a0e8       $unwind$?ProcessOneShape@?$DrawLine@MMHHMMEH@@QEAAXXZ 000000018006e0e8     insertShapeUtilsCore.obj
 0002:0000a0f0       $unwind$?ProcessOneShape@?$DrawLine@MMHHMMEH@@QEAAXH@Z 000000018006e0f0     insertShapeUtilsCore.obj
 0002:0000a100       $unwind$?Initialize@?$BresenhamLine@HH@@QEAAXPEAHH@Z 000000018006e100     insertShapeUtilsCore.obj
 0002:0000a108       $unwind$?IsInRange@?$BresenhamLine@HH@@QEAAEXZ 000000018006e108     insertShapeUtilsCore.obj
 0002:0000a110       $unwind$?IsHorizontal@?$BresenhamLine@HH@@QEAAEXZ 000000018006e110     insertShapeUtilsCore.obj
 0002:0000a118       $unwind$?MoveToNextPosition@?$BresenhamLine@HH@@QEAAXXZ 000000018006e118     insertShapeUtilsCore.obj
 0002:0000a120       $unwind$?AbsoluteValue@?$BresenhamLine@HH@@AEAAHH@Z 000000018006e120     insertShapeUtilsCore.obj
 0002:0000a128       $unwind$?SwapValues@?$BresenhamLine@HH@@AEAAXAEAH0@Z 000000018006e128     insertShapeUtilsCore.obj
 0002:0000a130       $unwind$??_G?$DrawLine@MMHHMMEH@@UEAAPEAXI@Z 000000018006e130     insertShapeUtilsCore.obj
 0002:0000a138       $unwind$??0?$DrawPolygon@MMHHMMEH@@QEAA@PEAM00HHH0HPEAHHH1EEE0HPEAE0011@Z 000000018006e138     insertShapeUtilsCore.obj
 0002:0000a140       $unwind$??1?$DrawPolygon@MMHHMMEH@@UEAA@XZ 000000018006e140     insertShapeUtilsCore.obj
 0002:0000a148       $unwind$?ProcessStep@?$DrawPolygon@MMHHMMEH@@UEAAXXZ 000000018006e148     insertShapeUtilsCore.obj
 0002:0000a150       $unwind$??_G?$DrawPolygon@MMHHMMEH@@UEAAPEAXI@Z 000000018006e150     insertShapeUtilsCore.obj
 0002:0000a158       $unwind$??0?$DrawPolygon@MMHHMMEE@@QEAA@PEAM00HHH0HPEAHHH1EEE0HPEAE0011@Z 000000018006e158     insertShapeUtilsCore.obj
 0002:0000a160       $unwind$??1?$DrawPolygon@MMHHMMEE@@UEAA@XZ 000000018006e160     insertShapeUtilsCore.obj
 0002:0000a168       $unwind$?ProcessStep@?$DrawPolygon@MMHHMMEE@@UEAAXXZ 000000018006e168     insertShapeUtilsCore.obj
 0002:0000a170       $unwind$??_G?$DrawPolygon@MMHHMMEE@@UEAAPEAXI@Z 000000018006e170     insertShapeUtilsCore.obj
 0002:0000a178       $unwind$??0?$DrawAnyLine@MMHHMMEH@@QEAA@PEAM00HHH0HPEAHHH1EEE0HPEAE0011@Z 000000018006e178     insertShapeUtilsCore.obj
 0002:0000a180       $unwind$??1?$DrawAnyLine@MMHHMMEH@@UEAA@XZ 000000018006e180     insertShapeUtilsCore.obj
 0002:0000a188       $unwind$?ProcessStep@?$DrawAnyLine@MMHHMMEH@@UEAAXXZ 000000018006e188     insertShapeUtilsCore.obj
 0002:0000a190       $unwind$??_G?$DrawAnyLine@MMHHMMEH@@UEAAPEAXI@Z 000000018006e190     insertShapeUtilsCore.obj
 0002:0000a198       $unwind$??0?$DrawAnyLine@MMHHMMEE@@QEAA@PEAM00HHH0HPEAHHH1EEE0HPEAE0011@Z 000000018006e198     insertShapeUtilsCore.obj
 0002:0000a1a0       $unwind$??1?$DrawAnyLine@MMHHMMEE@@UEAA@XZ 000000018006e1a0     insertShapeUtilsCore.obj
 0002:0000a1a8       $unwind$?ProcessStep@?$DrawAnyLine@MMHHMMEE@@UEAAXXZ 000000018006e1a8     insertShapeUtilsCore.obj
 0002:0000a1b0       $unwind$??_G?$DrawAnyLine@MMHHMMEE@@UEAAPEAXI@Z 000000018006e1b0     insertShapeUtilsCore.obj
 0002:0000a1b8       $unwind$??0?$DrawCircle@MMHHMMEHH@@QEAA@PEAM00HHH0HPEAHHH1EEE0HPEAE00@Z 000000018006e1b8     insertShapeUtilsCore.obj
 0002:0000a1c0       $unwind$?ProcessOneShape@?$DrawCircle@MMHHMMEHH@@QEAAXXZ 000000018006e1c0     insertShapeUtilsCore.obj
 0002:0000a1c8       $unwind$?ProcessOneShape@?$DrawCircle@MMHHMMEHH@@AEAAXHHHHH@Z 000000018006e1c8     insertShapeUtilsCore.obj
 0002:0000a1d0       $unwind$?DrawLineAndResetStates@?$DrawCircle@MMHHMMEHH@@AEAAXHHAEAH0H@Z 000000018006e1d0     insertShapeUtilsCore.obj
 0002:0000a1d8       $unwind$??1?$DrawCircle@MMHHMMEHH@@UEAA@XZ 000000018006e1d8     insertShapeUtilsCore.obj
 0002:0000a1e0       $unwind$??_G?$DrawCircle@MMHHMMEHH@@UEAAPEAXI@Z 000000018006e1e0     insertShapeUtilsCore.obj
 0002:0000a1e8       $unwind$??0?$DrawCircleAnySize@MMHHMMEHH@@QEAA@PEAM00HHH0HPEAHHH1EEE0HPEAE001@Z 000000018006e1e8     insertShapeUtilsCore.obj
 0002:0000a1f0       $unwind$??1?$DrawCircleAnySize@MMHHMMEHH@@UEAA@XZ 000000018006e1f0     insertShapeUtilsCore.obj
 0002:0000a1f8       $unwind$?ProcessStep@?$DrawCircleAnySize@MMHHMMEHH@@UEAAXXZ 000000018006e1f8     insertShapeUtilsCore.obj
 0002:0000a200       $unwind$??_G?$DrawCircleAnySize@MMHHMMEHH@@UEAAPEAXI@Z 000000018006e200     insertShapeUtilsCore.obj
 0002:0000a208       $unwind$??0?$DrawCircle@MMHHMMEEH@@QEAA@PEAM00HHH0HPEAHHH1EEE0HPEAE00@Z 000000018006e208     insertShapeUtilsCore.obj
 0002:0000a210       $unwind$?ProcessOneShape@?$DrawCircle@MMHHMMEEH@@QEAAXXZ 000000018006e210     insertShapeUtilsCore.obj
 0002:0000a218       $unwind$?ProcessOneShape@?$DrawCircle@MMHHMMEEH@@AEAAXHHHEH@Z 000000018006e218     insertShapeUtilsCore.obj
 0002:0000a220       $unwind$?DrawLineAndResetStates@?$DrawCircle@MMHHMMEEH@@AEAAXHHAEAH0H@Z 000000018006e220     insertShapeUtilsCore.obj
 0002:0000a228       $unwind$??1?$DrawCircle@MMHHMMEEH@@UEAA@XZ 000000018006e228     insertShapeUtilsCore.obj
 0002:0000a230       $unwind$??_G?$DrawCircle@MMHHMMEEH@@UEAAPEAXI@Z 000000018006e230     insertShapeUtilsCore.obj
 0002:0000a238       $unwind$??0?$DrawCircleAnySize@MMHHMMEEH@@QEAA@PEAM00HHH0HPEAHHH1EEE0HPEAE001@Z 000000018006e238     insertShapeUtilsCore.obj
 0002:0000a240       $unwind$??1?$DrawCircleAnySize@MMHHMMEEH@@UEAA@XZ 000000018006e240     insertShapeUtilsCore.obj
 0002:0000a248       $unwind$?ProcessStep@?$DrawCircleAnySize@MMHHMMEEH@@UEAAXXZ 000000018006e248     insertShapeUtilsCore.obj
 0002:0000a250       $unwind$??_G?$DrawCircleAnySize@MMHHMMEEH@@UEAAPEAXI@Z 000000018006e250     insertShapeUtilsCore.obj
 0002:0000a258       $unwind$??0?$DrawCircle@MMHHMMEHE@@QEAA@PEAM00HHH0HPEAHHH1EEE0HPEAE00@Z 000000018006e258     insertShapeUtilsCore.obj
 0002:0000a260       $unwind$?ProcessOneShape@?$DrawCircle@MMHHMMEHE@@QEAAXXZ 000000018006e260     insertShapeUtilsCore.obj
 0002:0000a268       $unwind$?ProcessOneShape@?$DrawCircle@MMHHMMEHE@@AEAAXHHHHE@Z 000000018006e268     insertShapeUtilsCore.obj
 0002:0000a270       $unwind$??1?$DrawCircle@MMHHMMEHE@@UEAA@XZ 000000018006e270     insertShapeUtilsCore.obj
 0002:0000a278       $unwind$??_G?$DrawCircle@MMHHMMEHE@@UEAAPEAXI@Z 000000018006e278     insertShapeUtilsCore.obj
 0002:0000a280       $unwind$??0?$DrawCircleAnySize@MMHHMMEHE@@QEAA@PEAM00HHH0HPEAHHH1EEE0HPEAE001@Z 000000018006e280     insertShapeUtilsCore.obj
 0002:0000a288       $unwind$??1?$DrawCircleAnySize@MMHHMMEHE@@UEAA@XZ 000000018006e288     insertShapeUtilsCore.obj
 0002:0000a290       $unwind$?ProcessStep@?$DrawCircleAnySize@MMHHMMEHE@@UEAAXXZ 000000018006e290     insertShapeUtilsCore.obj
 0002:0000a298       $unwind$??_G?$DrawCircleAnySize@MMHHMMEHE@@UEAAPEAXI@Z 000000018006e298     insertShapeUtilsCore.obj
 0002:0000a2a0       $unwind$??0?$DrawCircle@MMHHMMEEE@@QEAA@PEAM00HHH0HPEAHHH1EEE0HPEAE00@Z 000000018006e2a0     insertShapeUtilsCore.obj
 0002:0000a2a8       $unwind$?ProcessOneShape@?$DrawCircle@MMHHMMEEE@@QEAAXXZ 000000018006e2a8     insertShapeUtilsCore.obj
 0002:0000a2b0       $unwind$?ProcessOneShape@?$DrawCircle@MMHHMMEEE@@AEAAXHHHEE@Z 000000018006e2b0     insertShapeUtilsCore.obj
 0002:0000a2b8       $unwind$?ProcessOneShape@?$DrawCircle@MMHHMMEEE@@AEAAXHHHEH@Z 000000018006e2b8     insertShapeUtilsCore.obj
 0002:0000a2c0       $unwind$?DrawLineAndResetStates@?$DrawCircle@MMHHMMEEE@@AEAAXHHAEAH0H@Z 000000018006e2c0     insertShapeUtilsCore.obj
 0002:0000a2c8       $unwind$??1?$DrawCircle@MMHHMMEEE@@UEAA@XZ 000000018006e2c8     insertShapeUtilsCore.obj
 0002:0000a2d0       $unwind$??_G?$DrawCircle@MMHHMMEEE@@UEAAPEAXI@Z 000000018006e2d0     insertShapeUtilsCore.obj
 0002:0000a2d8       $unwind$??0?$DrawCircleAnySize@MMHHMMEEE@@QEAA@PEAM00HHH0HPEAHHH1EEE0HPEAE001@Z 000000018006e2d8     insertShapeUtilsCore.obj
 0002:0000a2e0       $unwind$??1?$DrawCircleAnySize@MMHHMMEEE@@UEAA@XZ 000000018006e2e0     insertShapeUtilsCore.obj
 0002:0000a2e8       $unwind$?ProcessStep@?$DrawCircleAnySize@MMHHMMEEE@@UEAAXXZ 000000018006e2e8     insertShapeUtilsCore.obj
 0002:0000a2f0       $unwind$??_G?$DrawCircleAnySize@MMHHMMEEE@@UEAAPEAXI@Z 000000018006e2f0     insertShapeUtilsCore.obj
 0002:0000a2f8       $unwind$??0?$DrawCommon@NNHHNNEH@@QEAA@PEAN00HHH0HPEAHHH1EEE0HPEAE00@Z 000000018006e2f8     insertShapeUtilsCore.obj
 0002:0000a308       $stateUnwindMap$??0?$DrawCommon@NNHHNNEH@@QEAA@PEAN00HHH0HPEAHHH1EEE0HPEAE00@Z 000000018006e308     insertShapeUtilsCore.obj
 0002:0000a310       $ip2state$??0?$DrawCommon@NNHHNNEH@@QEAA@PEAN00HHH0HPEAHHH1EEE0HPEAE00@Z 000000018006e310     insertShapeUtilsCore.obj
 0002:0000a328       $unwind$?dtor$0@?0???0?$DrawCommon@NNHHNNEH@@QEAA@PEAN00HHH0HPEAHHH1EEE0HPEAE00@Z@4HA 000000018006e328     insertShapeUtilsCore.obj
 0002:0000a330       $unwind$??1?$DrawCommon@NNHHNNEH@@UEAA@XZ 000000018006e330     insertShapeUtilsCore.obj
 0002:0000a338       $unwind$?CleanUp@?$DrawCommon@NNHHNNEH@@UEAAXXZ 000000018006e338     insertShapeUtilsCore.obj
 0002:0000a340       $unwind$?UpdateImageBoundary@?$DrawCommon@NNHHNNEH@@UEAAXHH@Z 000000018006e340     insertShapeUtilsCore.obj
 0002:0000a348       $unwind$?UpdateViewPort@?$DrawCommon@NNHHNNEH@@UEAAXPEAH@Z 000000018006e348     insertShapeUtilsCore.obj
 0002:0000a350       $unwind$?UpdateFillColorOpacity@?$DrawCommon@NNHHNNEH@@UEAAXE@Z 000000018006e350     insertShapeUtilsCore.obj
 0002:0000a358       $unwind$?MoveToNextFillColor@?$DrawCommon@NNHHNNEH@@IEAAXXZ 000000018006e358     insertShapeUtilsCore.obj
 0002:0000a360       $unwind$?MoveToNextOpacity@?$DrawCommon@NNHHNNEH@@IEAAXXZ 000000018006e360     insertShapeUtilsCore.obj
 0002:0000a368       $unwind$?PlotSubPixels@?$DrawCommon@NNHHNNEH@@IEAAXHHHHH@Z 000000018006e368     insertShapeUtilsCore.obj
 0002:0000a370       $unwind$?PlotVerticalLine@?$DrawCommon@NNHHNNEH@@IEAAXHHHHH@Z 000000018006e370     insertShapeUtilsCore.obj
 0002:0000a378       $unwind$?PlotVerticalLineCheckRange@?$DrawCommon@NNHHNNEH@@IEAAXHHHHH@Z 000000018006e378     insertShapeUtilsCore.obj
 0002:0000a380       $unwind$?CountSubPixel@?$DrawCommon@NNHHNNEH@@IEAAXHHHHAEAH0HH@Z 000000018006e380     insertShapeUtilsCore.obj
 0002:0000a388       $unwind$?PlotVerticalLine@?$DrawCommon@NNHHNNEH@@AEAAXHHHHHE@Z 000000018006e388     insertShapeUtilsCore.obj
 0002:0000a390       $unwind$?PlotVerticalLineOneColor@?$DrawCommon@NNHHNNEH@@AEAAXPEANHHHHH@Z 000000018006e390     insertShapeUtilsCore.obj
 0002:0000a398       $unwind$?PlotSubPixels@?$DrawCommon@NNHHNNEH@@AEAAXHHHHHE@Z 000000018006e398     insertShapeUtilsCore.obj
 0002:0000a3a0       $unwind$?PlotSubPixelsOneColor@?$DrawCommon@NNHHNNEH@@AEAAXPEANHHHHH@Z 000000018006e3a0     insertShapeUtilsCore.obj
 0002:0000a3a8       $unwind$?PlotOneSubPixelOneColor@?$DrawCommon@NNHHNNEH@@AEAAXPEANHEHH@Z 000000018006e3a8     insertShapeUtilsCore.obj
 0002:0000a3b0       $unwind$?IsMoreClr@?$DrawCommon@NNHHNNEH@@AEAAHH@Z 000000018006e3b0     insertShapeUtilsCore.obj
 0002:0000a3b8       $unwind$??_G?$DrawCommon@NNHHNNEH@@UEAAPEAXI@Z 000000018006e3b8     insertShapeUtilsCore.obj
 0002:0000a3c0       $unwind$??0?$DrawFilledRectangle@NNHHNNE@@QEAA@PEAN00HHH0HPEAHHH1EEE0HPEAE00@Z 000000018006e3c0     insertShapeUtilsCore.obj
 0002:0000a3c8       $unwind$?ProcessOneShape@?$DrawFilledRectangle@NNHHNNE@@QEAAXXZ 000000018006e3c8     insertShapeUtilsCore.obj
 0002:0000a3d8       $unwind$??1?$DrawFilledRectangle@NNHHNNE@@UEAA@XZ 000000018006e3d8     insertShapeUtilsCore.obj
 0002:0000a3e0       $unwind$??_G?$DrawFilledRectangle@NNHHNNE@@UEAAPEAXI@Z 000000018006e3e0     insertShapeUtilsCore.obj
 0002:0000a3e8       $unwind$??0?$DrawFilledRectangleAnySize@NNHHNNE@@QEAA@PEAN00HHH0HPEAHHH1EEE0HPEAE00PEBH@Z 000000018006e3e8     insertShapeUtilsCore.obj
 0002:0000a3f0       $unwind$??1?$DrawFilledRectangleAnySize@NNHHNNE@@UEAA@XZ 000000018006e3f0     insertShapeUtilsCore.obj
 0002:0000a3f8       $unwind$?ProcessStep@?$DrawFilledRectangleAnySize@NNHHNNE@@UEAAXXZ 000000018006e3f8     insertShapeUtilsCore.obj
 0002:0000a400       $unwind$??_G?$DrawFilledRectangleAnySize@NNHHNNE@@UEAAPEAXI@Z 000000018006e400     insertShapeUtilsCore.obj
 0002:0000a408       $unwind$??0?$DrawCommon@NNHHNNEE@@QEAA@PEAN00HHH0HPEAHHH1EEE0HPEAE00@Z 000000018006e408     insertShapeUtilsCore.obj
 0002:0000a418       $stateUnwindMap$??0?$DrawCommon@NNHHNNEE@@QEAA@PEAN00HHH0HPEAHHH1EEE0HPEAE00@Z 000000018006e418     insertShapeUtilsCore.obj
 0002:0000a420       $ip2state$??0?$DrawCommon@NNHHNNEE@@QEAA@PEAN00HHH0HPEAHHH1EEE0HPEAE00@Z 000000018006e420     insertShapeUtilsCore.obj
 0002:0000a438       $unwind$?dtor$0@?0???0?$DrawCommon@NNHHNNEE@@QEAA@PEAN00HHH0HPEAHHH1EEE0HPEAE00@Z@4HA 000000018006e438     insertShapeUtilsCore.obj
 0002:0000a440       $unwind$??1?$DrawCommon@NNHHNNEE@@UEAA@XZ 000000018006e440     insertShapeUtilsCore.obj
 0002:0000a448       $unwind$?CleanUp@?$DrawCommon@NNHHNNEE@@UEAAXXZ 000000018006e448     insertShapeUtilsCore.obj
 0002:0000a450       $unwind$?UpdateImageBoundary@?$DrawCommon@NNHHNNEE@@UEAAXHH@Z 000000018006e450     insertShapeUtilsCore.obj
 0002:0000a458       $unwind$?UpdateViewPort@?$DrawCommon@NNHHNNEE@@UEAAXPEAH@Z 000000018006e458     insertShapeUtilsCore.obj
 0002:0000a460       $unwind$?UpdateFillColorOpacity@?$DrawCommon@NNHHNNEE@@UEAAXE@Z 000000018006e460     insertShapeUtilsCore.obj
 0002:0000a468       $unwind$?MoveToNextFillColor@?$DrawCommon@NNHHNNEE@@IEAAXXZ 000000018006e468     insertShapeUtilsCore.obj
 0002:0000a470       $unwind$?MoveToNextOpacity@?$DrawCommon@NNHHNNEE@@IEAAXXZ 000000018006e470     insertShapeUtilsCore.obj
 0002:0000a478       $unwind$?PlotOnePixel@?$DrawCommon@NNHHNNEE@@IEAAXHH@Z 000000018006e478     insertShapeUtilsCore.obj
 0002:0000a480       $unwind$?PlotPixelsCheckRange@?$DrawCommon@NNHHNNEE@@IEAAXHHH@Z 000000018006e480     insertShapeUtilsCore.obj
 0002:0000a488       $unwind$?PlotSubPixels@?$DrawCommon@NNHHNNEE@@IEAAXHHHHH@Z 000000018006e488     insertShapeUtilsCore.obj
 0002:0000a490       $unwind$?PlotSubPixels@?$DrawCommon@NNHHNNEE@@IEAAXHEHH@Z 000000018006e490     insertShapeUtilsCore.obj
 0002:0000a498       $unwind$?CountSubPixel@?$DrawCommon@NNHHNNEE@@IEAAXHHHHAEAH0HH@Z 000000018006e498     insertShapeUtilsCore.obj
 0002:0000a4a0       $unwind$?PlotOnePixel@?$DrawCommon@NNHHNNEE@@AEAAXHHE@Z 000000018006e4a0     insertShapeUtilsCore.obj
 0002:0000a4a8       $unwind$?PlotSubPixels@?$DrawCommon@NNHHNNEE@@AEAAXHHHHHE@Z 000000018006e4a8     insertShapeUtilsCore.obj
 0002:0000a4b0       $unwind$?PlotSubPixelsOneColor@?$DrawCommon@NNHHNNEE@@AEAAXPEANHHHHH@Z 000000018006e4b0     insertShapeUtilsCore.obj
 0002:0000a4b8       $unwind$?PlotSubPixels@?$DrawCommon@NNHHNNEE@@AEAAXHEHHE@Z 000000018006e4b8     insertShapeUtilsCore.obj
 0002:0000a4c0       $unwind$?PlotOneSubPixelOneColor@?$DrawCommon@NNHHNNEE@@AEAAXPEANHEHH@Z 000000018006e4c0     insertShapeUtilsCore.obj
 0002:0000a4c8       $unwind$?IsMoreClr@?$DrawCommon@NNHHNNEE@@AEAAHH@Z 000000018006e4c8     insertShapeUtilsCore.obj
 0002:0000a4d0       $unwind$??_G?$DrawCommon@NNHHNNEE@@UEAAPEAXI@Z 000000018006e4d0     insertShapeUtilsCore.obj
 0002:0000a4d8       $unwind$??0?$DrawLine@NNHHNNEE@@QEAA@PEAN00HHH0HPEAHHH1EEE0HPEAE00@Z 000000018006e4d8     insertShapeUtilsCore.obj
 0002:0000a4e0       $unwind$??1?$DrawLine@NNHHNNEE@@UEAA@XZ 000000018006e4e0     insertShapeUtilsCore.obj
 0002:0000a4e8       $unwind$?ProcessOneShape@?$DrawLine@NNHHNNEE@@QEAAXXZ 000000018006e4e8     insertShapeUtilsCore.obj
 0002:0000a4f0       $unwind$?ProcessOneShape@?$DrawLine@NNHHNNEE@@QEAAXE@Z 000000018006e4f0     insertShapeUtilsCore.obj
 0002:0000a500       $unwind$??_G?$DrawLine@NNHHNNEE@@UEAAPEAXI@Z 000000018006e500     insertShapeUtilsCore.obj
 0002:0000a508       $unwind$??0?$DrawMarkerLine@NNHHNNEE@@QEAA@PEAN00HHH0HPEAHHH1EEE0HPEAE00@Z 000000018006e508     insertShapeUtilsCore.obj
 0002:0000a510       $unwind$?ProcessOneShape@?$DrawMarkerLine@NNHHNNEE@@QEAAXXZ 000000018006e510     insertShapeUtilsCore.obj
 0002:0000a518       $unwind$?ProcessOneShape@?$DrawMarkerLine@NNHHNNEE@@QEAAXE@Z 000000018006e518     insertShapeUtilsCore.obj
 0002:0000a528       $unwind$??1?$DrawMarkerLine@NNHHNNEE@@UEAA@XZ 000000018006e528     insertShapeUtilsCore.obj
 0002:0000a530       $unwind$??_G?$DrawMarkerLine@NNHHNNEE@@UEAAPEAXI@Z 000000018006e530     insertShapeUtilsCore.obj
 0002:0000a538       $unwind$??0?$DrawRectangleAnySize@NNHHNNE@@QEAA@PEAN00HHH0HPEAHHH1EEE0HPEAE001@Z 000000018006e538     insertShapeUtilsCore.obj
 0002:0000a540       $unwind$??1?$DrawRectangleAnySize@NNHHNNE@@UEAA@XZ 000000018006e540     insertShapeUtilsCore.obj
 0002:0000a548       $unwind$?ProcessStep@?$DrawRectangleAnySize@NNHHNNE@@UEAAXXZ 000000018006e548     insertShapeUtilsCore.obj
 0002:0000a550       $unwind$??_G?$DrawRectangleAnySize@NNHHNNE@@UEAAPEAXI@Z 000000018006e550     insertShapeUtilsCore.obj
 0002:0000a558       $unwind$??0?$DrawFilledPolygon@NNHHNNEH@@QEAA@PEAN00HHH0HPEAHHH1EEE0HPEAE00PEAV?$ScanLineBase@HHH@@11@Z 000000018006e558     insertShapeUtilsCore.obj
 0002:0000a560       $unwind$??1?$DrawFilledPolygon@NNHHNNEH@@UEAA@XZ 000000018006e560     insertShapeUtilsCore.obj
 0002:0000a568       $unwind$?ProcessStep@?$DrawFilledPolygon@NNHHNNEH@@UEAAXXZ 000000018006e568     insertShapeUtilsCore.obj
 0002:0000a570       $unwind$?nearest@?$DrawFilledPolygon@NNHHNNEH@@AEAAHN@Z 000000018006e570     insertShapeUtilsCore.obj
 0002:0000a578       $unwind$?lclDSPFixptSqrt@?$DrawFilledPolygon@NNHHNNEH@@AEAAXAEANN@Z 000000018006e578     insertShapeUtilsCore.obj
 0002:0000a580       $unwind$?getLineParams@?$DrawFilledPolygon@NNHHNNEH@@AEAAXHHHHHHPEANAEAW4Paral_T@@@Z 000000018006e580     insertShapeUtilsCore.obj
 0002:0000a588       $unwind$?isValidPair@?$DrawFilledPolygon@NNHHNNEH@@AEAAEHHHHHHPEAN0W4Paral_T@@1@Z 000000018006e588     insertShapeUtilsCore.obj
 0002:0000a590       $unwind$?findPointOfIntersectionNormal@?$DrawFilledPolygon@NNHHNNEH@@AEAAXEPEANAEAH1W4Paral_T@@@Z 000000018006e590     insertShapeUtilsCore.obj
 0002:0000a598       $unwind$?findPointOfIntersection@?$DrawFilledPolygon@NNHHNNEH@@AEAAXEPEAN0AEAH1W4Paral_T@@2HH@Z 000000018006e598     insertShapeUtilsCore.obj
 0002:0000a5a0       $unwind$?is_RightOfLine_CtrToRef@?$DrawFilledPolygon@NNHHNNEH@@AEAAEUXY_T@@00@Z 000000018006e5a0     insertShapeUtilsCore.obj
 0002:0000a5a8       $unwind$?convertLinePts2PolygonPts@?$DrawFilledPolygon@NNHHNNEH@@AEAAXXZ 000000018006e5a8     insertShapeUtilsCore.obj
 0002:0000a5b8       $unwind$?converPolygonPts2TwoPolygonPts@?$DrawFilledPolygon@NNHHNNEH@@AEAAXXZ 000000018006e5b8     insertShapeUtilsCore.obj
 0002:0000a5c8       $unwind$?ProcessStep@?$DrawFilledPolygon@NNHHNNEH@@AEAAXH@Z 000000018006e5c8     insertShapeUtilsCore.obj
 0002:0000a5d0       $unwind$??_G?$DrawFilledPolygon@NNHHNNEH@@UEAAPEAXI@Z 000000018006e5d0     insertShapeUtilsCore.obj
 0002:0000a5d8       $unwind$??0?$DrawFilledPolygon@NNHHNNEE@@QEAA@PEAN00HHH0HPEAHHH1EEE0HPEAE00PEAV?$ScanLineBase@HHE@@11@Z 000000018006e5d8     insertShapeUtilsCore.obj
 0002:0000a5e0       $unwind$??1?$DrawFilledPolygon@NNHHNNEE@@UEAA@XZ 000000018006e5e0     insertShapeUtilsCore.obj
 0002:0000a5e8       $unwind$?ProcessStep@?$DrawFilledPolygon@NNHHNNEE@@UEAAXXZ 000000018006e5e8     insertShapeUtilsCore.obj
 0002:0000a5f0       $unwind$?nearest@?$DrawFilledPolygon@NNHHNNEE@@AEAAHN@Z 000000018006e5f0     insertShapeUtilsCore.obj
 0002:0000a5f8       $unwind$?lclDSPFixptSqrt@?$DrawFilledPolygon@NNHHNNEE@@AEAAXAEANN@Z 000000018006e5f8     insertShapeUtilsCore.obj
 0002:0000a600       $unwind$?getLineParams@?$DrawFilledPolygon@NNHHNNEE@@AEAAXHHHHHHPEANAEAW4Paral_T@@@Z 000000018006e600     insertShapeUtilsCore.obj
 0002:0000a608       $unwind$?isValidPair@?$DrawFilledPolygon@NNHHNNEE@@AEAAEHHHHHHPEAN0W4Paral_T@@1@Z 000000018006e608     insertShapeUtilsCore.obj
 0002:0000a610       $unwind$?findPointOfIntersectionNormal@?$DrawFilledPolygon@NNHHNNEE@@AEAAXEPEANAEAH1W4Paral_T@@@Z 000000018006e610     insertShapeUtilsCore.obj
 0002:0000a618       $unwind$?findPointOfIntersection@?$DrawFilledPolygon@NNHHNNEE@@AEAAXEPEAN0AEAH1W4Paral_T@@2HH@Z 000000018006e618     insertShapeUtilsCore.obj
 0002:0000a620       $unwind$?is_RightOfLine_CtrToRef@?$DrawFilledPolygon@NNHHNNEE@@AEAAEUXY_T@@00@Z 000000018006e620     insertShapeUtilsCore.obj
 0002:0000a628       $unwind$?convertLinePts2PolygonPts@?$DrawFilledPolygon@NNHHNNEE@@AEAAXXZ 000000018006e628     insertShapeUtilsCore.obj
 0002:0000a638       $unwind$?converPolygonPts2TwoPolygonPts@?$DrawFilledPolygon@NNHHNNEE@@AEAAXXZ 000000018006e638     insertShapeUtilsCore.obj
 0002:0000a648       $unwind$?ProcessStep@?$DrawFilledPolygon@NNHHNNEE@@AEAAXE@Z 000000018006e648     insertShapeUtilsCore.obj
 0002:0000a650       $unwind$??_G?$DrawFilledPolygon@NNHHNNEE@@UEAAPEAXI@Z 000000018006e650     insertShapeUtilsCore.obj
 0002:0000a658       $unwind$??0?$DrawLine@NNHHNNEH@@QEAA@PEAN00HHH0HPEAHHH1EEE0HPEAE00@Z 000000018006e658     insertShapeUtilsCore.obj
 0002:0000a660       $unwind$??1?$DrawLine@NNHHNNEH@@UEAA@XZ 000000018006e660     insertShapeUtilsCore.obj
 0002:0000a668       $unwind$?ProcessOneShape@?$DrawLine@NNHHNNEH@@QEAAXXZ 000000018006e668     insertShapeUtilsCore.obj
 0002:0000a670       $unwind$?ProcessOneShape@?$DrawLine@NNHHNNEH@@QEAAXH@Z 000000018006e670     insertShapeUtilsCore.obj
 0002:0000a680       $unwind$??_G?$DrawLine@NNHHNNEH@@UEAAPEAXI@Z 000000018006e680     insertShapeUtilsCore.obj
 0002:0000a688       $unwind$??0?$DrawPolygon@NNHHNNEH@@QEAA@PEAN00HHH0HPEAHHH1EEE0HPEAE0011@Z 000000018006e688     insertShapeUtilsCore.obj
 0002:0000a690       $unwind$??1?$DrawPolygon@NNHHNNEH@@UEAA@XZ 000000018006e690     insertShapeUtilsCore.obj
 0002:0000a698       $unwind$?ProcessStep@?$DrawPolygon@NNHHNNEH@@UEAAXXZ 000000018006e698     insertShapeUtilsCore.obj
 0002:0000a6a0       $unwind$??_G?$DrawPolygon@NNHHNNEH@@UEAAPEAXI@Z 000000018006e6a0     insertShapeUtilsCore.obj
 0002:0000a6a8       $unwind$??0?$DrawPolygon@NNHHNNEE@@QEAA@PEAN00HHH0HPEAHHH1EEE0HPEAE0011@Z 000000018006e6a8     insertShapeUtilsCore.obj
 0002:0000a6b0       $unwind$??1?$DrawPolygon@NNHHNNEE@@UEAA@XZ 000000018006e6b0     insertShapeUtilsCore.obj
 0002:0000a6b8       $unwind$?ProcessStep@?$DrawPolygon@NNHHNNEE@@UEAAXXZ 000000018006e6b8     insertShapeUtilsCore.obj
 0002:0000a6c0       $unwind$??_G?$DrawPolygon@NNHHNNEE@@UEAAPEAXI@Z 000000018006e6c0     insertShapeUtilsCore.obj
 0002:0000a6c8       $unwind$??0?$DrawAnyLine@NNHHNNEH@@QEAA@PEAN00HHH0HPEAHHH1EEE0HPEAE0011@Z 000000018006e6c8     insertShapeUtilsCore.obj
 0002:0000a6d0       $unwind$??1?$DrawAnyLine@NNHHNNEH@@UEAA@XZ 000000018006e6d0     insertShapeUtilsCore.obj
 0002:0000a6d8       $unwind$?ProcessStep@?$DrawAnyLine@NNHHNNEH@@UEAAXXZ 000000018006e6d8     insertShapeUtilsCore.obj
 0002:0000a6e0       $unwind$??_G?$DrawAnyLine@NNHHNNEH@@UEAAPEAXI@Z 000000018006e6e0     insertShapeUtilsCore.obj
 0002:0000a6e8       $unwind$??0?$DrawAnyLine@NNHHNNEE@@QEAA@PEAN00HHH0HPEAHHH1EEE0HPEAE0011@Z 000000018006e6e8     insertShapeUtilsCore.obj
 0002:0000a6f0       $unwind$??1?$DrawAnyLine@NNHHNNEE@@UEAA@XZ 000000018006e6f0     insertShapeUtilsCore.obj
 0002:0000a6f8       $unwind$?ProcessStep@?$DrawAnyLine@NNHHNNEE@@UEAAXXZ 000000018006e6f8     insertShapeUtilsCore.obj
 0002:0000a700       $unwind$??_G?$DrawAnyLine@NNHHNNEE@@UEAAPEAXI@Z 000000018006e700     insertShapeUtilsCore.obj
 0002:0000a708       $unwind$??0?$DrawCircle@NNHHNNEHH@@QEAA@PEAN00HHH0HPEAHHH1EEE0HPEAE00@Z 000000018006e708     insertShapeUtilsCore.obj
 0002:0000a710       $unwind$?ProcessOneShape@?$DrawCircle@NNHHNNEHH@@QEAAXXZ 000000018006e710     insertShapeUtilsCore.obj
 0002:0000a718       $unwind$?ProcessOneShape@?$DrawCircle@NNHHNNEHH@@AEAAXHHHHH@Z 000000018006e718     insertShapeUtilsCore.obj
 0002:0000a720       $unwind$?DrawLineAndResetStates@?$DrawCircle@NNHHNNEHH@@AEAAXHHAEAH0H@Z 000000018006e720     insertShapeUtilsCore.obj
 0002:0000a728       $unwind$??1?$DrawCircle@NNHHNNEHH@@UEAA@XZ 000000018006e728     insertShapeUtilsCore.obj
 0002:0000a730       $unwind$??_G?$DrawCircle@NNHHNNEHH@@UEAAPEAXI@Z 000000018006e730     insertShapeUtilsCore.obj
 0002:0000a738       $unwind$??0?$DrawCircleAnySize@NNHHNNEHH@@QEAA@PEAN00HHH0HPEAHHH1EEE0HPEAE001@Z 000000018006e738     insertShapeUtilsCore.obj
 0002:0000a740       $unwind$??1?$DrawCircleAnySize@NNHHNNEHH@@UEAA@XZ 000000018006e740     insertShapeUtilsCore.obj
 0002:0000a748       $unwind$?ProcessStep@?$DrawCircleAnySize@NNHHNNEHH@@UEAAXXZ 000000018006e748     insertShapeUtilsCore.obj
 0002:0000a750       $unwind$??_G?$DrawCircleAnySize@NNHHNNEHH@@UEAAPEAXI@Z 000000018006e750     insertShapeUtilsCore.obj
 0002:0000a758       $unwind$??0?$DrawCircle@NNHHNNEEH@@QEAA@PEAN00HHH0HPEAHHH1EEE0HPEAE00@Z 000000018006e758     insertShapeUtilsCore.obj
 0002:0000a760       $unwind$?ProcessOneShape@?$DrawCircle@NNHHNNEEH@@QEAAXXZ 000000018006e760     insertShapeUtilsCore.obj
 0002:0000a768       $unwind$?ProcessOneShape@?$DrawCircle@NNHHNNEEH@@AEAAXHHHEH@Z 000000018006e768     insertShapeUtilsCore.obj
 0002:0000a770       $unwind$?DrawLineAndResetStates@?$DrawCircle@NNHHNNEEH@@AEAAXHHAEAH0H@Z 000000018006e770     insertShapeUtilsCore.obj
 0002:0000a778       $unwind$??1?$DrawCircle@NNHHNNEEH@@UEAA@XZ 000000018006e778     insertShapeUtilsCore.obj
 0002:0000a780       $unwind$??_G?$DrawCircle@NNHHNNEEH@@UEAAPEAXI@Z 000000018006e780     insertShapeUtilsCore.obj
 0002:0000a788       $unwind$??0?$DrawCircleAnySize@NNHHNNEEH@@QEAA@PEAN00HHH0HPEAHHH1EEE0HPEAE001@Z 000000018006e788     insertShapeUtilsCore.obj
 0002:0000a790       $unwind$??1?$DrawCircleAnySize@NNHHNNEEH@@UEAA@XZ 000000018006e790     insertShapeUtilsCore.obj
 0002:0000a798       $unwind$?ProcessStep@?$DrawCircleAnySize@NNHHNNEEH@@UEAAXXZ 000000018006e798     insertShapeUtilsCore.obj
 0002:0000a7a0       $unwind$??_G?$DrawCircleAnySize@NNHHNNEEH@@UEAAPEAXI@Z 000000018006e7a0     insertShapeUtilsCore.obj
 0002:0000a7a8       $unwind$??0?$DrawCircle@NNHHNNEHE@@QEAA@PEAN00HHH0HPEAHHH1EEE0HPEAE00@Z 000000018006e7a8     insertShapeUtilsCore.obj
 0002:0000a7b0       $unwind$?ProcessOneShape@?$DrawCircle@NNHHNNEHE@@QEAAXXZ 000000018006e7b0     insertShapeUtilsCore.obj
 0002:0000a7b8       $unwind$?ProcessOneShape@?$DrawCircle@NNHHNNEHE@@AEAAXHHHHE@Z 000000018006e7b8     insertShapeUtilsCore.obj
 0002:0000a7c0       $unwind$??1?$DrawCircle@NNHHNNEHE@@UEAA@XZ 000000018006e7c0     insertShapeUtilsCore.obj
 0002:0000a7c8       $unwind$??_G?$DrawCircle@NNHHNNEHE@@UEAAPEAXI@Z 000000018006e7c8     insertShapeUtilsCore.obj
 0002:0000a7d0       $unwind$??0?$DrawCircleAnySize@NNHHNNEHE@@QEAA@PEAN00HHH0HPEAHHH1EEE0HPEAE001@Z 000000018006e7d0     insertShapeUtilsCore.obj
 0002:0000a7d8       $unwind$??1?$DrawCircleAnySize@NNHHNNEHE@@UEAA@XZ 000000018006e7d8     insertShapeUtilsCore.obj
 0002:0000a7e0       $unwind$?ProcessStep@?$DrawCircleAnySize@NNHHNNEHE@@UEAAXXZ 000000018006e7e0     insertShapeUtilsCore.obj
 0002:0000a7e8       $unwind$??_G?$DrawCircleAnySize@NNHHNNEHE@@UEAAPEAXI@Z 000000018006e7e8     insertShapeUtilsCore.obj
 0002:0000a7f0       $unwind$??0?$DrawCircle@NNHHNNEEE@@QEAA@PEAN00HHH0HPEAHHH1EEE0HPEAE00@Z 000000018006e7f0     insertShapeUtilsCore.obj
 0002:0000a7f8       $unwind$?ProcessOneShape@?$DrawCircle@NNHHNNEEE@@QEAAXXZ 000000018006e7f8     insertShapeUtilsCore.obj
 0002:0000a800       $unwind$?ProcessOneShape@?$DrawCircle@NNHHNNEEE@@AEAAXHHHEE@Z 000000018006e800     insertShapeUtilsCore.obj
 0002:0000a808       $unwind$?ProcessOneShape@?$DrawCircle@NNHHNNEEE@@AEAAXHHHEH@Z 000000018006e808     insertShapeUtilsCore.obj
 0002:0000a810       $unwind$?DrawLineAndResetStates@?$DrawCircle@NNHHNNEEE@@AEAAXHHAEAH0H@Z 000000018006e810     insertShapeUtilsCore.obj
 0002:0000a818       $unwind$??1?$DrawCircle@NNHHNNEEE@@UEAA@XZ 000000018006e818     insertShapeUtilsCore.obj
 0002:0000a820       $unwind$??_G?$DrawCircle@NNHHNNEEE@@UEAAPEAXI@Z 000000018006e820     insertShapeUtilsCore.obj
 0002:0000a828       $unwind$??0?$DrawCircleAnySize@NNHHNNEEE@@QEAA@PEAN00HHH0HPEAHHH1EEE0HPEAE001@Z 000000018006e828     insertShapeUtilsCore.obj
 0002:0000a830       $unwind$??1?$DrawCircleAnySize@NNHHNNEEE@@UEAA@XZ 000000018006e830     insertShapeUtilsCore.obj
 0002:0000a838       $unwind$?ProcessStep@?$DrawCircleAnySize@NNHHNNEEE@@UEAAXXZ 000000018006e838     insertShapeUtilsCore.obj
 0002:0000a840       $unwind$??_G?$DrawCircleAnySize@NNHHNNEEE@@UEAAPEAXI@Z 000000018006e840     insertShapeUtilsCore.obj
 0002:0000a848       $unwind$??0?$DrawCommon@EEHHMMEH@@QEAA@PEAE00HHH0HPEAHHH1EEEPEAMH002@Z 000000018006e848     insertShapeUtilsCore.obj
 0002:0000a858       $stateUnwindMap$??0?$DrawCommon@EEHHMMEH@@QEAA@PEAE00HHH0HPEAHHH1EEEPEAMH002@Z 000000018006e858     insertShapeUtilsCore.obj
 0002:0000a860       $ip2state$??0?$DrawCommon@EEHHMMEH@@QEAA@PEAE00HHH0HPEAHHH1EEEPEAMH002@Z 000000018006e860     insertShapeUtilsCore.obj
 0002:0000a878       $unwind$?dtor$0@?0???0?$DrawCommon@EEHHMMEH@@QEAA@PEAE00HHH0HPEAHHH1EEEPEAMH002@Z@4HA 000000018006e878     insertShapeUtilsCore.obj
 0002:0000a880       $unwind$??1?$DrawCommon@EEHHMMEH@@UEAA@XZ 000000018006e880     insertShapeUtilsCore.obj
 0002:0000a888       $unwind$?CleanUp@?$DrawCommon@EEHHMMEH@@UEAAXXZ 000000018006e888     insertShapeUtilsCore.obj
 0002:0000a890       $unwind$?UpdateImageBoundary@?$DrawCommon@EEHHMMEH@@UEAAXHH@Z 000000018006e890     insertShapeUtilsCore.obj
 0002:0000a898       $unwind$?UpdateViewPort@?$DrawCommon@EEHHMMEH@@UEAAXPEAH@Z 000000018006e898     insertShapeUtilsCore.obj
 0002:0000a8a0       $unwind$?UpdateFillColorOpacity@?$DrawCommon@EEHHMMEH@@UEAAXE@Z 000000018006e8a0     insertShapeUtilsCore.obj
 0002:0000a8a8       $unwind$?MoveToNextFillColor@?$DrawCommon@EEHHMMEH@@IEAAXXZ 000000018006e8a8     insertShapeUtilsCore.obj
 0002:0000a8b0       $unwind$?MoveToNextOpacity@?$DrawCommon@EEHHMMEH@@IEAAXXZ 000000018006e8b0     insertShapeUtilsCore.obj
 0002:0000a8b8       $unwind$?PlotSubPixels@?$DrawCommon@EEHHMMEH@@IEAAXHHHHH@Z 000000018006e8b8     insertShapeUtilsCore.obj
 0002:0000a8c0       $unwind$?PlotVerticalLine@?$DrawCommon@EEHHMMEH@@IEAAXHHHHH@Z 000000018006e8c0     insertShapeUtilsCore.obj
 0002:0000a8c8       $unwind$?PlotVerticalLineCheckRange@?$DrawCommon@EEHHMMEH@@IEAAXHHHHH@Z 000000018006e8c8     insertShapeUtilsCore.obj
 0002:0000a8d0       $unwind$?CountSubPixel@?$DrawCommon@EEHHMMEH@@IEAAXHHHHAEAH0HH@Z 000000018006e8d0     insertShapeUtilsCore.obj
 0002:0000a8d8       $unwind$?PlotVerticalLine@?$DrawCommon@EEHHMMEH@@AEAAXHHHHHE@Z 000000018006e8d8     insertShapeUtilsCore.obj
 0002:0000a8e0       $unwind$?PlotVerticalLineOneColor@?$DrawCommon@EEHHMMEH@@AEAAXPEAEHHHHH@Z 000000018006e8e0     insertShapeUtilsCore.obj
 0002:0000a8e8       $unwind$?PlotSubPixels@?$DrawCommon@EEHHMMEH@@AEAAXHHHHHE@Z 000000018006e8e8     insertShapeUtilsCore.obj
 0002:0000a8f0       $unwind$?PlotSubPixelsOneColor@?$DrawCommon@EEHHMMEH@@AEAAXPEAEHHHHH@Z 000000018006e8f0     insertShapeUtilsCore.obj
 0002:0000a8f8       $unwind$?PlotOneSubPixelOneColor@?$DrawCommon@EEHHMMEH@@AEAAXPEAEHEHH@Z 000000018006e8f8     insertShapeUtilsCore.obj
 0002:0000a900       $unwind$?IsMoreClr@?$DrawCommon@EEHHMMEH@@AEAAHH@Z 000000018006e900     insertShapeUtilsCore.obj
 0002:0000a908       $unwind$??_G?$DrawCommon@EEHHMMEH@@UEAAPEAXI@Z 000000018006e908     insertShapeUtilsCore.obj
 0002:0000a910       $unwind$??0?$DrawFilledRectangle@EEHHMME@@QEAA@PEAE00HHH0HPEAHHH1EEEPEAMH002@Z 000000018006e910     insertShapeUtilsCore.obj
 0002:0000a918       $unwind$?ProcessOneShape@?$DrawFilledRectangle@EEHHMME@@QEAAXXZ 000000018006e918     insertShapeUtilsCore.obj
 0002:0000a928       $unwind$??1?$DrawFilledRectangle@EEHHMME@@UEAA@XZ 000000018006e928     insertShapeUtilsCore.obj
 0002:0000a930       $unwind$??_G?$DrawFilledRectangle@EEHHMME@@UEAAPEAXI@Z 000000018006e930     insertShapeUtilsCore.obj
 0002:0000a938       $unwind$??0?$DrawFilledRectangleAnySize@EEHHMME@@QEAA@PEAE00HHH0HPEAHHH1EEEPEAMH002PEBH@Z 000000018006e938     insertShapeUtilsCore.obj
 0002:0000a940       $unwind$??1?$DrawFilledRectangleAnySize@EEHHMME@@UEAA@XZ 000000018006e940     insertShapeUtilsCore.obj
 0002:0000a948       $unwind$?ProcessStep@?$DrawFilledRectangleAnySize@EEHHMME@@UEAAXXZ 000000018006e948     insertShapeUtilsCore.obj
 0002:0000a950       $unwind$??_G?$DrawFilledRectangleAnySize@EEHHMME@@UEAAPEAXI@Z 000000018006e950     insertShapeUtilsCore.obj
 0002:0000a958       $unwind$??0?$DrawCommon@EEHHMMEE@@QEAA@PEAE00HHH0HPEAHHH1EEEPEAMH002@Z 000000018006e958     insertShapeUtilsCore.obj
 0002:0000a968       $stateUnwindMap$??0?$DrawCommon@EEHHMMEE@@QEAA@PEAE00HHH0HPEAHHH1EEEPEAMH002@Z 000000018006e968     insertShapeUtilsCore.obj
 0002:0000a970       $ip2state$??0?$DrawCommon@EEHHMMEE@@QEAA@PEAE00HHH0HPEAHHH1EEEPEAMH002@Z 000000018006e970     insertShapeUtilsCore.obj
 0002:0000a988       $unwind$?dtor$0@?0???0?$DrawCommon@EEHHMMEE@@QEAA@PEAE00HHH0HPEAHHH1EEEPEAMH002@Z@4HA 000000018006e988     insertShapeUtilsCore.obj
 0002:0000a990       $unwind$??1?$DrawCommon@EEHHMMEE@@UEAA@XZ 000000018006e990     insertShapeUtilsCore.obj
 0002:0000a998       $unwind$?CleanUp@?$DrawCommon@EEHHMMEE@@UEAAXXZ 000000018006e998     insertShapeUtilsCore.obj
 0002:0000a9a0       $unwind$?UpdateImageBoundary@?$DrawCommon@EEHHMMEE@@UEAAXHH@Z 000000018006e9a0     insertShapeUtilsCore.obj
 0002:0000a9a8       $unwind$?UpdateViewPort@?$DrawCommon@EEHHMMEE@@UEAAXPEAH@Z 000000018006e9a8     insertShapeUtilsCore.obj
 0002:0000a9b0       $unwind$?UpdateFillColorOpacity@?$DrawCommon@EEHHMMEE@@UEAAXE@Z 000000018006e9b0     insertShapeUtilsCore.obj
 0002:0000a9b8       $unwind$?MoveToNextFillColor@?$DrawCommon@EEHHMMEE@@IEAAXXZ 000000018006e9b8     insertShapeUtilsCore.obj
 0002:0000a9c0       $unwind$?MoveToNextOpacity@?$DrawCommon@EEHHMMEE@@IEAAXXZ 000000018006e9c0     insertShapeUtilsCore.obj
 0002:0000a9c8       $unwind$?PlotOnePixel@?$DrawCommon@EEHHMMEE@@IEAAXHH@Z 000000018006e9c8     insertShapeUtilsCore.obj
 0002:0000a9d0       $unwind$?PlotPixelsCheckRange@?$DrawCommon@EEHHMMEE@@IEAAXHHH@Z 000000018006e9d0     insertShapeUtilsCore.obj
 0002:0000a9d8       $unwind$?PlotSubPixels@?$DrawCommon@EEHHMMEE@@IEAAXHHHHH@Z 000000018006e9d8     insertShapeUtilsCore.obj
 0002:0000a9e0       $unwind$?PlotSubPixels@?$DrawCommon@EEHHMMEE@@IEAAXHEHH@Z 000000018006e9e0     insertShapeUtilsCore.obj
 0002:0000a9e8       $unwind$?CountSubPixel@?$DrawCommon@EEHHMMEE@@IEAAXHHHHAEAH0HH@Z 000000018006e9e8     insertShapeUtilsCore.obj
 0002:0000a9f0       $unwind$?PlotOnePixel@?$DrawCommon@EEHHMMEE@@AEAAXHHE@Z 000000018006e9f0     insertShapeUtilsCore.obj
 0002:0000a9f8       $unwind$?PlotSubPixels@?$DrawCommon@EEHHMMEE@@AEAAXHHHHHE@Z 000000018006e9f8     insertShapeUtilsCore.obj
 0002:0000aa00       $unwind$?PlotSubPixelsOneColor@?$DrawCommon@EEHHMMEE@@AEAAXPEAEHHHHH@Z 000000018006ea00     insertShapeUtilsCore.obj
 0002:0000aa08       $unwind$?PlotSubPixels@?$DrawCommon@EEHHMMEE@@AEAAXHEHHE@Z 000000018006ea08     insertShapeUtilsCore.obj
 0002:0000aa10       $unwind$?PlotOneSubPixelOneColor@?$DrawCommon@EEHHMMEE@@AEAAXPEAEHEHH@Z 000000018006ea10     insertShapeUtilsCore.obj
 0002:0000aa18       $unwind$?IsMoreClr@?$DrawCommon@EEHHMMEE@@AEAAHH@Z 000000018006ea18     insertShapeUtilsCore.obj
 0002:0000aa20       $unwind$??_G?$DrawCommon@EEHHMMEE@@UEAAPEAXI@Z 000000018006ea20     insertShapeUtilsCore.obj
 0002:0000aa28       $unwind$??0?$DrawLine@EEHHMMEE@@QEAA@PEAE00HHH0HPEAHHH1EEEPEAMH002@Z 000000018006ea28     insertShapeUtilsCore.obj
 0002:0000aa30       $unwind$??1?$DrawLine@EEHHMMEE@@UEAA@XZ 000000018006ea30     insertShapeUtilsCore.obj
 0002:0000aa38       $unwind$?ProcessOneShape@?$DrawLine@EEHHMMEE@@QEAAXXZ 000000018006ea38     insertShapeUtilsCore.obj
 0002:0000aa40       $unwind$?ProcessOneShape@?$DrawLine@EEHHMMEE@@QEAAXE@Z 000000018006ea40     insertShapeUtilsCore.obj
 0002:0000aa50       $unwind$??_G?$DrawLine@EEHHMMEE@@UEAAPEAXI@Z 000000018006ea50     insertShapeUtilsCore.obj
 0002:0000aa58       $unwind$??0?$DrawMarkerLine@EEHHMMEE@@QEAA@PEAE00HHH0HPEAHHH1EEEPEAMH002@Z 000000018006ea58     insertShapeUtilsCore.obj
 0002:0000aa60       $unwind$?ProcessOneShape@?$DrawMarkerLine@EEHHMMEE@@QEAAXXZ 000000018006ea60     insertShapeUtilsCore.obj
 0002:0000aa68       $unwind$?ProcessOneShape@?$DrawMarkerLine@EEHHMMEE@@QEAAXE@Z 000000018006ea68     insertShapeUtilsCore.obj
 0002:0000aa78       $unwind$??1?$DrawMarkerLine@EEHHMMEE@@UEAA@XZ 000000018006ea78     insertShapeUtilsCore.obj
 0002:0000aa80       $unwind$??_G?$DrawMarkerLine@EEHHMMEE@@UEAAPEAXI@Z 000000018006ea80     insertShapeUtilsCore.obj
 0002:0000aa88       $unwind$??0?$DrawRectangleAnySize@EEHHMME@@QEAA@PEAE00HHH0HPEAHHH1EEEPEAMH0021@Z 000000018006ea88     insertShapeUtilsCore.obj
 0002:0000aa90       $unwind$??1?$DrawRectangleAnySize@EEHHMME@@UEAA@XZ 000000018006ea90     insertShapeUtilsCore.obj
 0002:0000aa98       $unwind$?ProcessStep@?$DrawRectangleAnySize@EEHHMME@@UEAAXXZ 000000018006ea98     insertShapeUtilsCore.obj
 0002:0000aaa0       $unwind$??_G?$DrawRectangleAnySize@EEHHMME@@UEAAPEAXI@Z 000000018006eaa0     insertShapeUtilsCore.obj
 0002:0000aaa8       $unwind$??0?$DrawFilledPolygon@EEHHMMEH@@QEAA@PEAE00HHH0HPEAHHH1EEEPEAMH002PEAV?$ScanLineBase@HHH@@11@Z 000000018006eaa8     insertShapeUtilsCore.obj
 0002:0000aab0       $unwind$??1?$DrawFilledPolygon@EEHHMMEH@@UEAA@XZ 000000018006eab0     insertShapeUtilsCore.obj
 0002:0000aab8       $unwind$?ProcessStep@?$DrawFilledPolygon@EEHHMMEH@@UEAAXXZ 000000018006eab8     insertShapeUtilsCore.obj
 0002:0000aac0       $unwind$?nearest@?$DrawFilledPolygon@EEHHMMEH@@AEAAHM@Z 000000018006eac0     insertShapeUtilsCore.obj
 0002:0000aac8       $unwind$?lclDSPFixptSqrt@?$DrawFilledPolygon@EEHHMMEH@@AEAAXAEAMM@Z 000000018006eac8     insertShapeUtilsCore.obj
 0002:0000aad0       $unwind$?getLineParams@?$DrawFilledPolygon@EEHHMMEH@@AEAAXHHHHHHPEAMAEAW4Paral_T@@@Z 000000018006ead0     insertShapeUtilsCore.obj
 0002:0000aad8       $unwind$?isValidPair@?$DrawFilledPolygon@EEHHMMEH@@AEAAEHHHHHHPEAM0W4Paral_T@@1@Z 000000018006ead8     insertShapeUtilsCore.obj
 0002:0000aae0       $unwind$?findPointOfIntersectionNormal@?$DrawFilledPolygon@EEHHMMEH@@AEAAXEPEAMAEAH1W4Paral_T@@@Z 000000018006eae0     insertShapeUtilsCore.obj
 0002:0000aae8       $unwind$?findPointOfIntersection@?$DrawFilledPolygon@EEHHMMEH@@AEAAXEPEAM0AEAH1W4Paral_T@@2HH@Z 000000018006eae8     insertShapeUtilsCore.obj
 0002:0000aaf0       $unwind$?is_RightOfLine_CtrToRef@?$DrawFilledPolygon@EEHHMMEH@@AEAAEUXY_T@@00@Z 000000018006eaf0     insertShapeUtilsCore.obj
 0002:0000aaf8       $unwind$?convertLinePts2PolygonPts@?$DrawFilledPolygon@EEHHMMEH@@AEAAXXZ 000000018006eaf8     insertShapeUtilsCore.obj
 0002:0000ab08       $unwind$?converPolygonPts2TwoPolygonPts@?$DrawFilledPolygon@EEHHMMEH@@AEAAXXZ 000000018006eb08     insertShapeUtilsCore.obj
 0002:0000ab18       $unwind$?ProcessStep@?$DrawFilledPolygon@EEHHMMEH@@AEAAXH@Z 000000018006eb18     insertShapeUtilsCore.obj
 0002:0000ab20       $unwind$??_G?$DrawFilledPolygon@EEHHMMEH@@UEAAPEAXI@Z 000000018006eb20     insertShapeUtilsCore.obj
 0002:0000ab28       $unwind$??0?$DrawFilledPolygon@EEHHMMEE@@QEAA@PEAE00HHH0HPEAHHH1EEEPEAMH002PEAV?$ScanLineBase@HHE@@11@Z 000000018006eb28     insertShapeUtilsCore.obj
 0002:0000ab30       $unwind$??1?$DrawFilledPolygon@EEHHMMEE@@UEAA@XZ 000000018006eb30     insertShapeUtilsCore.obj
 0002:0000ab38       $unwind$?ProcessStep@?$DrawFilledPolygon@EEHHMMEE@@UEAAXXZ 000000018006eb38     insertShapeUtilsCore.obj
 0002:0000ab40       $unwind$?nearest@?$DrawFilledPolygon@EEHHMMEE@@AEAAHM@Z 000000018006eb40     insertShapeUtilsCore.obj
 0002:0000ab48       $unwind$?lclDSPFixptSqrt@?$DrawFilledPolygon@EEHHMMEE@@AEAAXAEAMM@Z 000000018006eb48     insertShapeUtilsCore.obj
 0002:0000ab50       $unwind$?getLineParams@?$DrawFilledPolygon@EEHHMMEE@@AEAAXHHHHHHPEAMAEAW4Paral_T@@@Z 000000018006eb50     insertShapeUtilsCore.obj
 0002:0000ab58       $unwind$?isValidPair@?$DrawFilledPolygon@EEHHMMEE@@AEAAEHHHHHHPEAM0W4Paral_T@@1@Z 000000018006eb58     insertShapeUtilsCore.obj
 0002:0000ab60       $unwind$?findPointOfIntersectionNormal@?$DrawFilledPolygon@EEHHMMEE@@AEAAXEPEAMAEAH1W4Paral_T@@@Z 000000018006eb60     insertShapeUtilsCore.obj
 0002:0000ab68       $unwind$?findPointOfIntersection@?$DrawFilledPolygon@EEHHMMEE@@AEAAXEPEAM0AEAH1W4Paral_T@@2HH@Z 000000018006eb68     insertShapeUtilsCore.obj
 0002:0000ab70       $unwind$?is_RightOfLine_CtrToRef@?$DrawFilledPolygon@EEHHMMEE@@AEAAEUXY_T@@00@Z 000000018006eb70     insertShapeUtilsCore.obj
 0002:0000ab78       $unwind$?convertLinePts2PolygonPts@?$DrawFilledPolygon@EEHHMMEE@@AEAAXXZ 000000018006eb78     insertShapeUtilsCore.obj
 0002:0000ab88       $unwind$?converPolygonPts2TwoPolygonPts@?$DrawFilledPolygon@EEHHMMEE@@AEAAXXZ 000000018006eb88     insertShapeUtilsCore.obj
 0002:0000ab98       $unwind$?ProcessStep@?$DrawFilledPolygon@EEHHMMEE@@AEAAXE@Z 000000018006eb98     insertShapeUtilsCore.obj
 0002:0000aba0       $unwind$??_G?$DrawFilledPolygon@EEHHMMEE@@UEAAPEAXI@Z 000000018006eba0     insertShapeUtilsCore.obj
 0002:0000aba8       $unwind$??0?$DrawLine@EEHHMMEH@@QEAA@PEAE00HHH0HPEAHHH1EEEPEAMH002@Z 000000018006eba8     insertShapeUtilsCore.obj
 0002:0000abb0       $unwind$??1?$DrawLine@EEHHMMEH@@UEAA@XZ 000000018006ebb0     insertShapeUtilsCore.obj
 0002:0000abb8       $unwind$?ProcessOneShape@?$DrawLine@EEHHMMEH@@QEAAXXZ 000000018006ebb8     insertShapeUtilsCore.obj
 0002:0000abc0       $unwind$?ProcessOneShape@?$DrawLine@EEHHMMEH@@QEAAXH@Z 000000018006ebc0     insertShapeUtilsCore.obj
 0002:0000abd0       $unwind$??_G?$DrawLine@EEHHMMEH@@UEAAPEAXI@Z 000000018006ebd0     insertShapeUtilsCore.obj
 0002:0000abd8       $unwind$??0?$DrawPolygon@EEHHMMEH@@QEAA@PEAE00HHH0HPEAHHH1EEEPEAMH00211@Z 000000018006ebd8     insertShapeUtilsCore.obj
 0002:0000abe0       $unwind$??1?$DrawPolygon@EEHHMMEH@@UEAA@XZ 000000018006ebe0     insertShapeUtilsCore.obj
 0002:0000abe8       $unwind$?ProcessStep@?$DrawPolygon@EEHHMMEH@@UEAAXXZ 000000018006ebe8     insertShapeUtilsCore.obj
 0002:0000abf0       $unwind$??_G?$DrawPolygon@EEHHMMEH@@UEAAPEAXI@Z 000000018006ebf0     insertShapeUtilsCore.obj
 0002:0000abf8       $unwind$??0?$DrawPolygon@EEHHMMEE@@QEAA@PEAE00HHH0HPEAHHH1EEEPEAMH00211@Z 000000018006ebf8     insertShapeUtilsCore.obj
 0002:0000ac00       $unwind$??1?$DrawPolygon@EEHHMMEE@@UEAA@XZ 000000018006ec00     insertShapeUtilsCore.obj
 0002:0000ac08       $unwind$?ProcessStep@?$DrawPolygon@EEHHMMEE@@UEAAXXZ 000000018006ec08     insertShapeUtilsCore.obj
 0002:0000ac10       $unwind$??_G?$DrawPolygon@EEHHMMEE@@UEAAPEAXI@Z 000000018006ec10     insertShapeUtilsCore.obj
 0002:0000ac18       $unwind$??0?$DrawAnyLine@EEHHMMEH@@QEAA@PEAE00HHH0HPEAHHH1EEEPEAMH00211@Z 000000018006ec18     insertShapeUtilsCore.obj
 0002:0000ac20       $unwind$??1?$DrawAnyLine@EEHHMMEH@@UEAA@XZ 000000018006ec20     insertShapeUtilsCore.obj
 0002:0000ac28       $unwind$?ProcessStep@?$DrawAnyLine@EEHHMMEH@@UEAAXXZ 000000018006ec28     insertShapeUtilsCore.obj
 0002:0000ac30       $unwind$??_G?$DrawAnyLine@EEHHMMEH@@UEAAPEAXI@Z 000000018006ec30     insertShapeUtilsCore.obj
 0002:0000ac38       $unwind$??0?$DrawAnyLine@EEHHMMEE@@QEAA@PEAE00HHH0HPEAHHH1EEEPEAMH00211@Z 000000018006ec38     insertShapeUtilsCore.obj
 0002:0000ac40       $unwind$??1?$DrawAnyLine@EEHHMMEE@@UEAA@XZ 000000018006ec40     insertShapeUtilsCore.obj
 0002:0000ac48       $unwind$?ProcessStep@?$DrawAnyLine@EEHHMMEE@@UEAAXXZ 000000018006ec48     insertShapeUtilsCore.obj
 0002:0000ac50       $unwind$??_G?$DrawAnyLine@EEHHMMEE@@UEAAPEAXI@Z 000000018006ec50     insertShapeUtilsCore.obj
 0002:0000ac58       $unwind$??0?$DrawCircle@EEHHMMEHH@@QEAA@PEAE00HHH0HPEAHHH1EEEPEAMH002@Z 000000018006ec58     insertShapeUtilsCore.obj
 0002:0000ac60       $unwind$?ProcessOneShape@?$DrawCircle@EEHHMMEHH@@QEAAXXZ 000000018006ec60     insertShapeUtilsCore.obj
 0002:0000ac68       $unwind$?ProcessOneShape@?$DrawCircle@EEHHMMEHH@@AEAAXHHHHH@Z 000000018006ec68     insertShapeUtilsCore.obj
 0002:0000ac70       $unwind$?DrawLineAndResetStates@?$DrawCircle@EEHHMMEHH@@AEAAXHHAEAH0H@Z 000000018006ec70     insertShapeUtilsCore.obj
 0002:0000ac78       $unwind$??1?$DrawCircle@EEHHMMEHH@@UEAA@XZ 000000018006ec78     insertShapeUtilsCore.obj
 0002:0000ac80       $unwind$??_G?$DrawCircle@EEHHMMEHH@@UEAAPEAXI@Z 000000018006ec80     insertShapeUtilsCore.obj
 0002:0000ac88       $unwind$??0?$DrawCircleAnySize@EEHHMMEHH@@QEAA@PEAE00HHH0HPEAHHH1EEEPEAMH0021@Z 000000018006ec88     insertShapeUtilsCore.obj
 0002:0000ac90       $unwind$??1?$DrawCircleAnySize@EEHHMMEHH@@UEAA@XZ 000000018006ec90     insertShapeUtilsCore.obj
 0002:0000ac98       $unwind$?ProcessStep@?$DrawCircleAnySize@EEHHMMEHH@@UEAAXXZ 000000018006ec98     insertShapeUtilsCore.obj
 0002:0000aca0       $unwind$??_G?$DrawCircleAnySize@EEHHMMEHH@@UEAAPEAXI@Z 000000018006eca0     insertShapeUtilsCore.obj
 0002:0000aca8       $unwind$??0?$DrawCircle@EEHHMMEEH@@QEAA@PEAE00HHH0HPEAHHH1EEEPEAMH002@Z 000000018006eca8     insertShapeUtilsCore.obj
 0002:0000acb0       $unwind$?ProcessOneShape@?$DrawCircle@EEHHMMEEH@@QEAAXXZ 000000018006ecb0     insertShapeUtilsCore.obj
 0002:0000acb8       $unwind$?ProcessOneShape@?$DrawCircle@EEHHMMEEH@@AEAAXHHHEH@Z 000000018006ecb8     insertShapeUtilsCore.obj
 0002:0000acc0       $unwind$?DrawLineAndResetStates@?$DrawCircle@EEHHMMEEH@@AEAAXHHAEAH0H@Z 000000018006ecc0     insertShapeUtilsCore.obj
 0002:0000acc8       $unwind$??1?$DrawCircle@EEHHMMEEH@@UEAA@XZ 000000018006ecc8     insertShapeUtilsCore.obj
 0002:0000acd0       $unwind$??_G?$DrawCircle@EEHHMMEEH@@UEAAPEAXI@Z 000000018006ecd0     insertShapeUtilsCore.obj
 0002:0000acd8       $unwind$??0?$DrawCircleAnySize@EEHHMMEEH@@QEAA@PEAE00HHH0HPEAHHH1EEEPEAMH0021@Z 000000018006ecd8     insertShapeUtilsCore.obj
 0002:0000ace0       $unwind$??1?$DrawCircleAnySize@EEHHMMEEH@@UEAA@XZ 000000018006ece0     insertShapeUtilsCore.obj
 0002:0000ace8       $unwind$?ProcessStep@?$DrawCircleAnySize@EEHHMMEEH@@UEAAXXZ 000000018006ece8     insertShapeUtilsCore.obj
 0002:0000acf0       $unwind$??_G?$DrawCircleAnySize@EEHHMMEEH@@UEAAPEAXI@Z 000000018006ecf0     insertShapeUtilsCore.obj
 0002:0000acf8       $unwind$??0?$DrawCircle@EEHHMMEHE@@QEAA@PEAE00HHH0HPEAHHH1EEEPEAMH002@Z 000000018006ecf8     insertShapeUtilsCore.obj
 0002:0000ad00       $unwind$?ProcessOneShape@?$DrawCircle@EEHHMMEHE@@QEAAXXZ 000000018006ed00     insertShapeUtilsCore.obj
 0002:0000ad08       $unwind$?ProcessOneShape@?$DrawCircle@EEHHMMEHE@@AEAAXHHHHE@Z 000000018006ed08     insertShapeUtilsCore.obj
 0002:0000ad10       $unwind$??1?$DrawCircle@EEHHMMEHE@@UEAA@XZ 000000018006ed10     insertShapeUtilsCore.obj
 0002:0000ad18       $unwind$??_G?$DrawCircle@EEHHMMEHE@@UEAAPEAXI@Z 000000018006ed18     insertShapeUtilsCore.obj
 0002:0000ad20       $unwind$??0?$DrawCircleAnySize@EEHHMMEHE@@QEAA@PEAE00HHH0HPEAHHH1EEEPEAMH0021@Z 000000018006ed20     insertShapeUtilsCore.obj
 0002:0000ad28       $unwind$??1?$DrawCircleAnySize@EEHHMMEHE@@UEAA@XZ 000000018006ed28     insertShapeUtilsCore.obj
 0002:0000ad30       $unwind$?ProcessStep@?$DrawCircleAnySize@EEHHMMEHE@@UEAAXXZ 000000018006ed30     insertShapeUtilsCore.obj
 0002:0000ad38       $unwind$??_G?$DrawCircleAnySize@EEHHMMEHE@@UEAAPEAXI@Z 000000018006ed38     insertShapeUtilsCore.obj
 0002:0000ad40       $unwind$??0?$DrawCircle@EEHHMMEEE@@QEAA@PEAE00HHH0HPEAHHH1EEEPEAMH002@Z 000000018006ed40     insertShapeUtilsCore.obj
 0002:0000ad48       $unwind$?ProcessOneShape@?$DrawCircle@EEHHMMEEE@@QEAAXXZ 000000018006ed48     insertShapeUtilsCore.obj
 0002:0000ad50       $unwind$?ProcessOneShape@?$DrawCircle@EEHHMMEEE@@AEAAXHHHEE@Z 000000018006ed50     insertShapeUtilsCore.obj
 0002:0000ad58       $unwind$?ProcessOneShape@?$DrawCircle@EEHHMMEEE@@AEAAXHHHEH@Z 000000018006ed58     insertShapeUtilsCore.obj
 0002:0000ad60       $unwind$?DrawLineAndResetStates@?$DrawCircle@EEHHMMEEE@@AEAAXHHAEAH0H@Z 000000018006ed60     insertShapeUtilsCore.obj
 0002:0000ad68       $unwind$??1?$DrawCircle@EEHHMMEEE@@UEAA@XZ 000000018006ed68     insertShapeUtilsCore.obj
 0002:0000ad70       $unwind$??_G?$DrawCircle@EEHHMMEEE@@UEAAPEAXI@Z 000000018006ed70     insertShapeUtilsCore.obj
 0002:0000ad78       $unwind$??0?$DrawCircleAnySize@EEHHMMEEE@@QEAA@PEAE00HHH0HPEAHHH1EEEPEAMH0021@Z 000000018006ed78     insertShapeUtilsCore.obj
 0002:0000ad80       $unwind$??1?$DrawCircleAnySize@EEHHMMEEE@@UEAA@XZ 000000018006ed80     insertShapeUtilsCore.obj
 0002:0000ad88       $unwind$?ProcessStep@?$DrawCircleAnySize@EEHHMMEEE@@UEAAXXZ 000000018006ed88     insertShapeUtilsCore.obj
 0002:0000ad90       $unwind$??_G?$DrawCircleAnySize@EEHHMMEEE@@UEAAPEAXI@Z 000000018006ed90     insertShapeUtilsCore.obj
 0002:0000ad98       $unwind$??0?$DrawCommon@GGHHMMEH@@QEAA@PEAG00HHH0HPEAHHH1EEEPEAMHPEAE02@Z 000000018006ed98     insertShapeUtilsCore.obj
 0002:0000ada8       $stateUnwindMap$??0?$DrawCommon@GGHHMMEH@@QEAA@PEAG00HHH0HPEAHHH1EEEPEAMHPEAE02@Z 000000018006eda8     insertShapeUtilsCore.obj
 0002:0000adb0       $ip2state$??0?$DrawCommon@GGHHMMEH@@QEAA@PEAG00HHH0HPEAHHH1EEEPEAMHPEAE02@Z 000000018006edb0     insertShapeUtilsCore.obj
 0002:0000adc8       $unwind$?dtor$0@?0???0?$DrawCommon@GGHHMMEH@@QEAA@PEAG00HHH0HPEAHHH1EEEPEAMHPEAE02@Z@4HA 000000018006edc8     insertShapeUtilsCore.obj
 0002:0000add0       $unwind$??1?$DrawCommon@GGHHMMEH@@UEAA@XZ 000000018006edd0     insertShapeUtilsCore.obj
 0002:0000add8       $unwind$?CleanUp@?$DrawCommon@GGHHMMEH@@UEAAXXZ 000000018006edd8     insertShapeUtilsCore.obj
 0002:0000ade0       $unwind$?UpdateImageBoundary@?$DrawCommon@GGHHMMEH@@UEAAXHH@Z 000000018006ede0     insertShapeUtilsCore.obj
 0002:0000ade8       $unwind$?UpdateViewPort@?$DrawCommon@GGHHMMEH@@UEAAXPEAH@Z 000000018006ede8     insertShapeUtilsCore.obj
 0002:0000adf0       $unwind$?UpdateFillColorOpacity@?$DrawCommon@GGHHMMEH@@UEAAXE@Z 000000018006edf0     insertShapeUtilsCore.obj
 0002:0000adf8       $unwind$?MoveToNextFillColor@?$DrawCommon@GGHHMMEH@@IEAAXXZ 000000018006edf8     insertShapeUtilsCore.obj
 0002:0000ae00       $unwind$?MoveToNextOpacity@?$DrawCommon@GGHHMMEH@@IEAAXXZ 000000018006ee00     insertShapeUtilsCore.obj
 0002:0000ae08       $unwind$?PlotSubPixels@?$DrawCommon@GGHHMMEH@@IEAAXHHHHH@Z 000000018006ee08     insertShapeUtilsCore.obj
 0002:0000ae10       $unwind$?PlotVerticalLine@?$DrawCommon@GGHHMMEH@@IEAAXHHHHH@Z 000000018006ee10     insertShapeUtilsCore.obj
 0002:0000ae18       $unwind$?PlotVerticalLineCheckRange@?$DrawCommon@GGHHMMEH@@IEAAXHHHHH@Z 000000018006ee18     insertShapeUtilsCore.obj
 0002:0000ae20       $unwind$?CountSubPixel@?$DrawCommon@GGHHMMEH@@IEAAXHHHHAEAH0HH@Z 000000018006ee20     insertShapeUtilsCore.obj
 0002:0000ae28       $unwind$?PlotVerticalLine@?$DrawCommon@GGHHMMEH@@AEAAXHHHHHE@Z 000000018006ee28     insertShapeUtilsCore.obj
 0002:0000ae30       $unwind$?PlotVerticalLineOneColor@?$DrawCommon@GGHHMMEH@@AEAAXPEAGHHHHH@Z 000000018006ee30     insertShapeUtilsCore.obj
 0002:0000ae38       $unwind$?PlotSubPixels@?$DrawCommon@GGHHMMEH@@AEAAXHHHHHE@Z 000000018006ee38     insertShapeUtilsCore.obj
 0002:0000ae40       $unwind$?PlotSubPixelsOneColor@?$DrawCommon@GGHHMMEH@@AEAAXPEAGHHHHH@Z 000000018006ee40     insertShapeUtilsCore.obj
 0002:0000ae48       $unwind$?PlotOneSubPixelOneColor@?$DrawCommon@GGHHMMEH@@AEAAXPEAGHEHH@Z 000000018006ee48     insertShapeUtilsCore.obj
 0002:0000ae50       $unwind$?IsMoreClr@?$DrawCommon@GGHHMMEH@@AEAAHH@Z 000000018006ee50     insertShapeUtilsCore.obj
 0002:0000ae58       $unwind$??_G?$DrawCommon@GGHHMMEH@@UEAAPEAXI@Z 000000018006ee58     insertShapeUtilsCore.obj
 0002:0000ae60       $unwind$??0?$DrawFilledRectangle@GGHHMME@@QEAA@PEAG00HHH0HPEAHHH1EEEPEAMHPEAE02@Z 000000018006ee60     insertShapeUtilsCore.obj
 0002:0000ae68       $unwind$?ProcessOneShape@?$DrawFilledRectangle@GGHHMME@@QEAAXXZ 000000018006ee68     insertShapeUtilsCore.obj
 0002:0000ae78       $unwind$??1?$DrawFilledRectangle@GGHHMME@@UEAA@XZ 000000018006ee78     insertShapeUtilsCore.obj
 0002:0000ae80       $unwind$??_G?$DrawFilledRectangle@GGHHMME@@UEAAPEAXI@Z 000000018006ee80     insertShapeUtilsCore.obj
 0002:0000ae88       $unwind$??0?$DrawFilledRectangleAnySize@GGHHMME@@QEAA@PEAG00HHH0HPEAHHH1EEEPEAMHPEAE02PEBH@Z 000000018006ee88     insertShapeUtilsCore.obj
 0002:0000ae90       $unwind$??1?$DrawFilledRectangleAnySize@GGHHMME@@UEAA@XZ 000000018006ee90     insertShapeUtilsCore.obj
 0002:0000ae98       $unwind$?ProcessStep@?$DrawFilledRectangleAnySize@GGHHMME@@UEAAXXZ 000000018006ee98     insertShapeUtilsCore.obj
 0002:0000aea0       $unwind$??_G?$DrawFilledRectangleAnySize@GGHHMME@@UEAAPEAXI@Z 000000018006eea0     insertShapeUtilsCore.obj
 0002:0000aea8       $unwind$??0?$DrawCommon@GGHHMMEE@@QEAA@PEAG00HHH0HPEAHHH1EEEPEAMHPEAE02@Z 000000018006eea8     insertShapeUtilsCore.obj
 0002:0000aeb8       $stateUnwindMap$??0?$DrawCommon@GGHHMMEE@@QEAA@PEAG00HHH0HPEAHHH1EEEPEAMHPEAE02@Z 000000018006eeb8     insertShapeUtilsCore.obj
 0002:0000aec0       $ip2state$??0?$DrawCommon@GGHHMMEE@@QEAA@PEAG00HHH0HPEAHHH1EEEPEAMHPEAE02@Z 000000018006eec0     insertShapeUtilsCore.obj
 0002:0000aed8       $unwind$?dtor$0@?0???0?$DrawCommon@GGHHMMEE@@QEAA@PEAG00HHH0HPEAHHH1EEEPEAMHPEAE02@Z@4HA 000000018006eed8     insertShapeUtilsCore.obj
 0002:0000aee0       $unwind$??1?$DrawCommon@GGHHMMEE@@UEAA@XZ 000000018006eee0     insertShapeUtilsCore.obj
 0002:0000aee8       $unwind$?CleanUp@?$DrawCommon@GGHHMMEE@@UEAAXXZ 000000018006eee8     insertShapeUtilsCore.obj
 0002:0000aef0       $unwind$?UpdateImageBoundary@?$DrawCommon@GGHHMMEE@@UEAAXHH@Z 000000018006eef0     insertShapeUtilsCore.obj
 0002:0000aef8       $unwind$?UpdateViewPort@?$DrawCommon@GGHHMMEE@@UEAAXPEAH@Z 000000018006eef8     insertShapeUtilsCore.obj
 0002:0000af00       $unwind$?UpdateFillColorOpacity@?$DrawCommon@GGHHMMEE@@UEAAXE@Z 000000018006ef00     insertShapeUtilsCore.obj
 0002:0000af08       $unwind$?MoveToNextFillColor@?$DrawCommon@GGHHMMEE@@IEAAXXZ 000000018006ef08     insertShapeUtilsCore.obj
 0002:0000af10       $unwind$?MoveToNextOpacity@?$DrawCommon@GGHHMMEE@@IEAAXXZ 000000018006ef10     insertShapeUtilsCore.obj
 0002:0000af18       $unwind$?PlotOnePixel@?$DrawCommon@GGHHMMEE@@IEAAXHH@Z 000000018006ef18     insertShapeUtilsCore.obj
 0002:0000af20       $unwind$?PlotPixelsCheckRange@?$DrawCommon@GGHHMMEE@@IEAAXHHH@Z 000000018006ef20     insertShapeUtilsCore.obj
 0002:0000af28       $unwind$?PlotSubPixels@?$DrawCommon@GGHHMMEE@@IEAAXHHHHH@Z 000000018006ef28     insertShapeUtilsCore.obj
 0002:0000af30       $unwind$?PlotSubPixels@?$DrawCommon@GGHHMMEE@@IEAAXHEHH@Z 000000018006ef30     insertShapeUtilsCore.obj
 0002:0000af38       $unwind$?CountSubPixel@?$DrawCommon@GGHHMMEE@@IEAAXHHHHAEAH0HH@Z 000000018006ef38     insertShapeUtilsCore.obj
 0002:0000af40       $unwind$?PlotOnePixel@?$DrawCommon@GGHHMMEE@@AEAAXHHE@Z 000000018006ef40     insertShapeUtilsCore.obj
 0002:0000af48       $unwind$?PlotSubPixels@?$DrawCommon@GGHHMMEE@@AEAAXHHHHHE@Z 000000018006ef48     insertShapeUtilsCore.obj
 0002:0000af50       $unwind$?PlotSubPixelsOneColor@?$DrawCommon@GGHHMMEE@@AEAAXPEAGHHHHH@Z 000000018006ef50     insertShapeUtilsCore.obj
 0002:0000af58       $unwind$?PlotSubPixels@?$DrawCommon@GGHHMMEE@@AEAAXHEHHE@Z 000000018006ef58     insertShapeUtilsCore.obj
 0002:0000af60       $unwind$?PlotOneSubPixelOneColor@?$DrawCommon@GGHHMMEE@@AEAAXPEAGHEHH@Z 000000018006ef60     insertShapeUtilsCore.obj
 0002:0000af68       $unwind$?IsMoreClr@?$DrawCommon@GGHHMMEE@@AEAAHH@Z 000000018006ef68     insertShapeUtilsCore.obj
 0002:0000af70       $unwind$??_G?$DrawCommon@GGHHMMEE@@UEAAPEAXI@Z 000000018006ef70     insertShapeUtilsCore.obj
 0002:0000af78       $unwind$??0?$DrawLine@GGHHMMEE@@QEAA@PEAG00HHH0HPEAHHH1EEEPEAMHPEAE02@Z 000000018006ef78     insertShapeUtilsCore.obj
 0002:0000af80       $unwind$??1?$DrawLine@GGHHMMEE@@UEAA@XZ 000000018006ef80     insertShapeUtilsCore.obj
 0002:0000af88       $unwind$?ProcessOneShape@?$DrawLine@GGHHMMEE@@QEAAXXZ 000000018006ef88     insertShapeUtilsCore.obj
 0002:0000af90       $unwind$?ProcessOneShape@?$DrawLine@GGHHMMEE@@QEAAXE@Z 000000018006ef90     insertShapeUtilsCore.obj
 0002:0000afa0       $unwind$??_G?$DrawLine@GGHHMMEE@@UEAAPEAXI@Z 000000018006efa0     insertShapeUtilsCore.obj
 0002:0000afa8       $unwind$??0?$DrawMarkerLine@GGHHMMEE@@QEAA@PEAG00HHH0HPEAHHH1EEEPEAMHPEAE02@Z 000000018006efa8     insertShapeUtilsCore.obj
 0002:0000afb0       $unwind$?ProcessOneShape@?$DrawMarkerLine@GGHHMMEE@@QEAAXXZ 000000018006efb0     insertShapeUtilsCore.obj
 0002:0000afb8       $unwind$?ProcessOneShape@?$DrawMarkerLine@GGHHMMEE@@QEAAXE@Z 000000018006efb8     insertShapeUtilsCore.obj
 0002:0000afc8       $unwind$??1?$DrawMarkerLine@GGHHMMEE@@UEAA@XZ 000000018006efc8     insertShapeUtilsCore.obj
 0002:0000afd0       $unwind$??_G?$DrawMarkerLine@GGHHMMEE@@UEAAPEAXI@Z 000000018006efd0     insertShapeUtilsCore.obj
 0002:0000afd8       $unwind$??0?$DrawRectangleAnySize@GGHHMME@@QEAA@PEAG00HHH0HPEAHHH1EEEPEAMHPEAE021@Z 000000018006efd8     insertShapeUtilsCore.obj
 0002:0000afe0       $unwind$??1?$DrawRectangleAnySize@GGHHMME@@UEAA@XZ 000000018006efe0     insertShapeUtilsCore.obj
 0002:0000afe8       $unwind$?ProcessStep@?$DrawRectangleAnySize@GGHHMME@@UEAAXXZ 000000018006efe8     insertShapeUtilsCore.obj
 0002:0000aff0       $unwind$??_G?$DrawRectangleAnySize@GGHHMME@@UEAAPEAXI@Z 000000018006eff0     insertShapeUtilsCore.obj
 0002:0000aff8       $unwind$??0?$DrawFilledPolygon@GGHHMMEH@@QEAA@PEAG00HHH0HPEAHHH1EEEPEAMHPEAE02PEAV?$ScanLineBase@HHH@@11@Z 000000018006eff8     insertShapeUtilsCore.obj
 0002:0000b000       $unwind$??1?$DrawFilledPolygon@GGHHMMEH@@UEAA@XZ 000000018006f000     insertShapeUtilsCore.obj
 0002:0000b008       $unwind$?ProcessStep@?$DrawFilledPolygon@GGHHMMEH@@UEAAXXZ 000000018006f008     insertShapeUtilsCore.obj
 0002:0000b010       $unwind$?nearest@?$DrawFilledPolygon@GGHHMMEH@@AEAAHM@Z 000000018006f010     insertShapeUtilsCore.obj
 0002:0000b018       $unwind$?lclDSPFixptSqrt@?$DrawFilledPolygon@GGHHMMEH@@AEAAXAEAMM@Z 000000018006f018     insertShapeUtilsCore.obj
 0002:0000b020       $unwind$?getLineParams@?$DrawFilledPolygon@GGHHMMEH@@AEAAXHHHHHHPEAMAEAW4Paral_T@@@Z 000000018006f020     insertShapeUtilsCore.obj
 0002:0000b028       $unwind$?isValidPair@?$DrawFilledPolygon@GGHHMMEH@@AEAAEHHHHHHPEAM0W4Paral_T@@1@Z 000000018006f028     insertShapeUtilsCore.obj
 0002:0000b030       $unwind$?findPointOfIntersectionNormal@?$DrawFilledPolygon@GGHHMMEH@@AEAAXEPEAMAEAH1W4Paral_T@@@Z 000000018006f030     insertShapeUtilsCore.obj
 0002:0000b038       $unwind$?findPointOfIntersection@?$DrawFilledPolygon@GGHHMMEH@@AEAAXEPEAM0AEAH1W4Paral_T@@2HH@Z 000000018006f038     insertShapeUtilsCore.obj
 0002:0000b040       $unwind$?is_RightOfLine_CtrToRef@?$DrawFilledPolygon@GGHHMMEH@@AEAAEUXY_T@@00@Z 000000018006f040     insertShapeUtilsCore.obj
 0002:0000b048       $unwind$?convertLinePts2PolygonPts@?$DrawFilledPolygon@GGHHMMEH@@AEAAXXZ 000000018006f048     insertShapeUtilsCore.obj
 0002:0000b058       $unwind$?converPolygonPts2TwoPolygonPts@?$DrawFilledPolygon@GGHHMMEH@@AEAAXXZ 000000018006f058     insertShapeUtilsCore.obj
 0002:0000b068       $unwind$?ProcessStep@?$DrawFilledPolygon@GGHHMMEH@@AEAAXH@Z 000000018006f068     insertShapeUtilsCore.obj
 0002:0000b070       $unwind$??_G?$DrawFilledPolygon@GGHHMMEH@@UEAAPEAXI@Z 000000018006f070     insertShapeUtilsCore.obj
 0002:0000b078       $unwind$??0?$DrawFilledPolygon@GGHHMMEE@@QEAA@PEAG00HHH0HPEAHHH1EEEPEAMHPEAE02PEAV?$ScanLineBase@HHE@@11@Z 000000018006f078     insertShapeUtilsCore.obj
 0002:0000b080       $unwind$??1?$DrawFilledPolygon@GGHHMMEE@@UEAA@XZ 000000018006f080     insertShapeUtilsCore.obj
 0002:0000b088       $unwind$?ProcessStep@?$DrawFilledPolygon@GGHHMMEE@@UEAAXXZ 000000018006f088     insertShapeUtilsCore.obj
 0002:0000b090       $unwind$?nearest@?$DrawFilledPolygon@GGHHMMEE@@AEAAHM@Z 000000018006f090     insertShapeUtilsCore.obj
 0002:0000b098       $unwind$?lclDSPFixptSqrt@?$DrawFilledPolygon@GGHHMMEE@@AEAAXAEAMM@Z 000000018006f098     insertShapeUtilsCore.obj
 0002:0000b0a0       $unwind$?getLineParams@?$DrawFilledPolygon@GGHHMMEE@@AEAAXHHHHHHPEAMAEAW4Paral_T@@@Z 000000018006f0a0     insertShapeUtilsCore.obj
 0002:0000b0a8       $unwind$?isValidPair@?$DrawFilledPolygon@GGHHMMEE@@AEAAEHHHHHHPEAM0W4Paral_T@@1@Z 000000018006f0a8     insertShapeUtilsCore.obj
 0002:0000b0b0       $unwind$?findPointOfIntersectionNormal@?$DrawFilledPolygon@GGHHMMEE@@AEAAXEPEAMAEAH1W4Paral_T@@@Z 000000018006f0b0     insertShapeUtilsCore.obj
 0002:0000b0b8       $unwind$?findPointOfIntersection@?$DrawFilledPolygon@GGHHMMEE@@AEAAXEPEAM0AEAH1W4Paral_T@@2HH@Z 000000018006f0b8     insertShapeUtilsCore.obj
 0002:0000b0c0       $unwind$?is_RightOfLine_CtrToRef@?$DrawFilledPolygon@GGHHMMEE@@AEAAEUXY_T@@00@Z 000000018006f0c0     insertShapeUtilsCore.obj
 0002:0000b0c8       $unwind$?convertLinePts2PolygonPts@?$DrawFilledPolygon@GGHHMMEE@@AEAAXXZ 000000018006f0c8     insertShapeUtilsCore.obj
 0002:0000b0d8       $unwind$?converPolygonPts2TwoPolygonPts@?$DrawFilledPolygon@GGHHMMEE@@AEAAXXZ 000000018006f0d8     insertShapeUtilsCore.obj
 0002:0000b0e8       $unwind$?ProcessStep@?$DrawFilledPolygon@GGHHMMEE@@AEAAXE@Z 000000018006f0e8     insertShapeUtilsCore.obj
 0002:0000b0f0       $unwind$??_G?$DrawFilledPolygon@GGHHMMEE@@UEAAPEAXI@Z 000000018006f0f0     insertShapeUtilsCore.obj
 0002:0000b0f8       $unwind$??0?$DrawLine@GGHHMMEH@@QEAA@PEAG00HHH0HPEAHHH1EEEPEAMHPEAE02@Z 000000018006f0f8     insertShapeUtilsCore.obj
 0002:0000b100       $unwind$??1?$DrawLine@GGHHMMEH@@UEAA@XZ 000000018006f100     insertShapeUtilsCore.obj
 0002:0000b108       $unwind$?ProcessOneShape@?$DrawLine@GGHHMMEH@@QEAAXXZ 000000018006f108     insertShapeUtilsCore.obj
 0002:0000b110       $unwind$?ProcessOneShape@?$DrawLine@GGHHMMEH@@QEAAXH@Z 000000018006f110     insertShapeUtilsCore.obj
 0002:0000b120       $unwind$??_G?$DrawLine@GGHHMMEH@@UEAAPEAXI@Z 000000018006f120     insertShapeUtilsCore.obj
 0002:0000b128       $unwind$??0?$DrawPolygon@GGHHMMEH@@QEAA@PEAG00HHH0HPEAHHH1EEEPEAMHPEAE0211@Z 000000018006f128     insertShapeUtilsCore.obj
 0002:0000b130       $unwind$??1?$DrawPolygon@GGHHMMEH@@UEAA@XZ 000000018006f130     insertShapeUtilsCore.obj
 0002:0000b138       $unwind$?ProcessStep@?$DrawPolygon@GGHHMMEH@@UEAAXXZ 000000018006f138     insertShapeUtilsCore.obj
 0002:0000b140       $unwind$??_G?$DrawPolygon@GGHHMMEH@@UEAAPEAXI@Z 000000018006f140     insertShapeUtilsCore.obj
 0002:0000b148       $unwind$??0?$DrawPolygon@GGHHMMEE@@QEAA@PEAG00HHH0HPEAHHH1EEEPEAMHPEAE0211@Z 000000018006f148     insertShapeUtilsCore.obj
 0002:0000b150       $unwind$??1?$DrawPolygon@GGHHMMEE@@UEAA@XZ 000000018006f150     insertShapeUtilsCore.obj
 0002:0000b158       $unwind$?ProcessStep@?$DrawPolygon@GGHHMMEE@@UEAAXXZ 000000018006f158     insertShapeUtilsCore.obj
 0002:0000b160       $unwind$??_G?$DrawPolygon@GGHHMMEE@@UEAAPEAXI@Z 000000018006f160     insertShapeUtilsCore.obj
 0002:0000b168       $unwind$??0?$DrawAnyLine@GGHHMMEH@@QEAA@PEAG00HHH0HPEAHHH1EEEPEAMHPEAE0211@Z 000000018006f168     insertShapeUtilsCore.obj
 0002:0000b170       $unwind$??1?$DrawAnyLine@GGHHMMEH@@UEAA@XZ 000000018006f170     insertShapeUtilsCore.obj
 0002:0000b178       $unwind$?ProcessStep@?$DrawAnyLine@GGHHMMEH@@UEAAXXZ 000000018006f178     insertShapeUtilsCore.obj
 0002:0000b180       $unwind$??_G?$DrawAnyLine@GGHHMMEH@@UEAAPEAXI@Z 000000018006f180     insertShapeUtilsCore.obj
 0002:0000b188       $unwind$??0?$DrawAnyLine@GGHHMMEE@@QEAA@PEAG00HHH0HPEAHHH1EEEPEAMHPEAE0211@Z 000000018006f188     insertShapeUtilsCore.obj
 0002:0000b190       $unwind$??1?$DrawAnyLine@GGHHMMEE@@UEAA@XZ 000000018006f190     insertShapeUtilsCore.obj
 0002:0000b198       $unwind$?ProcessStep@?$DrawAnyLine@GGHHMMEE@@UEAAXXZ 000000018006f198     insertShapeUtilsCore.obj
 0002:0000b1a0       $unwind$??_G?$DrawAnyLine@GGHHMMEE@@UEAAPEAXI@Z 000000018006f1a0     insertShapeUtilsCore.obj
 0002:0000b1a8       $unwind$??0?$DrawCircle@GGHHMMEHH@@QEAA@PEAG00HHH0HPEAHHH1EEEPEAMHPEAE02@Z 000000018006f1a8     insertShapeUtilsCore.obj
 0002:0000b1b0       $unwind$?ProcessOneShape@?$DrawCircle@GGHHMMEHH@@QEAAXXZ 000000018006f1b0     insertShapeUtilsCore.obj
 0002:0000b1b8       $unwind$?ProcessOneShape@?$DrawCircle@GGHHMMEHH@@AEAAXHHHHH@Z 000000018006f1b8     insertShapeUtilsCore.obj
 0002:0000b1c0       $unwind$?DrawLineAndResetStates@?$DrawCircle@GGHHMMEHH@@AEAAXHHAEAH0H@Z 000000018006f1c0     insertShapeUtilsCore.obj
 0002:0000b1c8       $unwind$??1?$DrawCircle@GGHHMMEHH@@UEAA@XZ 000000018006f1c8     insertShapeUtilsCore.obj
 0002:0000b1d0       $unwind$??_G?$DrawCircle@GGHHMMEHH@@UEAAPEAXI@Z 000000018006f1d0     insertShapeUtilsCore.obj
 0002:0000b1d8       $unwind$??0?$DrawCircleAnySize@GGHHMMEHH@@QEAA@PEAG00HHH0HPEAHHH1EEEPEAMHPEAE021@Z 000000018006f1d8     insertShapeUtilsCore.obj
 0002:0000b1e0       $unwind$??1?$DrawCircleAnySize@GGHHMMEHH@@UEAA@XZ 000000018006f1e0     insertShapeUtilsCore.obj
 0002:0000b1e8       $unwind$?ProcessStep@?$DrawCircleAnySize@GGHHMMEHH@@UEAAXXZ 000000018006f1e8     insertShapeUtilsCore.obj
 0002:0000b1f0       $unwind$??_G?$DrawCircleAnySize@GGHHMMEHH@@UEAAPEAXI@Z 000000018006f1f0     insertShapeUtilsCore.obj
 0002:0000b1f8       $unwind$??0?$DrawCircle@GGHHMMEEH@@QEAA@PEAG00HHH0HPEAHHH1EEEPEAMHPEAE02@Z 000000018006f1f8     insertShapeUtilsCore.obj
 0002:0000b200       $unwind$?ProcessOneShape@?$DrawCircle@GGHHMMEEH@@QEAAXXZ 000000018006f200     insertShapeUtilsCore.obj
 0002:0000b208       $unwind$?ProcessOneShape@?$DrawCircle@GGHHMMEEH@@AEAAXHHHEH@Z 000000018006f208     insertShapeUtilsCore.obj
 0002:0000b210       $unwind$?DrawLineAndResetStates@?$DrawCircle@GGHHMMEEH@@AEAAXHHAEAH0H@Z 000000018006f210     insertShapeUtilsCore.obj
 0002:0000b218       $unwind$??1?$DrawCircle@GGHHMMEEH@@UEAA@XZ 000000018006f218     insertShapeUtilsCore.obj
 0002:0000b220       $unwind$??_G?$DrawCircle@GGHHMMEEH@@UEAAPEAXI@Z 000000018006f220     insertShapeUtilsCore.obj
 0002:0000b228       $unwind$??0?$DrawCircleAnySize@GGHHMMEEH@@QEAA@PEAG00HHH0HPEAHHH1EEEPEAMHPEAE021@Z 000000018006f228     insertShapeUtilsCore.obj
 0002:0000b230       $unwind$??1?$DrawCircleAnySize@GGHHMMEEH@@UEAA@XZ 000000018006f230     insertShapeUtilsCore.obj
 0002:0000b238       $unwind$?ProcessStep@?$DrawCircleAnySize@GGHHMMEEH@@UEAAXXZ 000000018006f238     insertShapeUtilsCore.obj
 0002:0000b240       $unwind$??_G?$DrawCircleAnySize@GGHHMMEEH@@UEAAPEAXI@Z 000000018006f240     insertShapeUtilsCore.obj
 0002:0000b248       $unwind$??0?$DrawCircle@GGHHMMEHE@@QEAA@PEAG00HHH0HPEAHHH1EEEPEAMHPEAE02@Z 000000018006f248     insertShapeUtilsCore.obj
 0002:0000b250       $unwind$?ProcessOneShape@?$DrawCircle@GGHHMMEHE@@QEAAXXZ 000000018006f250     insertShapeUtilsCore.obj
 0002:0000b258       $unwind$?ProcessOneShape@?$DrawCircle@GGHHMMEHE@@AEAAXHHHHE@Z 000000018006f258     insertShapeUtilsCore.obj
 0002:0000b260       $unwind$??1?$DrawCircle@GGHHMMEHE@@UEAA@XZ 000000018006f260     insertShapeUtilsCore.obj
 0002:0000b268       $unwind$??_G?$DrawCircle@GGHHMMEHE@@UEAAPEAXI@Z 000000018006f268     insertShapeUtilsCore.obj
 0002:0000b270       $unwind$??0?$DrawCircleAnySize@GGHHMMEHE@@QEAA@PEAG00HHH0HPEAHHH1EEEPEAMHPEAE021@Z 000000018006f270     insertShapeUtilsCore.obj
 0002:0000b278       $unwind$??1?$DrawCircleAnySize@GGHHMMEHE@@UEAA@XZ 000000018006f278     insertShapeUtilsCore.obj
 0002:0000b280       $unwind$?ProcessStep@?$DrawCircleAnySize@GGHHMMEHE@@UEAAXXZ 000000018006f280     insertShapeUtilsCore.obj
 0002:0000b288       $unwind$??_G?$DrawCircleAnySize@GGHHMMEHE@@UEAAPEAXI@Z 000000018006f288     insertShapeUtilsCore.obj
 0002:0000b290       $unwind$??0?$DrawCircle@GGHHMMEEE@@QEAA@PEAG00HHH0HPEAHHH1EEEPEAMHPEAE02@Z 000000018006f290     insertShapeUtilsCore.obj
 0002:0000b298       $unwind$?ProcessOneShape@?$DrawCircle@GGHHMMEEE@@QEAAXXZ 000000018006f298     insertShapeUtilsCore.obj
 0002:0000b2a0       $unwind$?ProcessOneShape@?$DrawCircle@GGHHMMEEE@@AEAAXHHHEE@Z 000000018006f2a0     insertShapeUtilsCore.obj
 0002:0000b2a8       $unwind$?ProcessOneShape@?$DrawCircle@GGHHMMEEE@@AEAAXHHHEH@Z 000000018006f2a8     insertShapeUtilsCore.obj
 0002:0000b2b0       $unwind$?DrawLineAndResetStates@?$DrawCircle@GGHHMMEEE@@AEAAXHHAEAH0H@Z 000000018006f2b0     insertShapeUtilsCore.obj
 0002:0000b2b8       $unwind$??1?$DrawCircle@GGHHMMEEE@@UEAA@XZ 000000018006f2b8     insertShapeUtilsCore.obj
 0002:0000b2c0       $unwind$??_G?$DrawCircle@GGHHMMEEE@@UEAAPEAXI@Z 000000018006f2c0     insertShapeUtilsCore.obj
 0002:0000b2c8       $unwind$??0?$DrawCircleAnySize@GGHHMMEEE@@QEAA@PEAG00HHH0HPEAHHH1EEEPEAMHPEAE021@Z 000000018006f2c8     insertShapeUtilsCore.obj
 0002:0000b2d0       $unwind$??1?$DrawCircleAnySize@GGHHMMEEE@@UEAA@XZ 000000018006f2d0     insertShapeUtilsCore.obj
 0002:0000b2d8       $unwind$?ProcessStep@?$DrawCircleAnySize@GGHHMMEEE@@UEAAXXZ 000000018006f2d8     insertShapeUtilsCore.obj
 0002:0000b2e0       $unwind$??_G?$DrawCircleAnySize@GGHHMMEEE@@UEAAPEAXI@Z 000000018006f2e0     insertShapeUtilsCore.obj
 0002:0000b2e8       $unwind$??0?$DrawCommon@FFHHMMEH@@QEAA@PEAF00HHH0HPEAHHH1EEEPEAMHPEAE02@Z 000000018006f2e8     insertShapeUtilsCore.obj
 0002:0000b2f8       $stateUnwindMap$??0?$DrawCommon@FFHHMMEH@@QEAA@PEAF00HHH0HPEAHHH1EEEPEAMHPEAE02@Z 000000018006f2f8     insertShapeUtilsCore.obj
 0002:0000b300       $ip2state$??0?$DrawCommon@FFHHMMEH@@QEAA@PEAF00HHH0HPEAHHH1EEEPEAMHPEAE02@Z 000000018006f300     insertShapeUtilsCore.obj
 0002:0000b318       $unwind$?dtor$0@?0???0?$DrawCommon@FFHHMMEH@@QEAA@PEAF00HHH0HPEAHHH1EEEPEAMHPEAE02@Z@4HA 000000018006f318     insertShapeUtilsCore.obj
 0002:0000b320       $unwind$??1?$DrawCommon@FFHHMMEH@@UEAA@XZ 000000018006f320     insertShapeUtilsCore.obj
 0002:0000b328       $unwind$?CleanUp@?$DrawCommon@FFHHMMEH@@UEAAXXZ 000000018006f328     insertShapeUtilsCore.obj
 0002:0000b330       $unwind$?UpdateImageBoundary@?$DrawCommon@FFHHMMEH@@UEAAXHH@Z 000000018006f330     insertShapeUtilsCore.obj
 0002:0000b338       $unwind$?UpdateViewPort@?$DrawCommon@FFHHMMEH@@UEAAXPEAH@Z 000000018006f338     insertShapeUtilsCore.obj
 0002:0000b340       $unwind$?UpdateFillColorOpacity@?$DrawCommon@FFHHMMEH@@UEAAXE@Z 000000018006f340     insertShapeUtilsCore.obj
 0002:0000b348       $unwind$?MoveToNextFillColor@?$DrawCommon@FFHHMMEH@@IEAAXXZ 000000018006f348     insertShapeUtilsCore.obj
 0002:0000b350       $unwind$?MoveToNextOpacity@?$DrawCommon@FFHHMMEH@@IEAAXXZ 000000018006f350     insertShapeUtilsCore.obj
 0002:0000b358       $unwind$?PlotSubPixels@?$DrawCommon@FFHHMMEH@@IEAAXHHHHH@Z 000000018006f358     insertShapeUtilsCore.obj
 0002:0000b360       $unwind$?PlotVerticalLine@?$DrawCommon@FFHHMMEH@@IEAAXHHHHH@Z 000000018006f360     insertShapeUtilsCore.obj
 0002:0000b368       $unwind$?PlotVerticalLineCheckRange@?$DrawCommon@FFHHMMEH@@IEAAXHHHHH@Z 000000018006f368     insertShapeUtilsCore.obj
 0002:0000b370       $unwind$?CountSubPixel@?$DrawCommon@FFHHMMEH@@IEAAXHHHHAEAH0HH@Z 000000018006f370     insertShapeUtilsCore.obj
 0002:0000b378       $unwind$?PlotVerticalLine@?$DrawCommon@FFHHMMEH@@AEAAXHHHHHE@Z 000000018006f378     insertShapeUtilsCore.obj
 0002:0000b380       $unwind$?PlotVerticalLineOneColor@?$DrawCommon@FFHHMMEH@@AEAAXPEAFHHHHH@Z 000000018006f380     insertShapeUtilsCore.obj
 0002:0000b388       $unwind$?PlotSubPixels@?$DrawCommon@FFHHMMEH@@AEAAXHHHHHE@Z 000000018006f388     insertShapeUtilsCore.obj
 0002:0000b390       $unwind$?PlotSubPixelsOneColor@?$DrawCommon@FFHHMMEH@@AEAAXPEAFHHHHH@Z 000000018006f390     insertShapeUtilsCore.obj
 0002:0000b398       $unwind$?PlotOneSubPixelOneColor@?$DrawCommon@FFHHMMEH@@AEAAXPEAFHEHH@Z 000000018006f398     insertShapeUtilsCore.obj
 0002:0000b3a0       $unwind$?IsMoreClr@?$DrawCommon@FFHHMMEH@@AEAAHH@Z 000000018006f3a0     insertShapeUtilsCore.obj
 0002:0000b3a8       $unwind$??_G?$DrawCommon@FFHHMMEH@@UEAAPEAXI@Z 000000018006f3a8     insertShapeUtilsCore.obj
 0002:0000b3b0       $unwind$??0?$DrawFilledRectangle@FFHHMME@@QEAA@PEAF00HHH0HPEAHHH1EEEPEAMHPEAE02@Z 000000018006f3b0     insertShapeUtilsCore.obj
 0002:0000b3b8       $unwind$?ProcessOneShape@?$DrawFilledRectangle@FFHHMME@@QEAAXXZ 000000018006f3b8     insertShapeUtilsCore.obj
 0002:0000b3c8       $unwind$??1?$DrawFilledRectangle@FFHHMME@@UEAA@XZ 000000018006f3c8     insertShapeUtilsCore.obj
 0002:0000b3d0       $unwind$??_G?$DrawFilledRectangle@FFHHMME@@UEAAPEAXI@Z 000000018006f3d0     insertShapeUtilsCore.obj
 0002:0000b3d8       $unwind$??0?$DrawFilledRectangleAnySize@FFHHMME@@QEAA@PEAF00HHH0HPEAHHH1EEEPEAMHPEAE02PEBH@Z 000000018006f3d8     insertShapeUtilsCore.obj
 0002:0000b3e0       $unwind$??1?$DrawFilledRectangleAnySize@FFHHMME@@UEAA@XZ 000000018006f3e0     insertShapeUtilsCore.obj
 0002:0000b3e8       $unwind$?ProcessStep@?$DrawFilledRectangleAnySize@FFHHMME@@UEAAXXZ 000000018006f3e8     insertShapeUtilsCore.obj
 0002:0000b3f0       $unwind$??_G?$DrawFilledRectangleAnySize@FFHHMME@@UEAAPEAXI@Z 000000018006f3f0     insertShapeUtilsCore.obj
 0002:0000b3f8       $unwind$??0?$DrawCommon@FFHHMMEE@@QEAA@PEAF00HHH0HPEAHHH1EEEPEAMHPEAE02@Z 000000018006f3f8     insertShapeUtilsCore.obj
 0002:0000b408       $stateUnwindMap$??0?$DrawCommon@FFHHMMEE@@QEAA@PEAF00HHH0HPEAHHH1EEEPEAMHPEAE02@Z 000000018006f408     insertShapeUtilsCore.obj
 0002:0000b410       $ip2state$??0?$DrawCommon@FFHHMMEE@@QEAA@PEAF00HHH0HPEAHHH1EEEPEAMHPEAE02@Z 000000018006f410     insertShapeUtilsCore.obj
 0002:0000b428       $unwind$?dtor$0@?0???0?$DrawCommon@FFHHMMEE@@QEAA@PEAF00HHH0HPEAHHH1EEEPEAMHPEAE02@Z@4HA 000000018006f428     insertShapeUtilsCore.obj
 0002:0000b430       $unwind$??1?$DrawCommon@FFHHMMEE@@UEAA@XZ 000000018006f430     insertShapeUtilsCore.obj
 0002:0000b438       $unwind$?CleanUp@?$DrawCommon@FFHHMMEE@@UEAAXXZ 000000018006f438     insertShapeUtilsCore.obj
 0002:0000b440       $unwind$?UpdateImageBoundary@?$DrawCommon@FFHHMMEE@@UEAAXHH@Z 000000018006f440     insertShapeUtilsCore.obj
 0002:0000b448       $unwind$?UpdateViewPort@?$DrawCommon@FFHHMMEE@@UEAAXPEAH@Z 000000018006f448     insertShapeUtilsCore.obj
 0002:0000b450       $unwind$?UpdateFillColorOpacity@?$DrawCommon@FFHHMMEE@@UEAAXE@Z 000000018006f450     insertShapeUtilsCore.obj
 0002:0000b458       $unwind$?MoveToNextFillColor@?$DrawCommon@FFHHMMEE@@IEAAXXZ 000000018006f458     insertShapeUtilsCore.obj
 0002:0000b460       $unwind$?MoveToNextOpacity@?$DrawCommon@FFHHMMEE@@IEAAXXZ 000000018006f460     insertShapeUtilsCore.obj
 0002:0000b468       $unwind$?PlotOnePixel@?$DrawCommon@FFHHMMEE@@IEAAXHH@Z 000000018006f468     insertShapeUtilsCore.obj
 0002:0000b470       $unwind$?PlotPixelsCheckRange@?$DrawCommon@FFHHMMEE@@IEAAXHHH@Z 000000018006f470     insertShapeUtilsCore.obj
 0002:0000b478       $unwind$?PlotSubPixels@?$DrawCommon@FFHHMMEE@@IEAAXHHHHH@Z 000000018006f478     insertShapeUtilsCore.obj
 0002:0000b480       $unwind$?PlotSubPixels@?$DrawCommon@FFHHMMEE@@IEAAXHEHH@Z 000000018006f480     insertShapeUtilsCore.obj
 0002:0000b488       $unwind$?CountSubPixel@?$DrawCommon@FFHHMMEE@@IEAAXHHHHAEAH0HH@Z 000000018006f488     insertShapeUtilsCore.obj
 0002:0000b490       $unwind$?PlotOnePixel@?$DrawCommon@FFHHMMEE@@AEAAXHHE@Z 000000018006f490     insertShapeUtilsCore.obj
 0002:0000b498       $unwind$?PlotSubPixels@?$DrawCommon@FFHHMMEE@@AEAAXHHHHHE@Z 000000018006f498     insertShapeUtilsCore.obj
 0002:0000b4a0       $unwind$?PlotSubPixelsOneColor@?$DrawCommon@FFHHMMEE@@AEAAXPEAFHHHHH@Z 000000018006f4a0     insertShapeUtilsCore.obj
 0002:0000b4a8       $unwind$?PlotSubPixels@?$DrawCommon@FFHHMMEE@@AEAAXHEHHE@Z 000000018006f4a8     insertShapeUtilsCore.obj
 0002:0000b4b0       $unwind$?PlotOneSubPixelOneColor@?$DrawCommon@FFHHMMEE@@AEAAXPEAFHEHH@Z 000000018006f4b0     insertShapeUtilsCore.obj
 0002:0000b4b8       $unwind$?IsMoreClr@?$DrawCommon@FFHHMMEE@@AEAAHH@Z 000000018006f4b8     insertShapeUtilsCore.obj
 0002:0000b4c0       $unwind$??_G?$DrawCommon@FFHHMMEE@@UEAAPEAXI@Z 000000018006f4c0     insertShapeUtilsCore.obj
 0002:0000b4c8       $unwind$??0?$DrawLine@FFHHMMEE@@QEAA@PEAF00HHH0HPEAHHH1EEEPEAMHPEAE02@Z 000000018006f4c8     insertShapeUtilsCore.obj
 0002:0000b4d0       $unwind$??1?$DrawLine@FFHHMMEE@@UEAA@XZ 000000018006f4d0     insertShapeUtilsCore.obj
 0002:0000b4d8       $unwind$?ProcessOneShape@?$DrawLine@FFHHMMEE@@QEAAXXZ 000000018006f4d8     insertShapeUtilsCore.obj
 0002:0000b4e0       $unwind$?ProcessOneShape@?$DrawLine@FFHHMMEE@@QEAAXE@Z 000000018006f4e0     insertShapeUtilsCore.obj
 0002:0000b4f0       $unwind$??_G?$DrawLine@FFHHMMEE@@UEAAPEAXI@Z 000000018006f4f0     insertShapeUtilsCore.obj
 0002:0000b4f8       $unwind$??0?$DrawMarkerLine@FFHHMMEE@@QEAA@PEAF00HHH0HPEAHHH1EEEPEAMHPEAE02@Z 000000018006f4f8     insertShapeUtilsCore.obj
 0002:0000b500       $unwind$?ProcessOneShape@?$DrawMarkerLine@FFHHMMEE@@QEAAXXZ 000000018006f500     insertShapeUtilsCore.obj
 0002:0000b508       $unwind$?ProcessOneShape@?$DrawMarkerLine@FFHHMMEE@@QEAAXE@Z 000000018006f508     insertShapeUtilsCore.obj
 0002:0000b518       $unwind$??1?$DrawMarkerLine@FFHHMMEE@@UEAA@XZ 000000018006f518     insertShapeUtilsCore.obj
 0002:0000b520       $unwind$??_G?$DrawMarkerLine@FFHHMMEE@@UEAAPEAXI@Z 000000018006f520     insertShapeUtilsCore.obj
 0002:0000b528       $unwind$??0?$DrawRectangleAnySize@FFHHMME@@QEAA@PEAF00HHH0HPEAHHH1EEEPEAMHPEAE021@Z 000000018006f528     insertShapeUtilsCore.obj
 0002:0000b530       $unwind$??1?$DrawRectangleAnySize@FFHHMME@@UEAA@XZ 000000018006f530     insertShapeUtilsCore.obj
 0002:0000b538       $unwind$?ProcessStep@?$DrawRectangleAnySize@FFHHMME@@UEAAXXZ 000000018006f538     insertShapeUtilsCore.obj
 0002:0000b540       $unwind$??_G?$DrawRectangleAnySize@FFHHMME@@UEAAPEAXI@Z 000000018006f540     insertShapeUtilsCore.obj
 0002:0000b548       $unwind$??0?$DrawFilledPolygon@FFHHMMEH@@QEAA@PEAF00HHH0HPEAHHH1EEEPEAMHPEAE02PEAV?$ScanLineBase@HHH@@11@Z 000000018006f548     insertShapeUtilsCore.obj
 0002:0000b550       $unwind$??1?$DrawFilledPolygon@FFHHMMEH@@UEAA@XZ 000000018006f550     insertShapeUtilsCore.obj
 0002:0000b558       $unwind$?ProcessStep@?$DrawFilledPolygon@FFHHMMEH@@UEAAXXZ 000000018006f558     insertShapeUtilsCore.obj
 0002:0000b560       $unwind$?nearest@?$DrawFilledPolygon@FFHHMMEH@@AEAAHM@Z 000000018006f560     insertShapeUtilsCore.obj
 0002:0000b568       $unwind$?lclDSPFixptSqrt@?$DrawFilledPolygon@FFHHMMEH@@AEAAXAEAMM@Z 000000018006f568     insertShapeUtilsCore.obj
 0002:0000b570       $unwind$?getLineParams@?$DrawFilledPolygon@FFHHMMEH@@AEAAXHHHHHHPEAMAEAW4Paral_T@@@Z 000000018006f570     insertShapeUtilsCore.obj
 0002:0000b578       $unwind$?isValidPair@?$DrawFilledPolygon@FFHHMMEH@@AEAAEHHHHHHPEAM0W4Paral_T@@1@Z 000000018006f578     insertShapeUtilsCore.obj
 0002:0000b580       $unwind$?findPointOfIntersectionNormal@?$DrawFilledPolygon@FFHHMMEH@@AEAAXEPEAMAEAH1W4Paral_T@@@Z 000000018006f580     insertShapeUtilsCore.obj
 0002:0000b588       $unwind$?findPointOfIntersection@?$DrawFilledPolygon@FFHHMMEH@@AEAAXEPEAM0AEAH1W4Paral_T@@2HH@Z 000000018006f588     insertShapeUtilsCore.obj
 0002:0000b590       $unwind$?is_RightOfLine_CtrToRef@?$DrawFilledPolygon@FFHHMMEH@@AEAAEUXY_T@@00@Z 000000018006f590     insertShapeUtilsCore.obj
 0002:0000b598       $unwind$?convertLinePts2PolygonPts@?$DrawFilledPolygon@FFHHMMEH@@AEAAXXZ 000000018006f598     insertShapeUtilsCore.obj
 0002:0000b5a8       $unwind$?converPolygonPts2TwoPolygonPts@?$DrawFilledPolygon@FFHHMMEH@@AEAAXXZ 000000018006f5a8     insertShapeUtilsCore.obj
 0002:0000b5b8       $unwind$?ProcessStep@?$DrawFilledPolygon@FFHHMMEH@@AEAAXH@Z 000000018006f5b8     insertShapeUtilsCore.obj
 0002:0000b5c0       $unwind$??_G?$DrawFilledPolygon@FFHHMMEH@@UEAAPEAXI@Z 000000018006f5c0     insertShapeUtilsCore.obj
 0002:0000b5c8       $unwind$??0?$DrawFilledPolygon@FFHHMMEE@@QEAA@PEAF00HHH0HPEAHHH1EEEPEAMHPEAE02PEAV?$ScanLineBase@HHE@@11@Z 000000018006f5c8     insertShapeUtilsCore.obj
 0002:0000b5d0       $unwind$??1?$DrawFilledPolygon@FFHHMMEE@@UEAA@XZ 000000018006f5d0     insertShapeUtilsCore.obj
 0002:0000b5d8       $unwind$?ProcessStep@?$DrawFilledPolygon@FFHHMMEE@@UEAAXXZ 000000018006f5d8     insertShapeUtilsCore.obj
 0002:0000b5e0       $unwind$?nearest@?$DrawFilledPolygon@FFHHMMEE@@AEAAHM@Z 000000018006f5e0     insertShapeUtilsCore.obj
 0002:0000b5e8       $unwind$?lclDSPFixptSqrt@?$DrawFilledPolygon@FFHHMMEE@@AEAAXAEAMM@Z 000000018006f5e8     insertShapeUtilsCore.obj
 0002:0000b5f0       $unwind$?getLineParams@?$DrawFilledPolygon@FFHHMMEE@@AEAAXHHHHHHPEAMAEAW4Paral_T@@@Z 000000018006f5f0     insertShapeUtilsCore.obj
 0002:0000b5f8       $unwind$?isValidPair@?$DrawFilledPolygon@FFHHMMEE@@AEAAEHHHHHHPEAM0W4Paral_T@@1@Z 000000018006f5f8     insertShapeUtilsCore.obj
 0002:0000b600       $unwind$?findPointOfIntersectionNormal@?$DrawFilledPolygon@FFHHMMEE@@AEAAXEPEAMAEAH1W4Paral_T@@@Z 000000018006f600     insertShapeUtilsCore.obj
 0002:0000b608       $unwind$?findPointOfIntersection@?$DrawFilledPolygon@FFHHMMEE@@AEAAXEPEAM0AEAH1W4Paral_T@@2HH@Z 000000018006f608     insertShapeUtilsCore.obj
 0002:0000b610       $unwind$?is_RightOfLine_CtrToRef@?$DrawFilledPolygon@FFHHMMEE@@AEAAEUXY_T@@00@Z 000000018006f610     insertShapeUtilsCore.obj
 0002:0000b618       $unwind$?convertLinePts2PolygonPts@?$DrawFilledPolygon@FFHHMMEE@@AEAAXXZ 000000018006f618     insertShapeUtilsCore.obj
 0002:0000b628       $unwind$?converPolygonPts2TwoPolygonPts@?$DrawFilledPolygon@FFHHMMEE@@AEAAXXZ 000000018006f628     insertShapeUtilsCore.obj
 0002:0000b638       $unwind$?ProcessStep@?$DrawFilledPolygon@FFHHMMEE@@AEAAXE@Z 000000018006f638     insertShapeUtilsCore.obj
 0002:0000b640       $unwind$??_G?$DrawFilledPolygon@FFHHMMEE@@UEAAPEAXI@Z 000000018006f640     insertShapeUtilsCore.obj
 0002:0000b648       $unwind$??0?$DrawLine@FFHHMMEH@@QEAA@PEAF00HHH0HPEAHHH1EEEPEAMHPEAE02@Z 000000018006f648     insertShapeUtilsCore.obj
 0002:0000b650       $unwind$??1?$DrawLine@FFHHMMEH@@UEAA@XZ 000000018006f650     insertShapeUtilsCore.obj
 0002:0000b658       $unwind$?ProcessOneShape@?$DrawLine@FFHHMMEH@@QEAAXXZ 000000018006f658     insertShapeUtilsCore.obj
 0002:0000b660       $unwind$?ProcessOneShape@?$DrawLine@FFHHMMEH@@QEAAXH@Z 000000018006f660     insertShapeUtilsCore.obj
 0002:0000b670       $unwind$??_G?$DrawLine@FFHHMMEH@@UEAAPEAXI@Z 000000018006f670     insertShapeUtilsCore.obj
 0002:0000b678       $unwind$??0?$DrawPolygon@FFHHMMEH@@QEAA@PEAF00HHH0HPEAHHH1EEEPEAMHPEAE0211@Z 000000018006f678     insertShapeUtilsCore.obj
 0002:0000b680       $unwind$??1?$DrawPolygon@FFHHMMEH@@UEAA@XZ 000000018006f680     insertShapeUtilsCore.obj
 0002:0000b688       $unwind$?ProcessStep@?$DrawPolygon@FFHHMMEH@@UEAAXXZ 000000018006f688     insertShapeUtilsCore.obj
 0002:0000b690       $unwind$??_G?$DrawPolygon@FFHHMMEH@@UEAAPEAXI@Z 000000018006f690     insertShapeUtilsCore.obj
 0002:0000b698       $unwind$??0?$DrawPolygon@FFHHMMEE@@QEAA@PEAF00HHH0HPEAHHH1EEEPEAMHPEAE0211@Z 000000018006f698     insertShapeUtilsCore.obj
 0002:0000b6a0       $unwind$??1?$DrawPolygon@FFHHMMEE@@UEAA@XZ 000000018006f6a0     insertShapeUtilsCore.obj
 0002:0000b6a8       $unwind$?ProcessStep@?$DrawPolygon@FFHHMMEE@@UEAAXXZ 000000018006f6a8     insertShapeUtilsCore.obj
 0002:0000b6b0       $unwind$??_G?$DrawPolygon@FFHHMMEE@@UEAAPEAXI@Z 000000018006f6b0     insertShapeUtilsCore.obj
 0002:0000b6b8       $unwind$??0?$DrawAnyLine@FFHHMMEH@@QEAA@PEAF00HHH0HPEAHHH1EEEPEAMHPEAE0211@Z 000000018006f6b8     insertShapeUtilsCore.obj
 0002:0000b6c0       $unwind$??1?$DrawAnyLine@FFHHMMEH@@UEAA@XZ 000000018006f6c0     insertShapeUtilsCore.obj
 0002:0000b6c8       $unwind$?ProcessStep@?$DrawAnyLine@FFHHMMEH@@UEAAXXZ 000000018006f6c8     insertShapeUtilsCore.obj
 0002:0000b6d0       $unwind$??_G?$DrawAnyLine@FFHHMMEH@@UEAAPEAXI@Z 000000018006f6d0     insertShapeUtilsCore.obj
 0002:0000b6d8       $unwind$??0?$DrawAnyLine@FFHHMMEE@@QEAA@PEAF00HHH0HPEAHHH1EEEPEAMHPEAE0211@Z 000000018006f6d8     insertShapeUtilsCore.obj
 0002:0000b6e0       $unwind$??1?$DrawAnyLine@FFHHMMEE@@UEAA@XZ 000000018006f6e0     insertShapeUtilsCore.obj
 0002:0000b6e8       $unwind$?ProcessStep@?$DrawAnyLine@FFHHMMEE@@UEAAXXZ 000000018006f6e8     insertShapeUtilsCore.obj
 0002:0000b6f0       $unwind$??_G?$DrawAnyLine@FFHHMMEE@@UEAAPEAXI@Z 000000018006f6f0     insertShapeUtilsCore.obj
 0002:0000b6f8       $unwind$??0?$DrawCircle@FFHHMMEHH@@QEAA@PEAF00HHH0HPEAHHH1EEEPEAMHPEAE02@Z 000000018006f6f8     insertShapeUtilsCore.obj
 0002:0000b700       $unwind$?ProcessOneShape@?$DrawCircle@FFHHMMEHH@@QEAAXXZ 000000018006f700     insertShapeUtilsCore.obj
 0002:0000b708       $unwind$?ProcessOneShape@?$DrawCircle@FFHHMMEHH@@AEAAXHHHHH@Z 000000018006f708     insertShapeUtilsCore.obj
 0002:0000b710       $unwind$?DrawLineAndResetStates@?$DrawCircle@FFHHMMEHH@@AEAAXHHAEAH0H@Z 000000018006f710     insertShapeUtilsCore.obj
 0002:0000b718       $unwind$??1?$DrawCircle@FFHHMMEHH@@UEAA@XZ 000000018006f718     insertShapeUtilsCore.obj
 0002:0000b720       $unwind$??_G?$DrawCircle@FFHHMMEHH@@UEAAPEAXI@Z 000000018006f720     insertShapeUtilsCore.obj
 0002:0000b728       $unwind$??0?$DrawCircleAnySize@FFHHMMEHH@@QEAA@PEAF00HHH0HPEAHHH1EEEPEAMHPEAE021@Z 000000018006f728     insertShapeUtilsCore.obj
 0002:0000b730       $unwind$??1?$DrawCircleAnySize@FFHHMMEHH@@UEAA@XZ 000000018006f730     insertShapeUtilsCore.obj
 0002:0000b738       $unwind$?ProcessStep@?$DrawCircleAnySize@FFHHMMEHH@@UEAAXXZ 000000018006f738     insertShapeUtilsCore.obj
 0002:0000b740       $unwind$??_G?$DrawCircleAnySize@FFHHMMEHH@@UEAAPEAXI@Z 000000018006f740     insertShapeUtilsCore.obj
 0002:0000b748       $unwind$??0?$DrawCircle@FFHHMMEEH@@QEAA@PEAF00HHH0HPEAHHH1EEEPEAMHPEAE02@Z 000000018006f748     insertShapeUtilsCore.obj
 0002:0000b750       $unwind$?ProcessOneShape@?$DrawCircle@FFHHMMEEH@@QEAAXXZ 000000018006f750     insertShapeUtilsCore.obj
 0002:0000b758       $unwind$?ProcessOneShape@?$DrawCircle@FFHHMMEEH@@AEAAXHHHEH@Z 000000018006f758     insertShapeUtilsCore.obj
 0002:0000b760       $unwind$?DrawLineAndResetStates@?$DrawCircle@FFHHMMEEH@@AEAAXHHAEAH0H@Z 000000018006f760     insertShapeUtilsCore.obj
 0002:0000b768       $unwind$??1?$DrawCircle@FFHHMMEEH@@UEAA@XZ 000000018006f768     insertShapeUtilsCore.obj
 0002:0000b770       $unwind$??_G?$DrawCircle@FFHHMMEEH@@UEAAPEAXI@Z 000000018006f770     insertShapeUtilsCore.obj
 0002:0000b778       $unwind$??0?$DrawCircleAnySize@FFHHMMEEH@@QEAA@PEAF00HHH0HPEAHHH1EEEPEAMHPEAE021@Z 000000018006f778     insertShapeUtilsCore.obj
 0002:0000b780       $unwind$??1?$DrawCircleAnySize@FFHHMMEEH@@UEAA@XZ 000000018006f780     insertShapeUtilsCore.obj
 0002:0000b788       $unwind$?ProcessStep@?$DrawCircleAnySize@FFHHMMEEH@@UEAAXXZ 000000018006f788     insertShapeUtilsCore.obj
 0002:0000b790       $unwind$??_G?$DrawCircleAnySize@FFHHMMEEH@@UEAAPEAXI@Z 000000018006f790     insertShapeUtilsCore.obj
 0002:0000b798       $unwind$??0?$DrawCircle@FFHHMMEHE@@QEAA@PEAF00HHH0HPEAHHH1EEEPEAMHPEAE02@Z 000000018006f798     insertShapeUtilsCore.obj
 0002:0000b7a0       $unwind$?ProcessOneShape@?$DrawCircle@FFHHMMEHE@@QEAAXXZ 000000018006f7a0     insertShapeUtilsCore.obj
 0002:0000b7a8       $unwind$?ProcessOneShape@?$DrawCircle@FFHHMMEHE@@AEAAXHHHHE@Z 000000018006f7a8     insertShapeUtilsCore.obj
 0002:0000b7b0       $unwind$??1?$DrawCircle@FFHHMMEHE@@UEAA@XZ 000000018006f7b0     insertShapeUtilsCore.obj
 0002:0000b7b8       $unwind$??_G?$DrawCircle@FFHHMMEHE@@UEAAPEAXI@Z 000000018006f7b8     insertShapeUtilsCore.obj
 0002:0000b7c0       $unwind$??0?$DrawCircleAnySize@FFHHMMEHE@@QEAA@PEAF00HHH0HPEAHHH1EEEPEAMHPEAE021@Z 000000018006f7c0     insertShapeUtilsCore.obj
 0002:0000b7c8       $unwind$??1?$DrawCircleAnySize@FFHHMMEHE@@UEAA@XZ 000000018006f7c8     insertShapeUtilsCore.obj
 0002:0000b7d0       $unwind$?ProcessStep@?$DrawCircleAnySize@FFHHMMEHE@@UEAAXXZ 000000018006f7d0     insertShapeUtilsCore.obj
 0002:0000b7d8       $unwind$??_G?$DrawCircleAnySize@FFHHMMEHE@@UEAAPEAXI@Z 000000018006f7d8     insertShapeUtilsCore.obj
 0002:0000b7e0       $unwind$??0?$DrawCircle@FFHHMMEEE@@QEAA@PEAF00HHH0HPEAHHH1EEEPEAMHPEAE02@Z 000000018006f7e0     insertShapeUtilsCore.obj
 0002:0000b7e8       $unwind$?ProcessOneShape@?$DrawCircle@FFHHMMEEE@@QEAAXXZ 000000018006f7e8     insertShapeUtilsCore.obj
 0002:0000b7f0       $unwind$?ProcessOneShape@?$DrawCircle@FFHHMMEEE@@AEAAXHHHEE@Z 000000018006f7f0     insertShapeUtilsCore.obj
 0002:0000b7f8       $unwind$?ProcessOneShape@?$DrawCircle@FFHHMMEEE@@AEAAXHHHEH@Z 000000018006f7f8     insertShapeUtilsCore.obj
 0002:0000b800       $unwind$?DrawLineAndResetStates@?$DrawCircle@FFHHMMEEE@@AEAAXHHAEAH0H@Z 000000018006f800     insertShapeUtilsCore.obj
 0002:0000b808       $unwind$??1?$DrawCircle@FFHHMMEEE@@UEAA@XZ 000000018006f808     insertShapeUtilsCore.obj
 0002:0000b810       $unwind$??_G?$DrawCircle@FFHHMMEEE@@UEAAPEAXI@Z 000000018006f810     insertShapeUtilsCore.obj
 0002:0000b818       $unwind$??0?$DrawCircleAnySize@FFHHMMEEE@@QEAA@PEAF00HHH0HPEAHHH1EEEPEAMHPEAE021@Z 000000018006f818     insertShapeUtilsCore.obj
 0002:0000b820       $unwind$??1?$DrawCircleAnySize@FFHHMMEEE@@UEAA@XZ 000000018006f820     insertShapeUtilsCore.obj
 0002:0000b828       $unwind$?ProcessStep@?$DrawCircleAnySize@FFHHMMEEE@@UEAAXXZ 000000018006f828     insertShapeUtilsCore.obj
 0002:0000b830       $unwind$??_G?$DrawCircleAnySize@FFHHMMEEE@@UEAAPEAXI@Z 000000018006f830     insertShapeUtilsCore.obj
 0002:0000b838       $unwind$??$FindVisibleArea@HH@?$DrawCommon@FFHHMMEE@@IEAAXPEBHPEAH@Z 000000018006f838     insertShapeUtilsCore.obj
 0002:0000b840       $unwind$??$FindVisibleArea@HH@?$DrawCommon@FFHHMMEH@@IEAAXPEBHPEAH@Z 000000018006f840     insertShapeUtilsCore.obj
 0002:0000b848       $unwind$??$FindVisibleArea@HH@?$DrawCommon@GGHHMMEE@@IEAAXPEBHPEAH@Z 000000018006f848     insertShapeUtilsCore.obj
 0002:0000b850       $unwind$??$FindVisibleArea@HH@?$DrawCommon@GGHHMMEH@@IEAAXPEBHPEAH@Z 000000018006f850     insertShapeUtilsCore.obj
 0002:0000b858       $unwind$??$FindVisibleArea@HH@?$DrawCommon@EEHHMMEE@@IEAAXPEBHPEAH@Z 000000018006f858     insertShapeUtilsCore.obj
 0002:0000b860       $unwind$??$FindVisibleArea@HH@?$DrawCommon@EEHHMMEH@@IEAAXPEBHPEAH@Z 000000018006f860     insertShapeUtilsCore.obj
 0002:0000b868       $unwind$??$FindVisibleArea@HH@?$DrawCommon@NNHHNNEE@@IEAAXPEBHPEAH@Z 000000018006f868     insertShapeUtilsCore.obj
 0002:0000b870       $unwind$??$FindVisibleArea@HH@?$DrawCommon@NNHHNNEH@@IEAAXPEBHPEAH@Z 000000018006f870     insertShapeUtilsCore.obj
 0002:0000b878       $unwind$??$FindVisibleArea@HH@?$DrawCommon@MMHHMMEE@@IEAAXPEBHPEAH@Z 000000018006f878     insertShapeUtilsCore.obj
 0002:0000b880       $unwind$??$FindVisibleArea@HH@?$DrawCommon@MMHHMMEH@@IEAAXPEBHPEAH@Z 000000018006f880     insertShapeUtilsCore.obj
 0002:0000b888       $unwind$??$FindVisibleAreaKeepCoordinate@HH@?$DrawCommon@FFHHMMEH@@IEAAXPEBHPEAH@Z 000000018006f888     insertShapeUtilsCore.obj
 0002:0000b890       $unwind$??$FindVisibleAreaKeepCoordinate@HH@?$DrawCommon@GGHHMMEH@@IEAAXPEBHPEAH@Z 000000018006f890     insertShapeUtilsCore.obj
 0002:0000b898       $unwind$??$FindVisibleAreaKeepCoordinate@HH@?$DrawCommon@EEHHMMEH@@IEAAXPEBHPEAH@Z 000000018006f898     insertShapeUtilsCore.obj
 0002:0000b8a0       $unwind$??$FindVisibleAreaKeepCoordinate@HH@?$DrawCommon@NNHHNNEH@@IEAAXPEBHPEAH@Z 000000018006f8a0     insertShapeUtilsCore.obj
 0002:0000b8a8       $unwind$??$FindVisibleAreaKeepCoordinate@HH@?$DrawCommon@MMHHMMEH@@IEAAXPEBHPEAH@Z 000000018006f8a8     insertShapeUtilsCore.obj
 0002:0000b8b0       $unwind$?IsInRange@?$MidPointFullCircle@H@@QEAAEXZ 000000018006f8b0     insertShapeUtilsCore.obj
 0002:0000b8b8       $unwind$?GetRow@?$MidPointFullCircle@H@@QEAAHXZ 000000018006f8b8     insertShapeUtilsCore.obj
 0002:0000b8c0       $unwind$?MoveToNextColumn@?$MidPointFullCircle@H@@QEAAXXZ 000000018006f8c0     insertShapeUtilsCore.obj
 0002:0000b8c8       $unwind$??$FindLineInViewPort@HH@@YAEPEBH0PEAH@Z 000000018006f8c8     insertShapeUtilsCore.obj
 0002:0000b8d0       $unwind$??$Max@H@?$DrawCommon@FFHHMMEH@@AEAAHHH@Z 000000018006f8d0     insertShapeUtilsCore.obj
 0002:0000b8d8       $unwind$??$Min@H@?$DrawCommon@FFHHMMEH@@AEAAHHH@Z 000000018006f8d8     insertShapeUtilsCore.obj
 0002:0000b8e0       $unwind$??$Max@H@?$DrawCommon@GGHHMMEH@@AEAAHHH@Z 000000018006f8e0     insertShapeUtilsCore.obj
 0002:0000b8e8       $unwind$??$Min@H@?$DrawCommon@GGHHMMEH@@AEAAHHH@Z 000000018006f8e8     insertShapeUtilsCore.obj
 0002:0000b8f0       $unwind$??$Max@H@?$DrawCommon@EEHHMMEH@@AEAAHHH@Z 000000018006f8f0     insertShapeUtilsCore.obj
 0002:0000b8f8       $unwind$??$Min@H@?$DrawCommon@EEHHMMEH@@AEAAHHH@Z 000000018006f8f8     insertShapeUtilsCore.obj
 0002:0000b900       $unwind$??$Max@H@?$DrawCommon@NNHHNNEH@@AEAAHHH@Z 000000018006f900     insertShapeUtilsCore.obj
 0002:0000b908       $unwind$??$Min@H@?$DrawCommon@NNHHNNEH@@AEAAHHH@Z 000000018006f908     insertShapeUtilsCore.obj
 0002:0000b910       $unwind$??$Max@H@?$DrawCommon@MMHHMMEH@@AEAAHHH@Z 000000018006f910     insertShapeUtilsCore.obj
 0002:0000b918       $unwind$??$Min@H@?$DrawCommon@MMHHMMEH@@AEAAHHH@Z 000000018006f918     insertShapeUtilsCore.obj
 0002:0000b920       $unwind$??$CheckDataDimen@H@@YAEHPEBHHAEAH@Z 000000018006f920     insertShapeUtilsCore.obj
 0002:0000b928       $unwind$??$CheckDataDimenEven@H@@YAEHPEBHHAEAH1@Z 000000018006f928     insertShapeUtilsCore.obj
 0002:0000b930       $unwind$??$Max@H@?$DrawCommon@FFHHMMEE@@AEAAHHH@Z 000000018006f930     insertShapeUtilsCore.obj
 0002:0000b938       $unwind$??$Min@H@?$DrawCommon@FFHHMMEE@@AEAAHHH@Z 000000018006f938     insertShapeUtilsCore.obj
 0002:0000b940       $unwind$??$Max@H@?$DrawCommon@GGHHMMEE@@AEAAHHH@Z 000000018006f940     insertShapeUtilsCore.obj
 0002:0000b948       $unwind$??$Min@H@?$DrawCommon@GGHHMMEE@@AEAAHHH@Z 000000018006f948     insertShapeUtilsCore.obj
 0002:0000b950       $unwind$??$Max@H@?$DrawCommon@EEHHMMEE@@AEAAHHH@Z 000000018006f950     insertShapeUtilsCore.obj
 0002:0000b958       $unwind$??$Min@H@?$DrawCommon@EEHHMMEE@@AEAAHHH@Z 000000018006f958     insertShapeUtilsCore.obj
 0002:0000b960       $unwind$??$Max@H@?$DrawCommon@NNHHNNEE@@AEAAHHH@Z 000000018006f960     insertShapeUtilsCore.obj
 0002:0000b968       $unwind$??$Min@H@?$DrawCommon@NNHHNNEE@@AEAAHHH@Z 000000018006f968     insertShapeUtilsCore.obj
 0002:0000b970       $unwind$??$Max@H@?$DrawCommon@MMHHMMEE@@AEAAHHH@Z 000000018006f970     insertShapeUtilsCore.obj
 0002:0000b978       $unwind$??$Min@H@?$DrawCommon@MMHHMMEE@@AEAAHHH@Z 000000018006f978     insertShapeUtilsCore.obj
 0002:0000b980       $unwind$??$getRowDimen@H@@YAHHPEBH@Z 000000018006f980     insertShapeUtilsCore.obj
 0002:0000b988       $unwind$??$getColDimen@H@@YAHHPEBH@Z 000000018006f988     insertShapeUtilsCore.obj
 0002:0000b990       $unwind$?multiplyEqual@@YAXPEAEHPEBMH@Z 000000018006f990     cvstDraw.obj
 0002:0000b998       $unwind$?multiplyEqual@@YAXPEAGHPEBMH@Z 000000018006f998     cvstDraw.obj
 0002:0000b9a0       $unwind$?multiplyEqual@@YAXPEAFHPEBMH@Z 000000018006f9a0     cvstDraw.obj
 0002:0000b9a8       $unwind$?isLineWidthApplicable@@YAEHE@Z 000000018006f9a8     insertShapeAndMarkerUtils.obj
 0002:0000b9b0       $unwind$?useFillShapePolygonCodeX@@YAEHEE@Z 000000018006f9b0     insertShapeAndMarkerUtils.obj
 0002:0000b9b8       $unwind$?isLineOrNonFilledPolygon@@YAEHE@Z 000000018006f9b8     insertShapeAndMarkerUtils.obj
 0002:0000b9c0       $unwind$?drawShapes@@YAXPEAPEAVDrawBase@@EEHHHH@Z 000000018006f9c0     insertShapeAndMarkerUtils.obj
 0002:0000b9c8       $unwind$?copyInputImageToOutput@@YAXPEAXPEBX_K@Z 000000018006f9c8     insertShapeAndMarkerUtils.obj
 0002:0000b9d0       $unwind$__report_securityfailure 000000018006f9d0     MSVCRT:gs_report.obj
 0002:0000b9d8       $unwind$__report_securityfailureEx 000000018006f9d8     MSVCRT:gs_report.obj
 0002:0000b9e0       $unwind$__report_rangecheckfailure 000000018006f9e0     MSVCRT:gs_report.obj
 0002:0000b9e8       $unwind$__report_gsfailure 000000018006f9e8     MSVCRT:gs_report.obj
 0002:0000b9f0       $unwind$capture_current_context 000000018006f9f0     MSVCRT:gs_report.obj
 0002:0000b9fc       $unwind$capture_previous_context 000000018006f9fc     MSVCRT:gs_report.obj
 0002:0000ba08       $unwind$__raise_securityfailure 000000018006fa08     MSVCRT:gs_report.obj
 0002:0000ba10       $unwind$__GSHandlerCheckCommon 000000018006fa10     MSVCRT:_gshandler_.obj
 0002:0000ba18       $unwind$__GSHandlerCheck   000000018006fa18     MSVCRT:_gshandler_.obj
 0002:0000ba20       $xdatasym                  000000018006fa20     MSVCRT:_amdsecgs_.obj
 0002:0000ba28       $xdatasym                  000000018006fa28     MSVCRT:_chkstk_.obj
 0002:0000ba30       $unwind$??2@YAPEAX_K@Z     000000018006fa30     MSVCRT:new_scalar.obj
 0002:0000ba38       $unwind$??_Gtype_info@@UEAAPEAXI@Z 000000018006fa38     MSVCRT:std_type_info_static.obj
 0002:0000ba40       $unwind$?dllmain_crt_process_attach@@YAHQEAUHINSTANCE__@@QEAX@Z 000000018006fa40     MSVCRT:dll_dllmain.obj
 0002:0000ba6c       $unwind$?fin$0@?0??dllmain_crt_process_attach@@YAHQEAUHINSTANCE__@@QEAX@Z@4HA 000000018006fa6c     MSVCRT:dll_dllmain.obj
 0002:0000ba74       $unwind$?dllmain_crt_process_detach@@YAH_N@Z 000000018006fa74     MSVCRT:dll_dllmain.obj
 0002:0000ba9c       $unwind$?fin$0@?0??dllmain_crt_process_detach@@YAH_N@Z@4HA 000000018006fa9c     MSVCRT:dll_dllmain.obj
 0002:0000baa4       $unwind$?dllmain_crt_dispatch@@YAHQEAUHINSTANCE__@@KQEAX@Z 000000018006faa4     MSVCRT:dll_dllmain.obj
 0002:0000baac       $unwind$?dllmain_raw@@YAHQEAUHINSTANCE__@@KQEAX@Z 000000018006faac     MSVCRT:dll_dllmain.obj
 0002:0000bac0       $unwind$?dllmain_dispatch@@YAHQEAUHINSTANCE__@@KQEAX@Z 000000018006fac0     MSVCRT:dll_dllmain.obj
 0002:0000bae8       $unwind$?filt$0@?0??dllmain_dispatch@@YAHQEAUHINSTANCE__@@KQEAX@Z@4HA 000000018006fae8     MSVCRT:dll_dllmain.obj
 0002:0000baf0       $unwind$_DllMainCRTStartup 000000018006faf0     MSVCRT:dll_dllmain.obj
 0002:0000bb00       $unwind$??0exception@std@@QEAA@AEBV01@@Z 000000018006fb00     MSVCRT:throw_bad_alloc.obj
 0002:0000bb08       $unwind$??_Gexception@std@@UEAAPEAXI@Z 000000018006fb08     MSVCRT:throw_bad_alloc.obj
 0002:0000bb14       $unwind$??0bad_alloc@std@@QEAA@AEBV01@@Z 000000018006fb14     MSVCRT:throw_bad_alloc.obj
 0002:0000bb1c       $unwind$??_Gbad_alloc@std@@UEAAPEAXI@Z 000000018006fb1c     MSVCRT:throw_bad_alloc.obj
 0002:0000bb28       $unwind$??0bad_array_new_length@std@@QEAA@AEBV01@@Z 000000018006fb28     MSVCRT:throw_bad_alloc.obj
 0002:0000bb30       $unwind$??_Gbad_array_new_length@std@@UEAAPEAXI@Z 000000018006fb30     MSVCRT:throw_bad_alloc.obj
 0002:0000bb3c       $unwind$?__scrt_throw_std_bad_alloc@@YAXXZ 000000018006fb3c     MSVCRT:throw_bad_alloc.obj
 0002:0000bb44       $unwind$?__scrt_throw_std_bad_array_new_length@@YAXXZ 000000018006fb44     MSVCRT:throw_bad_alloc.obj
 0002:0000bb4c       $unwind$atexit             000000018006fb4c     MSVCRT:utility.obj
 0002:0000bb54       $unwind$_onexit            000000018006fb54     MSVCRT:utility.obj
 0002:0000bb5c       $unwind$__scrt_is_nonwritable_in_current_image 000000018006fb5c     MSVCRT:utility.obj
 0002:0000bb7c       $unwind$__scrt_is_nonwritable_in_current_image$filt$0 000000018006fb7c     MSVCRT:utility.obj
 0002:0000bb84       $unwind$__scrt_acquire_startup_lock 000000018006fb84     MSVCRT:utility.obj
 0002:0000bb8c       $unwind$__scrt_release_startup_lock 000000018006fb8c     MSVCRT:utility.obj
 0002:0000bb94       $unwind$__scrt_initialize_crt 000000018006fb94     MSVCRT:utility.obj
 0002:0000bb9c       $unwind$__scrt_uninitialize_crt 000000018006fb9c     MSVCRT:utility.obj
 0002:0000bba4       $unwind$__scrt_initialize_onexit_tables 000000018006fba4     MSVCRT:utility.obj
 0002:0000bbb0       $unwind$__scrt_dllmain_exception_filter 000000018006fbb0     MSVCRT:utility.obj
 0002:0000bbc4       $unwind$__scrt_dllmain_before_initialize_c 000000018006fbc4     MSVCRT:utility.obj
 0002:0000bbcc       $unwind$__scrt_dllmain_after_initialize_c 000000018006fbcc     MSVCRT:utility.obj
 0002:0000bbd4       $unwind$__scrt_dllmain_uninitialize_c 000000018006fbd4     MSVCRT:utility.obj
 0002:0000bbdc       $unwind$__scrt_dllmain_uninitialize_critical 000000018006fbdc     MSVCRT:utility.obj
 0002:0000bbe4       $unwind$__scrt_dllmain_crt_thread_attach 000000018006fbe4     MSVCRT:utility.obj
 0002:0000bbec       $unwind$__scrt_dllmain_crt_thread_detach 000000018006fbec     MSVCRT:utility.obj
 0002:0000bbf4       $unwind$?configure_argv@__scrt_narrow_argv_policy@@SAHXZ 000000018006fbf4     MSVCRT:utility.obj
 0002:0000bbfc       $unwind$__security_init_cookie 000000018006fbfc     MSVCRT:gs_support.obj
 0002:0000bc08       $unwind$DllMain            000000018006fc08     MSVCRT:dll_dllmain_stub.obj
 0002:0000bc10       $unwind$__scrt_initialize_default_local_stdio_options 000000018006fc10     MSVCRT:default_local_stdio_options.obj
 0002:0000bc18       $unwind$__scrt_get_show_window_mode 000000018006fc18     MSVCRT:utility_desktop.obj
 0002:0000bc20       $unwind$__scrt_is_managed_app 000000018006fc20     MSVCRT:utility_desktop.obj
 0002:0000bc28       $unwind$__scrt_fastfail    000000018006fc28     MSVCRT:utility_desktop.obj
 0002:0000bc38       $unwind$__scrt_unhandled_exception_filter 000000018006fc38     MSVCRT:utility_desktop.obj
 0002:0000bc40       $unwind$_RTC_Initialize    000000018006fc40     MSVCRT:_initsect_.obj
 0002:0000bc50       $unwind$_RTC_Terminate     000000018006fc50     MSVCRT:_initsect_.obj
 0002:0000bc60       $unwind$__isa_available_init 000000018006fc60     MSVCRT:_cpu_disp_.obj
 0002:0000bc70       $xdatasym                  000000018006fc70     MSVCRT:_guard_dispatch_.obj
 0002:0000bd70       .edata                     000000018006fd70     flightControlSystem_sfun.exp
 0002:0000bd98       rgpv                       000000018006fd98     flightControlSystem_sfun.exp
 0002:0000bdcc       rgszName                   000000018006fdcc     flightControlSystem_sfun.exp
 0002:0000be00       rgwOrd                     000000018006fe00     flightControlSystem_sfun.exp
 0002:0000be1a       szName                     000000018006fe1a     flightControlSystem_sfun.exp
 0002:0000be3a       $N00001                    000000018006fe3a     flightControlSystem_sfun.exp
 0002:0000be57       $N00002                    000000018006fe57     flightControlSystem_sfun.exp
 0002:0000be6d       $N00003                    000000018006fe6d     flightControlSystem_sfun.exp
 0002:0000be87       $N00004                    000000018006fe87     flightControlSystem_sfun.exp
 0002:0000be9e       $N00005                    000000018006fe9e     flightControlSystem_sfun.exp
 0002:0000beb6       $N00006                    000000018006feb6     flightControlSystem_sfun.exp
 0002:0000bed6       $N00007                    000000018006fed6     flightControlSystem_sfun.exp
 0002:0000bef5       $N00008                    000000018006fef5     flightControlSystem_sfun.exp
 0002:0000bf15       $N00009                    000000018006ff15     flightControlSystem_sfun.exp
 0002:0000bf35       $N00010                    000000018006ff35     flightControlSystem_sfun.exp
 0002:0000bf54       $N00011                    000000018006ff54     flightControlSystem_sfun.exp
 0002:0000bf60       $N00012                    000000018006ff60     flightControlSystem_sfun.exp
 0002:0000bf6c       $N00013                    000000018006ff6c     flightControlSystem_sfun.exp
 0002:0000c57c       .idata$6                   000000018007057c     libmwrgb2hsv_tbb:libmwrgb2hsv_tbb.dll
 0002:0000c9c2       .idata$6                   00000001800709c2     sf_runtime:sf_runtime.dll
 0002:0000cb4c       .idata$6                   0000000180070b4c     libmx:libmx.dll
 0002:0000cbe0       .idata$6                   0000000180070be0     libmex:libmex.dll
 0002:0000cc02       .idata$6                   0000000180070c02     libut:libut.dll
 0002:0000cc22       .idata$6                   0000000180070c22     libmwmathutil:libmwmathutil.dll
 0002:0000ccc4       .idata$6                   0000000180070cc4     libemlrt:libemlrt.dll
 0002:0000cda4       .idata$6                   0000000180070da4     libcovrt:libcovrt.dll
 0002:0000cf3e       .idata$6                   0000000180070f3e     kernel32:KERNEL32.dll
 0002:0000d002       .idata$6                   0000000180071002     vcruntime:VCRUNTIME140.dll
 0002:0000d17e       .idata$6                   000000018007117e     ucrt:api-ms-win-crt-string-l1-1-0.dll
 0002:0000d1a0       .idata$6                   00000001800711a0     ucrt:api-ms-win-crt-stdio-l1-1-0.dll
 0002:0000d1c0       .idata$6                   00000001800711c0     ucrt:api-ms-win-crt-heap-l1-1-0.dll
 0002:0000d1e0       .idata$6                   00000001800711e0     ucrt:api-ms-win-crt-math-l1-1-0.dll
 0002:0000d200       .idata$6                   0000000180071200     ucrt:api-ms-win-crt-runtime-l1-1-0.dll
 0003:00000000       $SG20548                   0000000180072000     flightControlSystem_sfun.obj
 0003:00000018       $SG20553                   0000000180072018     flightControlSystem_sfun.obj
 0003:00000020       $SG20556                   0000000180072020     flightControlSystem_sfun.obj
 0003:00000028       $SG20561                   0000000180072028     flightControlSystem_sfun.obj
 0003:00000030       $SG20591                   0000000180072030     flightControlSystem_sfun.obj
 0003:00000050       $SG20594                   0000000180072050     flightControlSystem_sfun.obj
 0003:00000068       $SG20623                   0000000180072068     flightControlSystem_sfun.obj
 0003:00000088       $SG20626                   0000000180072088     flightControlSystem_sfun.obj
 0003:000000a0       $SG20655                   00000001800720a0     flightControlSystem_sfun.obj
 0003:000000b8       $SG20658                   00000001800720b8     flightControlSystem_sfun.obj
 0003:000000d0       $SG20688                   00000001800720d0     flightControlSystem_sfun.obj
 0003:000000e8       $SG20691                   00000001800720e8     flightControlSystem_sfun.obj
 0003:00000100       $SG20720                   0000000180072100     flightControlSystem_sfun.obj
 0003:00000120       $SG20723                   0000000180072120     flightControlSystem_sfun.obj
 0003:00000138       $SG20749                   0000000180072138     flightControlSystem_sfun.obj
 0003:00000150       $SG20750                   0000000180072150     flightControlSystem_sfun.obj
 0003:00000170       $SG20480                   0000000180072170     c1_flightControlSystem.obj
 0003:000001d0       c1_b_emlrtMCI              00000001800721d0     c1_flightControlSystem.obj
 0003:000001e8       $SG20482                   00000001800721e8     c1_flightControlSystem.obj
 0003:000001f4       $SG20485                   00000001800721f4     c1_flightControlSystem.obj
 0003:00000200       $SG20483                   0000000180072200     c1_flightControlSystem.obj
 0003:00000244       $SG21535                   0000000180072244     c1_flightControlSystem.obj
 0003:00000248       c1_c_emlrtMCI              0000000180072248     c1_flightControlSystem.obj
 0003:00000260       $SG20486                   0000000180072260     c1_flightControlSystem.obj
 0003:000002a8       c1_d_emlrtMCI              00000001800722a8     c1_flightControlSystem.obj
 0003:000002c0       $SG20488                   00000001800722c0     c1_flightControlSystem.obj
 0003:000002d8       c1_e_emlrtMCI              00000001800722d8     c1_flightControlSystem.obj
 0003:000002f0       $SG20489                   00000001800722f0     c1_flightControlSystem.obj
 0003:00000348       $SG20491                   0000000180072348     c1_flightControlSystem.obj
 0003:00000360       $SG20492                   0000000180072360     c1_flightControlSystem.obj
 0003:000003b8       c1_f_emlrtMCI              00000001800723b8     c1_flightControlSystem.obj
 0003:000003d0       $SG20494                   00000001800723d0     c1_flightControlSystem.obj
 0003:000003f0       $SG20495                   00000001800723f0     c1_flightControlSystem.obj
 0003:0000044c       $SG21536                   000000018007244c     c1_flightControlSystem.obj
 0003:00000450       c1_emlrtRSI                0000000180072450     c1_flightControlSystem.obj
 0003:00000468       $SG20497                   0000000180072468     c1_flightControlSystem.obj
 0003:00000480       $SG20498                   0000000180072480     c1_flightControlSystem.obj
 0003:000004dc       $SG21537                   00000001800724dc     c1_flightControlSystem.obj
 0003:000004e0       c1_b_emlrtRSI              00000001800724e0     c1_flightControlSystem.obj
 0003:000004f8       $SG20500                   00000001800724f8     c1_flightControlSystem.obj
 0003:00000508       c1_c_emlrtRSI              0000000180072508     c1_flightControlSystem.obj
 0003:00000520       $SG20501                   0000000180072520     c1_flightControlSystem.obj
 0003:00000580       $SG20503                   0000000180072580     c1_flightControlSystem.obj
 0003:000005ac       $SG21540                   00000001800725ac     c1_flightControlSystem.obj
 0003:000005b4       $SG21548                   00000001800725b4     c1_flightControlSystem.obj
 0003:000005b8       $SG20504                   00000001800725b8     c1_flightControlSystem.obj
 0003:000005d4       $SG20524                   00000001800725d4     c1_flightControlSystem.obj
 0003:000005dc       $SG21549                   00000001800725dc     c1_flightControlSystem.obj
 0003:000005e0       c1_d_emlrtRSI              00000001800725e0     c1_flightControlSystem.obj
 0003:000005f8       $SG20506                   00000001800725f8     c1_flightControlSystem.obj
 0003:00000624       $SG21550                   0000000180072624     c1_flightControlSystem.obj
 0003:00000628       $SG20507                   0000000180072628     c1_flightControlSystem.obj
 0003:00000644       $SG21551                   0000000180072644     c1_flightControlSystem.obj
 0003:00000648       c1_e_emlrtRSI              0000000180072648     c1_flightControlSystem.obj
 0003:00000660       $SG20509                   0000000180072660     c1_flightControlSystem.obj
 0003:0000068c       $SG21554                   000000018007268c     c1_flightControlSystem.obj
 0003:00000694       $SG21558                   0000000180072694     c1_flightControlSystem.obj
 0003:00000698       $SG20510                   0000000180072698     c1_flightControlSystem.obj
 0003:000006b4       $SG21559                   00000001800726b4     c1_flightControlSystem.obj
 0003:000006b8       c1_f_emlrtRSI              00000001800726b8     c1_flightControlSystem.obj
 0003:000006d0       $SG20512                   00000001800726d0     c1_flightControlSystem.obj
 0003:000006fc       $SG21562                   00000001800726fc     c1_flightControlSystem.obj
 0003:00000704       $SG21564                   0000000180072704     c1_flightControlSystem.obj
 0003:00000708       $SG20513                   0000000180072708     c1_flightControlSystem.obj
 0003:00000724       $SG20557                   0000000180072724     c1_flightControlSystem.obj
 0003:0000072c       $SG20829                   000000018007272c     c1_flightControlSystem.obj
 0003:00000730       c1_g_emlrtRSI              0000000180072730     c1_flightControlSystem.obj
 0003:00000748       $SG21538                   0000000180072748     c1_flightControlSystem.obj
 0003:00000750       $SG21539                   0000000180072750     c1_flightControlSystem.obj
 0003:0000075c       $SG20575                   000000018007275c     c1_flightControlSystem.obj
 0003:00000764       $SG20830                   0000000180072764     c1_flightControlSystem.obj
 0003:00000768       $SG20515                   0000000180072768     c1_flightControlSystem.obj
 0003:00000794       $SG21565                   0000000180072794     c1_flightControlSystem.obj
 0003:0000079c       $SG21646                   000000018007279c     c1_flightControlSystem.obj
 0003:000007a4       $SG20831                   00000001800727a4     c1_flightControlSystem.obj
 0003:000007a8       $SG20516                   00000001800727a8     c1_flightControlSystem.obj
 0003:000007c4       $SG21648                   00000001800727c4     c1_flightControlSystem.obj
 0003:000007cc       $SG20843                   00000001800727cc     c1_flightControlSystem.obj
 0003:000007d0       c1_h_emlrtRSI              00000001800727d0     c1_flightControlSystem.obj
 0003:000007e8       $SG20518                   00000001800727e8     c1_flightControlSystem.obj
 0003:000007f0       $SG20519                   00000001800727f0     c1_flightControlSystem.obj
 0003:00000838       c1_i_emlrtRSI              0000000180072838     c1_flightControlSystem.obj
 0003:00000850       $SG20521                   0000000180072850     c1_flightControlSystem.obj
 0003:00000860       $SG20522                   0000000180072860     c1_flightControlSystem.obj
 0003:000008b4       ?c1_cv1@?1??c1_SystemCore_step@@9@9 00000001800728b4     c1_flightControlSystem.obj
 0003:000008b8       c1_j_emlrtRSI              00000001800728b8     c1_flightControlSystem.obj
 0003:000008d0       $SG20525                   00000001800728d0     c1_flightControlSystem.obj
 0003:0000092c       $SG21129                   000000018007292c     c1_flightControlSystem.obj
 0003:00000930       c1_k_emlrtRSI              0000000180072930     c1_flightControlSystem.obj
 0003:00000948       $SG20527                   0000000180072948     c1_flightControlSystem.obj
 0003:00000954       $SG21130                   0000000180072954     c1_flightControlSystem.obj
 0003:00000958       $SG21552                   0000000180072958     c1_flightControlSystem.obj
 0003:00000960       $SG20528                   0000000180072960     c1_flightControlSystem.obj
 0003:000009c0       c1_l_emlrtRSI              00000001800729c0     c1_flightControlSystem.obj
 0003:000009d8       $SG21553                   00000001800729d8     c1_flightControlSystem.obj
 0003:000009e4       $SG21131                   00000001800729e4     c1_flightControlSystem.obj
 0003:000009e8       $SG20530                   00000001800729e8     c1_flightControlSystem.obj
 0003:000009f8       c1_m_emlrtRSI              00000001800729f8     c1_flightControlSystem.obj
 0003:00000a10       $SG20531                   0000000180072a10     c1_flightControlSystem.obj
 0003:00000a68       $SG20533                   0000000180072a68     c1_flightControlSystem.obj
 0003:00000a84       $SG21697                   0000000180072a84     c1_flightControlSystem.obj
 0003:00000a90       $SG20534                   0000000180072a90     c1_flightControlSystem.obj
 0003:00000b00       c1_n_emlrtRSI              0000000180072b00     c1_flightControlSystem.obj
 0003:00000b18       $SG21560                   0000000180072b18     c1_flightControlSystem.obj
 0003:00000b20       $SG20536                   0000000180072b20     c1_flightControlSystem.obj
 0003:00000b2c       $SG21137                   0000000180072b2c     c1_flightControlSystem.obj
 0003:00000b30       $SG21561                   0000000180072b30     c1_flightControlSystem.obj
 0003:00000b40       $SG20537                   0000000180072b40     c1_flightControlSystem.obj
 0003:00000b84       $SG21138                   0000000180072b84     c1_flightControlSystem.obj
 0003:00000b88       c1_o_emlrtRSI              0000000180072b88     c1_flightControlSystem.obj
 0003:00000ba0       $SG20539                   0000000180072ba0     c1_flightControlSystem.obj
 0003:00000bb0       $SG20540                   0000000180072bb0     c1_flightControlSystem.obj
 0003:00000bf4       $SG21139                   0000000180072bf4     c1_flightControlSystem.obj
 0003:00000bf8       c1_p_emlrtRSI              0000000180072bf8     c1_flightControlSystem.obj
 0003:00000c10       $SG20542                   0000000180072c10     c1_flightControlSystem.obj
 0003:00000c20       $SG20543                   0000000180072c20     c1_flightControlSystem.obj
 0003:00000c64       ?c1_bv@?1??c1_insertShape@@9@9 0000000180072c64     c1_flightControlSystem.obj
 0003:00000c68       c1_q_emlrtRSI              0000000180072c68     c1_flightControlSystem.obj
 0003:00000c80       $SG20545                   0000000180072c80     c1_flightControlSystem.obj
 0003:00000c90       $SG20546                   0000000180072c90     c1_flightControlSystem.obj
 0003:00000cd4       ?c1_b_uv@?1??c1_validateAndParseInputs@@9@9 0000000180072cd4     c1_flightControlSystem.obj
 0003:00000cd8       c1_r_emlrtRSI              0000000180072cd8     c1_flightControlSystem.obj
 0003:00000cf0       $SG20548                   0000000180072cf0     c1_flightControlSystem.obj
 0003:00000d00       $SG20549                   0000000180072d00     c1_flightControlSystem.obj
 0003:00000d48       c1_s_emlrtRSI              0000000180072d48     c1_flightControlSystem.obj
 0003:00000d60       $SG20551                   0000000180072d60     c1_flightControlSystem.obj
 0003:00000d70       $SG20552                   0000000180072d70     c1_flightControlSystem.obj
 0003:00000db8       c1_t_emlrtRSI              0000000180072db8     c1_flightControlSystem.obj
 0003:00000dd0       $SG20554                   0000000180072dd0     c1_flightControlSystem.obj
 0003:00000de0       $SG20555                   0000000180072de0     c1_flightControlSystem.obj
 0003:00000e28       c1_u_emlrtRSI              0000000180072e28     c1_flightControlSystem.obj
 0003:00000e40       $SG20558                   0000000180072e40     c1_flightControlSystem.obj
 0003:00000e88       c1_v_emlrtRSI              0000000180072e88     c1_flightControlSystem.obj
 0003:00000ea0       $SG20560                   0000000180072ea0     c1_flightControlSystem.obj
 0003:00000eb8       c1_w_emlrtRSI              0000000180072eb8     c1_flightControlSystem.obj
 0003:00000ed0       $SG20561                   0000000180072ed0     c1_flightControlSystem.obj
 0003:00000f40       $SG20563                   0000000180072f40     c1_flightControlSystem.obj
 0003:00000f58       c1_emlrtRTEI               0000000180072f58     c1_flightControlSystem.obj
 0003:00000f70       $SG20564                   0000000180072f70     c1_flightControlSystem.obj
 0003:00000fe0       $SG20566                   0000000180072fe0     c1_flightControlSystem.obj
 0003:00000ff0       $SG20567                   0000000180072ff0     c1_flightControlSystem.obj
 0003:00001048       c1_b_emlrtRTEI             0000000180073048     c1_flightControlSystem.obj
 0003:00001060       $SG20569                   0000000180073060     c1_flightControlSystem.obj
 0003:00001070       $SG20570                   0000000180073070     c1_flightControlSystem.obj
 0003:000010b8       c1_c_emlrtRTEI             00000001800730b8     c1_flightControlSystem.obj
 0003:000010d0       $SG20572                   00000001800730d0     c1_flightControlSystem.obj
 0003:000010e0       $SG20573                   00000001800730e0     c1_flightControlSystem.obj
 0003:00001128       c1_d_emlrtRTEI             0000000180073128     c1_flightControlSystem.obj
 0003:00001140       $SG20576                   0000000180073140     c1_flightControlSystem.obj
 0003:00001188       c1_e_emlrtRTEI             0000000180073188     c1_flightControlSystem.obj
 0003:000011a0       $SG20578                   00000001800731a0     c1_flightControlSystem.obj
 0003:000011b0       $SG20579                   00000001800731b0     c1_flightControlSystem.obj
 0003:000011f8       $SG21675                   00000001800731f8     c1_flightControlSystem.obj
 0003:00001230       $SG21676                   0000000180073230     c1_flightControlSystem.obj
 0003:00001260       $SG21687                   0000000180073260     c1_flightControlSystem.obj
 0003:00001270       $SG21688                   0000000180073270     c1_flightControlSystem.obj
 0003:00001280       $SG21689                   0000000180073280     c1_flightControlSystem.obj
 0003:00001290       $SG21690                   0000000180073290     c1_flightControlSystem.obj
 0003:000012a0       $SG21691                   00000001800732a0     c1_flightControlSystem.obj
 0003:000012b8       $SG21692                   00000001800732b8     c1_flightControlSystem.obj
 0003:000012d0       $SG21693                   00000001800732d0     c1_flightControlSystem.obj
 0003:000012e8       $SG21694                   00000001800732e8     c1_flightControlSystem.obj
 0003:00001300       $SG21695                   0000000180073300     c1_flightControlSystem.obj
 0003:00001318       $SG21696                   0000000180073318     c1_flightControlSystem.obj
 0003:00001330       $SG21698                   0000000180073330     c1_flightControlSystem.obj
